LIBRARY "acomx.dll"
EXPORTS
"??0Card@@QEAA@AEBV0@@Z" ; acomx.dll
"??0Card@@QEAA@PEAVSmartCardConnection@@@Z" ; acomx.dll
"??0Card@@QEAA@XZ" ; acomx.dll
"??0CardAccessor@@QEAA@AEBV0@@Z" ; acomx.dll
"??0CardAccessor@@QEAA@XZ" ; acomx.dll
"??0CardCriteria@@QEAA@AEBV0@@Z" ; acomx.dll
"??0CardCriteria@@QEAA@XZ" ; acomx.dll
"??0Criteria@@QEAA@AEBV0@@Z" ; acomx.dll
"??0Criteria@@QEAA@XZ" ; acomx.dll
"??0ObjectAccessor@@QEAA@AEBV0@@Z" ; acomx.dll
"??0ObjectAccessor@@QEAA@XZ" ; acomx.dll
"??0PIN@@QEAA@AEBV0@@Z" ; acomx.dll
"??0PIN@@QEAA@PEAVSmartCardConnection@@@Z" ; acomx.dll
"??0PIN@@QEAA@XZ" ; acomx.dll
"??0PINAccessor@@QEAA@AEBV0@@Z" ; acomx.dll
"??0PINAccessor@@QEAA@XZ" ; acomx.dll
"??0PINCriteria@@QEAA@AEBV0@@Z" ; acomx.dll
"??0PINCriteria@@QEAA@XZ" ; acomx.dll
"??0PINLogicalCriteria@@QEAA@AEBV0@@Z" ; acomx.dll
"??0PINLogicalCriteria@@QEAA@W4PINLogicalCriteriaType@@PEAEI@Z" ; acomx.dll
"??0Reader@@QEAA@AEBV0@@Z" ; acomx.dll
"??0Reader@@QEAA@PEAD@Z" ; acomx.dll
"??0ReaderManager@@QEAA@AEBV0@@Z" ; acomx.dll
"??0ReaderManager@@QEAA@XZ" ; acomx.dll
"??0SDKCardServiceFactory@@QEAA@AEBV0@@Z" ; acomx.dll
"??0SDKCardServiceFactory@@QEAA@XZ" ; acomx.dll
"??0SKI@@QEAA@AEBV0@@Z" ; acomx.dll
"??0SKI@@QEAA@PEAVSmartCardConnection@@@Z" ; acomx.dll
"??0SKI@@QEAA@XZ" ; acomx.dll
"??0SKIAccessor@@QEAA@AEBV0@@Z" ; acomx.dll
"??0SKIAccessor@@QEAA@XZ" ; acomx.dll
"??0SKICriteria@@QEAA@AEBV0@@Z" ; acomx.dll
"??0SKICriteria@@QEAA@XZ" ; acomx.dll
"??0SKILogicalCriteria@@QEAA@AEBV0@@Z" ; acomx.dll
"??0SKILogicalCriteria@@QEAA@W4SKILogicalCriteriaType@@PEAEI@Z" ; acomx.dll
"??0SmartCardConnection@@QEAA@AEBV0@@Z" ; acomx.dll
"??0SmartCardConnection@@QEAA@XZ" ; acomx.dll
"??0SmartCardConnectionManager@@QEAA@AEBV0@@Z" ; acomx.dll
"??0SmartCardConnectionManager@@QEAA@XZ" ; acomx.dll
"??0Static@@QEAA@AEBV0@@Z" ; acomx.dll
"??0Static@@QEAA@PEAVSmartCardConnection@@@Z" ; acomx.dll
"??0Static@@QEAA@XZ" ; acomx.dll
"??0StaticAccessor@@QEAA@AEBV0@@Z" ; acomx.dll
"??0StaticAccessor@@QEAA@XZ" ; acomx.dll
"??0StaticCriteria@@QEAA@AEBV0@@Z" ; acomx.dll
"??0StaticCriteria@@QEAA@XZ" ; acomx.dll
"??0StaticLogicalCriteria@@QEAA@AEBV0@@Z" ; acomx.dll
"??0StaticLogicalCriteria@@QEAA@W4StaticLogicalCriteriaType@@PEAEI@Z" ; acomx.dll
"??1Card@@UEAA@XZ" ; acomx.dll
"??1CardAccessor@@UEAA@XZ" ; acomx.dll
"??1CardCriteria@@UEAA@XZ" ; acomx.dll
"??1Criteria@@UEAA@XZ" ; acomx.dll
"??1ObjectAccessor@@UEAA@XZ" ; acomx.dll
"??1PIN@@UEAA@XZ" ; acomx.dll
"??1PINAccessor@@UEAA@XZ" ; acomx.dll
"??1PINCriteria@@UEAA@XZ" ; acomx.dll
"??1PINLogicalCriteria@@UEAA@XZ" ; acomx.dll
"??1Reader@@UEAA@XZ" ; acomx.dll
"??1ReaderManager@@UEAA@XZ" ; acomx.dll
"??1SDKCardServiceFactory@@UEAA@XZ" ; acomx.dll
"??1SKI@@UEAA@XZ" ; acomx.dll
"??1SKIAccessor@@UEAA@XZ" ; acomx.dll
"??1SKICriteria@@UEAA@XZ" ; acomx.dll
"??1SKILogicalCriteria@@UEAA@XZ" ; acomx.dll
"??1SmartCardConnection@@UEAA@XZ" ; acomx.dll
"??1SmartCardConnectionManager@@UEAA@XZ" ; acomx.dll
"??1Static@@UEAA@XZ" ; acomx.dll
"??1StaticAccessor@@UEAA@XZ" ; acomx.dll
"??1StaticCriteria@@UEAA@XZ" ; acomx.dll
"??1StaticLogicalCriteria@@UEAA@XZ" ; acomx.dll
"??4Card@@QEAAAEAV0@AEBV0@@Z" ; acomx.dll
"??4CardAccessor@@QEAAAEAV0@AEBV0@@Z" ; acomx.dll
"??4CardCriteria@@QEAAAEAV0@AEBV0@@Z" ; acomx.dll
"??4Criteria@@QEAAAEAV0@AEBV0@@Z" ; acomx.dll
"??4ObjectAccessor@@QEAAAEAV0@AEBV0@@Z" ; acomx.dll
"??4PIN@@QEAAAEAV0@AEBV0@@Z" ; acomx.dll
"??4PINAccessor@@QEAAAEAV0@AEBV0@@Z" ; acomx.dll
"??4PINCriteria@@QEAAAEAV0@AEBV0@@Z" ; acomx.dll
"??4PINLogicalCriteria@@QEAAAEAV0@AEBV0@@Z" ; acomx.dll
"??4Reader@@QEAAAEAV0@AEBV0@@Z" ; acomx.dll
"??4ReaderManager@@QEAAAEAV0@AEBV0@@Z" ; acomx.dll
"??4SDKCardServiceFactory@@QEAAAEAV0@AEBV0@@Z" ; acomx.dll
"??4SKI@@QEAAAEAV0@AEBV0@@Z" ; acomx.dll
"??4SKIAccessor@@QEAAAEAV0@AEBV0@@Z" ; acomx.dll
"??4SKICriteria@@QEAAAEAV0@AEBV0@@Z" ; acomx.dll
"??4SKILogicalCriteria@@QEAAAEAV0@AEBV0@@Z" ; acomx.dll
"??4SmartCardConnection@@QEAAAEAV0@AEBV0@@Z" ; acomx.dll
"??4SmartCardConnectionManager@@QEAAAEAV0@AEBV0@@Z" ; acomx.dll
"??4Static@@QEAAAEAV0@AEBV0@@Z" ; acomx.dll
"??4StaticAccessor@@QEAAAEAV0@AEBV0@@Z" ; acomx.dll
"??4StaticCriteria@@QEAAAEAV0@AEBV0@@Z" ; acomx.dll
"??4StaticLogicalCriteria@@QEAAAEAV0@AEBV0@@Z" ; acomx.dll
"??_7Card@@6B@" ; acomx.dll
"??_7CardAccessor@@6B@" ; acomx.dll
"??_7CardCriteria@@6B@" ; acomx.dll
"??_7Criteria@@6B@" ; acomx.dll
"??_7ObjectAccessor@@6B@" ; acomx.dll
"??_7PIN@@6B@" ; acomx.dll
"??_7PINAccessor@@6B@" ; acomx.dll
"??_7PINCriteria@@6B@" ; acomx.dll
"??_7PINLogicalCriteria@@6B@" ; acomx.dll
"??_7Reader@@6B@" ; acomx.dll
"??_7ReaderManager@@6B@" ; acomx.dll
"??_7SDKCardServiceFactory@@6B@" ; acomx.dll
"??_7SKI@@6B@" ; acomx.dll
"??_7SKIAccessor@@6B@" ; acomx.dll
"??_7SKICriteria@@6B@" ; acomx.dll
"??_7SKILogicalCriteria@@6B@" ; acomx.dll
"??_7SmartCardConnection@@6B@" ; acomx.dll
"??_7SmartCardConnectionManager@@6B@" ; acomx.dll
"??_7Static@@6B@" ; acomx.dll
"??_7StaticAccessor@@6B@" ; acomx.dll
"??_7StaticCriteria@@6B@" ; acomx.dll
"??_7StaticLogicalCriteria@@6B@" ; acomx.dll
"?CreateCardCriteria@@YAPEAVCardCriteria@@XZ" ; acomx.dll
"?CreatePINLogicalCriteria@@YAPEAVPINLogicalCriteria@@W4PINLogicalCriteriaType@@PEAEI@Z" ; acomx.dll
"?CreateSDKCardServiceFactory@@YAPEAVSDKCardServiceFactory@@XZ" ; acomx.dll
"?CreateSKILogicalCriteria@@YAPEAVSKILogicalCriteria@@W4SKILogicalCriteriaType@@PEAEI@Z" ; acomx.dll
"?CreateStaticLogicalCriteria@@YAPEAVStaticLogicalCriteria@@W4StaticLogicalCriteriaType@@PEAEI@Z" ; acomx.dll
"?GetCriteriaType@PINLogicalCriteria@@QEAA?AW4PINLogicalCriteriaType@@XZ" ; acomx.dll
"?GetCriteriaType@SKILogicalCriteria@@QEAA?AW4SKILogicalCriteriaType@@XZ" ; acomx.dll
"?GetCriteriaType@StaticLogicalCriteria@@QEAA?AW4StaticLogicalCriteriaType@@XZ" ; acomx.dll
"?GetCriteriaValue@PINLogicalCriteria@@QEAAPEAEXZ" ; acomx.dll
"?GetCriteriaValue@SKILogicalCriteria@@QEAAPEAEXZ" ; acomx.dll
"?GetCriteriaValue@StaticLogicalCriteria@@QEAAPEAEXZ" ; acomx.dll
"?GetCriteriaValueLen@PINLogicalCriteria@@QEAAIXZ" ; acomx.dll
"?GetCriteriaValueLen@SKILogicalCriteria@@QEAAIXZ" ; acomx.dll
"?GetCriteriaValueLen@StaticLogicalCriteria@@QEAAIXZ" ; acomx.dll
"?GetName@CardCriteria@@UEAAPEADXZ" ; acomx.dll
"?GetName@PINLogicalCriteria@@UEAAPEADXZ" ; acomx.dll
"?GetName@SKILogicalCriteria@@UEAAPEADXZ" ; acomx.dll
"?GetName@StaticLogicalCriteria@@UEAAPEADXZ" ; acomx.dll
"?GetReaderName@Reader@@UEAAPEADXZ" ; acomx.dll
"CreateCardCriteria" ; acomx.dll
"CreatePINLogicalCriteria" ; acomx.dll
"CreateSDKCardServiceFactory" ; acomx.dll
"CreateSKILogicalCriteria" ; acomx.dll
"CreateStaticLogicalCriteria" ; acomx.dll
