LIBRARY "aipingui.dll"
EXPORTS
"??0ACCertificateExpiryNotificationInfo@@QEAA@AEBV0@@Z" ; aipingui.dll
"??0ACCertificateExpiryNotificationInfo@@QEAA@V?$CStringT@DV?$StrTraitMFC_DLL@DV?$ChTraitsCRT@D@ATL@@@@@ATL@@_J@Z" ; aipingui.dll
"??0ACExpiryNotificationInfo@@QEAA@V?$CStringT@DV?$StrTraitMFC_DLL@DV?$ChTraitsCRT@D@ATL@@@@@ATL@@PEAX@Z" ; aipingui.dll
"??0ACPoliciesDlg@@QEAA@PEAUPwdRuleArgs@@HPEAUtagRECT@@PEAVCWnd@@HHH@Z" ; aipingui.dll
"??0CBaseDialog@@QEAA@IHPEAUtagRECT@@PEAVCWnd@@@Z" ; aipingui.dll
"??0CCMLockedDlg@@QEAA@PEAVCWnd@@PEBD@Z" ; aipingui.dll
"??0CCapsLockSensitiveEdit@@QEAA@XZ" ; aipingui.dll
"??0CChangePINDialog@@QEAA@HH_NPEAUtagRECT@@PEAUPwdRuleArgs@@PEAVCButton@@PEAVCWnd@@HHH@Z" ; aipingui.dll
"??0CDisplayUCChild@@QEAA@HPEAUtagRECT@@V?$CStringT@DV?$StrTraitMFC_DLL@DV?$ChTraitsCRT@D@ATL@@@@@ATL@@PEAVCWnd@@@Z" ; aipingui.dll
"??0CDisplayUnlockCodeDlg@@QEAA@PEAVCWnd@@PEBD1H@Z" ; aipingui.dll
"??0CInitializePinDlg@@QEAA@PEAVCWnd@@PEAUPINPolicies@@PEAXP6AH2V?$CStringT@DV?$StrTraitMFC_DLL@DV?$ChTraitsCRT@D@ATL@@@@@ATL@@HHHHHH@ZP6AH2@ZP6AH2AEAV34@@ZPEBD@Z" ; aipingui.dll
"??0CPopupAlert@@QEAA@XZ" ; aipingui.dll
"??0CResetCardDialog@@QEAA@HPEAUtagRECT@@PEAVCButton@@PEAVCWnd@@@Z" ; aipingui.dll
"??0CResetCardDialogMain@@QEAA@HPEAVCWnd@@HHHPEBD@Z" ; aipingui.dll
"??0CUnlockCardDlg@@QEAA@PEAVCWnd@@PEAUPwdRuleArgs@@PEAXP6AH2V?$CStringT@DV?$StrTraitMFC_DLL@DV?$ChTraitsCRT@D@ATL@@@@@ATL@@3@ZP6AH2AEAV34@@ZPEBD@Z" ; aipingui.dll
"??0CUnlockFailedDlg@@QEAA@PEAVCWnd@@PEBDH@Z" ; aipingui.dll
"??0CUnlockInitToolDlg@@QEAA@PEAVCWnd@@PEBDH@Z" ; aipingui.dll
"??0CUnlockSuccessDlg@@QEAA@PEAVCWnd@@@Z" ; aipingui.dll
"??1ACCertificateExpiryNotificationInfo@@QEAA@XZ" ; aipingui.dll
"??1ACExpiryNotificationInfo@@QEAA@XZ" ; aipingui.dll
"??1ACPoliciesDlg@@UEAA@XZ" ; aipingui.dll
"??1CBaseDialog@@UEAA@XZ" ; aipingui.dll
"??1CCMLockedDlg@@UEAA@XZ" ; aipingui.dll
"??1CCapsLockSensitiveEdit@@UEAA@XZ" ; aipingui.dll
"??1CChangePINDialog@@UEAA@XZ" ; aipingui.dll
"??1CDisplayUCChild@@UEAA@XZ" ; aipingui.dll
"??1CDisplayUnlockCodeDlg@@UEAA@XZ" ; aipingui.dll
"??1CInitializePinDlg@@UEAA@XZ" ; aipingui.dll
"??1CPopupAlert@@UEAA@XZ" ; aipingui.dll
"??1CResetCardDialog@@UEAA@XZ" ; aipingui.dll
"??1CResetCardDialogMain@@UEAA@XZ" ; aipingui.dll
"??1CUnlockCardDlg@@UEAA@XZ" ; aipingui.dll
"??1CUnlockFailedDlg@@UEAA@XZ" ; aipingui.dll
"??1CUnlockInitToolDlg@@UEAA@XZ" ; aipingui.dll
"??1CUnlockSuccessDlg@@UEAA@XZ" ; aipingui.dll
"??4ACCertificateExpiryNotificationInfo@@QEAAAEAV0@AEBV0@@Z" ; aipingui.dll
"??_7ACPoliciesDlg@@6B@" ; aipingui.dll
"??_7CBaseDialog@@6B@" ; aipingui.dll
"??_7CCMLockedDlg@@6B@" ; aipingui.dll
"??_7CCapsLockSensitiveEdit@@6B@" ; aipingui.dll
"??_7CChangePINDialog@@6B@" ; aipingui.dll
"??_7CDisplayUCChild@@6B@" ; aipingui.dll
"??_7CDisplayUnlockCodeDlg@@6B@" ; aipingui.dll
"??_7CInitializePinDlg@@6B@" ; aipingui.dll
"??_7CPopupAlert@@6B@" ; aipingui.dll
"??_7CResetCardDialog@@6B@" ; aipingui.dll
"??_7CResetCardDialogMain@@6B@" ; aipingui.dll
"??_7CUnlockCardDlg@@6B@" ; aipingui.dll
"??_7CUnlockFailedDlg@@6B@" ; aipingui.dll
"??_7CUnlockInitToolDlg@@6B@" ; aipingui.dll
"??_7CUnlockSuccessDlg@@6B@" ; aipingui.dll
"??_FCDisplayUCChild@@QEAAXXZ" ; aipingui.dll
"??_FCResetCardDialog@@QEAAXXZ" ; aipingui.dll
"??_FCUnlockSuccessDlg@@QEAAXXZ" ; aipingui.dll
"?AddCertificateExpiryNotificationInfo@ACExpiryNotificationInfo@@QEAAXV?$CStringT@DV?$StrTraitMFC_DLL@DV?$ChTraitsCRT@D@ATL@@@@@ATL@@_J@Z" ; aipingui.dll
"?AdjustWindow@CCMLockedDlg@@IEAAXXZ" ; aipingui.dll
"?CheckCapsLockMessage@CCapsLockSensitiveEdit@@IEAAXXZ" ; aipingui.dll
"?CheckWindow@CResetCardDialog@@QEAAX_N@Z" ; aipingui.dll
"?Create@CPopupAlert@@QEAAHPEAUHWND__@@@Z" ; aipingui.dll
"?DisablePIN@CResetCardDialog@@QEAAXXZ" ; aipingui.dll
"?DoDataExchange@ACPoliciesDlg@@MEAAXPEAVCDataExchange@@@Z" ; aipingui.dll
"?DoDataExchange@CBaseDialog@@MEAAXPEAVCDataExchange@@@Z" ; aipingui.dll
"?DoDataExchange@CCMLockedDlg@@MEAAXPEAVCDataExchange@@@Z" ; aipingui.dll
"?DoDataExchange@CChangePINDialog@@MEAAXPEAVCDataExchange@@@Z" ; aipingui.dll
"?DoDataExchange@CDisplayUCChild@@MEAAXPEAVCDataExchange@@@Z" ; aipingui.dll
"?DoDataExchange@CDisplayUnlockCodeDlg@@MEAAXPEAVCDataExchange@@@Z" ; aipingui.dll
"?DoDataExchange@CInitializePinDlg@@MEAAXPEAVCDataExchange@@@Z" ; aipingui.dll
"?DoDataExchange@CResetCardDialog@@MEAAXPEAVCDataExchange@@@Z" ; aipingui.dll
"?DoDataExchange@CResetCardDialogMain@@MEAAXPEAVCDataExchange@@@Z" ; aipingui.dll
"?DoDataExchange@CUnlockCardDlg@@MEAAXPEAVCDataExchange@@@Z" ; aipingui.dll
"?DoDataExchange@CUnlockFailedDlg@@MEAAXPEAVCDataExchange@@@Z" ; aipingui.dll
"?DoDataExchange@CUnlockInitToolDlg@@MEAAXPEAVCDataExchange@@@Z" ; aipingui.dll
"?DoDataExchange@CUnlockSuccessDlg@@MEAAXPEAVCDataExchange@@@Z" ; aipingui.dll
"?DoModal@CCMLockedDlg@@UEAA_JXZ" ; aipingui.dll
"?DoModal@CDisplayUnlockCodeDlg@@UEAA_JXZ" ; aipingui.dll
"?DoModal@CInitializePinDlg@@UEAA_JXZ" ; aipingui.dll
"?DoModal@CResetCardDialogMain@@UEAA_JXZ" ; aipingui.dll
"?DoModal@CUnlockCardDlg@@UEAA_JXZ" ; aipingui.dll
"?DoModal@CUnlockFailedDlg@@UEAA_JXZ" ; aipingui.dll
"?DoModal@CUnlockInitToolDlg@@UEAA_JXZ" ; aipingui.dll
"?DoModal@CUnlockSuccessDlg@@UEAA_JXZ" ; aipingui.dll
"?EraseAllPinBuffers@CChangePINDialog@@QEAAXXZ" ; aipingui.dll
"?GenerateRegion@CPopupAlert@@IEAAPEAUHRGN__@@PEAUHBITMAP__@@EEE@Z" ; aipingui.dll
"?Get24BitPixels@CPopupAlert@@IEAAPEAEPEAUHBITMAP__@@PEAG1@Z" ; aipingui.dll
"?GetCancelEvent@ACExpiryNotificationInfo@@QEAAPEAXXZ" ; aipingui.dll
"?GetCertificateExpiryDate@ACCertificateExpiryNotificationInfo@@QEAAAEAVCTime@ATL@@XZ" ; aipingui.dll
"?GetCertificateExpiryNotificationInfo@ACExpiryNotificationInfo@@QEAAPEAVACCertificateExpiryNotificationInfo@@H@Z" ; aipingui.dll
"?GetFriendlyName@ACCertificateExpiryNotificationInfo@@QEAA?AV?$CStringT@DV?$StrTraitMFC_DLL@DV?$ChTraitsCRT@D@ATL@@@@@ATL@@XZ" ; aipingui.dll
"?GetMessageMap@ACPoliciesDlg@@MEBAPEBUAFX_MSGMAP@@XZ" ; aipingui.dll
"?GetMessageMap@CBaseDialog@@MEBAPEBUAFX_MSGMAP@@XZ" ; aipingui.dll
"?GetMessageMap@CCMLockedDlg@@MEBAPEBUAFX_MSGMAP@@XZ" ; aipingui.dll
"?GetMessageMap@CCapsLockSensitiveEdit@@MEBAPEBUAFX_MSGMAP@@XZ" ; aipingui.dll
"?GetMessageMap@CChangePINDialog@@MEBAPEBUAFX_MSGMAP@@XZ" ; aipingui.dll
"?GetMessageMap@CDisplayUCChild@@MEBAPEBUAFX_MSGMAP@@XZ" ; aipingui.dll
"?GetMessageMap@CDisplayUnlockCodeDlg@@MEBAPEBUAFX_MSGMAP@@XZ" ; aipingui.dll
"?GetMessageMap@CInitializePinDlg@@MEBAPEBUAFX_MSGMAP@@XZ" ; aipingui.dll
"?GetMessageMap@CPopupAlert@@MEBAPEBUAFX_MSGMAP@@XZ" ; aipingui.dll
"?GetMessageMap@CResetCardDialog@@MEBAPEBUAFX_MSGMAP@@XZ" ; aipingui.dll
"?GetMessageMap@CResetCardDialogMain@@MEBAPEBUAFX_MSGMAP@@XZ" ; aipingui.dll
"?GetMessageMap@CUnlockCardDlg@@MEBAPEBUAFX_MSGMAP@@XZ" ; aipingui.dll
"?GetMessageMap@CUnlockFailedDlg@@MEBAPEBUAFX_MSGMAP@@XZ" ; aipingui.dll
"?GetMessageMap@CUnlockInitToolDlg@@MEBAPEBUAFX_MSGMAP@@XZ" ; aipingui.dll
"?GetMessageMap@CUnlockSuccessDlg@@MEBAPEBUAFX_MSGMAP@@XZ" ; aipingui.dll
"?GetNbCertExpiryNotificationInfo@ACExpiryNotificationInfo@@QEAAHXZ" ; aipingui.dll
"?GetNbDaysForNotificationDelay@ACExpiryNotificationInfo@@QEAAHXZ" ; aipingui.dll
"?GetPin@CResetCardDialog@@QEAA?AV?$CStringT@DV?$StrTraitMFC_DLL@DV?$ChTraitsCRT@D@ATL@@@@@ATL@@XZ" ; aipingui.dll
"?GetPin@CResetCardDialogMain@@QEAA?AV?$CStringT@DV?$StrTraitMFC_DLL@DV?$ChTraitsCRT@D@ATL@@@@@ATL@@XZ" ; aipingui.dll
"?GetReaderName@ACExpiryNotificationInfo@@QEAA?AV?$CStringT@DV?$StrTraitMFC_DLL@DV?$ChTraitsCRT@D@ATL@@@@@ATL@@XZ" ; aipingui.dll
"?GetRegistryParameters@CPopupAlert@@AEAA_NAEAV?$CStringT@DV?$StrTraitMFC_DLL@DV?$ChTraitsCRT@D@ATL@@@@@ATL@@PEAKH@Z" ; aipingui.dll
"?GetRuntimeClass@ACPoliciesDlg@@UEBAPEAUCRuntimeClass@@XZ" ; aipingui.dll
"?GetRuntimeClass@CBaseDialog@@UEBAPEAUCRuntimeClass@@XZ" ; aipingui.dll
"?GetRuntimeClass@CCMLockedDlg@@UEBAPEAUCRuntimeClass@@XZ" ; aipingui.dll
"?GetRuntimeClass@CCapsLockSensitiveEdit@@UEBAPEAUCRuntimeClass@@XZ" ; aipingui.dll
"?GetRuntimeClass@CChangePINDialog@@UEBAPEAUCRuntimeClass@@XZ" ; aipingui.dll
"?GetRuntimeClass@CDisplayUCChild@@UEBAPEAUCRuntimeClass@@XZ" ; aipingui.dll
"?GetRuntimeClass@CDisplayUnlockCodeDlg@@UEBAPEAUCRuntimeClass@@XZ" ; aipingui.dll
"?GetRuntimeClass@CPopupAlert@@UEBAPEAUCRuntimeClass@@XZ" ; aipingui.dll
"?GetRuntimeClass@CResetCardDialog@@UEBAPEAUCRuntimeClass@@XZ" ; aipingui.dll
"?GetRuntimeClass@CResetCardDialogMain@@UEBAPEAUCRuntimeClass@@XZ" ; aipingui.dll
"?GetRuntimeClass@CUnlockInitToolDlg@@UEBAPEAUCRuntimeClass@@XZ" ; aipingui.dll
"?GetThisClass@ACPoliciesDlg@@SAPEAUCRuntimeClass@@XZ" ; aipingui.dll
"?GetThisClass@CBaseDialog@@SAPEAUCRuntimeClass@@XZ" ; aipingui.dll
"?GetThisClass@CCMLockedDlg@@SAPEAUCRuntimeClass@@XZ" ; aipingui.dll
"?GetThisClass@CCapsLockSensitiveEdit@@SAPEAUCRuntimeClass@@XZ" ; aipingui.dll
"?GetThisClass@CChangePINDialog@@SAPEAUCRuntimeClass@@XZ" ; aipingui.dll
"?GetThisClass@CDisplayUCChild@@SAPEAUCRuntimeClass@@XZ" ; aipingui.dll
"?GetThisClass@CDisplayUnlockCodeDlg@@SAPEAUCRuntimeClass@@XZ" ; aipingui.dll
"?GetThisClass@CPopupAlert@@SAPEAUCRuntimeClass@@XZ" ; aipingui.dll
"?GetThisClass@CResetCardDialog@@SAPEAUCRuntimeClass@@XZ" ; aipingui.dll
"?GetThisClass@CResetCardDialogMain@@SAPEAUCRuntimeClass@@XZ" ; aipingui.dll
"?GetThisClass@CUnlockInitToolDlg@@SAPEAUCRuntimeClass@@XZ" ; aipingui.dll
"?GetThisMessageMap@ACPoliciesDlg@@KAPEBUAFX_MSGMAP@@XZ" ; aipingui.dll
"?GetThisMessageMap@CBaseDialog@@KAPEBUAFX_MSGMAP@@XZ" ; aipingui.dll
"?GetThisMessageMap@CCMLockedDlg@@KAPEBUAFX_MSGMAP@@XZ" ; aipingui.dll
"?GetThisMessageMap@CCapsLockSensitiveEdit@@KAPEBUAFX_MSGMAP@@XZ" ; aipingui.dll
"?GetThisMessageMap@CChangePINDialog@@KAPEBUAFX_MSGMAP@@XZ" ; aipingui.dll
"?GetThisMessageMap@CDisplayUCChild@@KAPEBUAFX_MSGMAP@@XZ" ; aipingui.dll
"?GetThisMessageMap@CDisplayUnlockCodeDlg@@KAPEBUAFX_MSGMAP@@XZ" ; aipingui.dll
"?GetThisMessageMap@CInitializePinDlg@@KAPEBUAFX_MSGMAP@@XZ" ; aipingui.dll
"?GetThisMessageMap@CPopupAlert@@KAPEBUAFX_MSGMAP@@XZ" ; aipingui.dll
"?GetThisMessageMap@CResetCardDialog@@KAPEBUAFX_MSGMAP@@XZ" ; aipingui.dll
"?GetThisMessageMap@CResetCardDialogMain@@KAPEBUAFX_MSGMAP@@XZ" ; aipingui.dll
"?GetThisMessageMap@CUnlockCardDlg@@KAPEBUAFX_MSGMAP@@XZ" ; aipingui.dll
"?GetThisMessageMap@CUnlockFailedDlg@@KAPEBUAFX_MSGMAP@@XZ" ; aipingui.dll
"?GetThisMessageMap@CUnlockInitToolDlg@@KAPEBUAFX_MSGMAP@@XZ" ; aipingui.dll
"?GetThisMessageMap@CUnlockSuccessDlg@@KAPEBUAFX_MSGMAP@@XZ" ; aipingui.dll
"?Hide@CPopupAlert@@QEAAXXZ" ; aipingui.dll
"?HidePinFromMemory@CBaseDialog@@IEAAXAEAV?$CStringT@DV?$StrTraitMFC_DLL@DV?$ChTraitsCRT@D@ATL@@@@@ATL@@@Z" ; aipingui.dll
"?InitWindow@CPopupAlert@@QEAA_NPEAUHWND__@@HK@Z" ; aipingui.dll
"?IsAlphaPinWeak@ACPoliciesDlg@@AEAA_NAEAV?$CStringT@DV?$StrTraitMFC_DLL@DV?$ChTraitsCRT@D@ATL@@@@@ATL@@@Z" ; aipingui.dll
"?IsNeverDisplayChecked@CDisplayUCChild@@QEAAHXZ" ; aipingui.dll
"?IsPinWeak@ACPoliciesDlg@@AEAA_NAEAV?$CStringT@DV?$StrTraitMFC_DLL@DV?$ChTraitsCRT@D@ATL@@@@@ATL@@@Z" ; aipingui.dll
"?IsPointOnArea@CPopupAlert@@AEAA_NPEAVCPoint@@PEAVCRect@@@Z" ; aipingui.dll
"?LocCreate@ACPoliciesDlg@@QEAAHPEAVCWnd@@@Z" ; aipingui.dll
"?LocCreate@CChangePINDialog@@QEAAHPEAVCWnd@@@Z" ; aipingui.dll
"?LocCreate@CDisplayUCChild@@QEAAHPEAVCWnd@@@Z" ; aipingui.dll
"?LocCreate@CResetCardDialog@@QEAAHPEAVCWnd@@@Z" ; aipingui.dll
"?MoveDlgItem@CResetCardDialogMain@@AEAAXHHH@Z" ; aipingui.dll
"?MoveUpWindow@CInitializePinDlg@@IEAAXIH@Z" ; aipingui.dll
"?MoveUpWindow@CUnlockCardDlg@@IEAAXIH@Z" ; aipingui.dll
"?MustDisplayCardExpiry@ACExpiryNotificationInfo@@QEAAHAEAVCTime@ATL@@@Z" ; aipingui.dll
"?OnBnClickedStaticNp@CUnlockCardDlg@@QEAAXXZ" ; aipingui.dll
"?OnCancel@CUnlockCardDlg@@MEAAXXZ" ; aipingui.dll
"?OnCardEvent@CPopupAlert@@QEAA_J_K_J@Z" ; aipingui.dll
"?OnCardEvent@CResetCardDialogMain@@IEAA_J_K_J@Z" ; aipingui.dll
"?OnCardEvent@CUnlockCardDlg@@IEAA_J_K_J@Z" ; aipingui.dll
"?OnChangeEdit@CUnlockCardDlg@@IEAAXXZ" ; aipingui.dll
"?OnChangeEditNewPin@CInitializePinDlg@@IEAAXXZ" ; aipingui.dll
"?OnCheckOkButton@CResetCardDialog@@IEAAXXZ" ; aipingui.dll
"?OnContextualHelp@CCMLockedDlg@@MEAAXXZ" ; aipingui.dll
"?OnContextualHelp@CUnlockCardDlg@@MEAAXXZ" ; aipingui.dll
"?OnCreate@CPopupAlert@@QEAAHPEAUtagCREATESTRUCTA@@@Z" ; aipingui.dll
"?OnCtlColor@CBaseDialog@@QEAAPEAUHBRUSH__@@PEAVCDC@@PEAVCWnd@@I@Z" ; aipingui.dll
"?OnDestroy@CChangePINDialog@@QEAAXXZ" ; aipingui.dll
"?OnDestroy@CDisplayUnlockCodeDlg@@IEAAXXZ" ; aipingui.dll
"?OnDestroy@CPopupAlert@@QEAAXXZ" ; aipingui.dll
"?OnDestroy@CResetCardDialogMain@@IEAAXXZ" ; aipingui.dll
"?OnDestroy@CUnlockCardDlg@@IEAAXXZ" ; aipingui.dll
"?OnDisplayPINPolicies@CInitializePinDlg@@IEAA_J_K_J@Z" ; aipingui.dll
"?OnDisplayPINPolicies@CUnlockCardDlg@@IEAA_J_K_J@Z" ; aipingui.dll
"?OnEnChangeEditPin@CChangePINDialog@@QEAAXXZ" ; aipingui.dll
"?OnEnChangeEditPinConfirm@CChangePINDialog@@QEAAXXZ" ; aipingui.dll
"?OnEnChangeEditPinNew@CChangePINDialog@@QEAAXXZ" ; aipingui.dll
"?OnEnSetfocusEditPin@CChangePINDialog@@QEAAXXZ" ; aipingui.dll
"?OnEnSetfocusEditPinConfirm@CChangePINDialog@@QEAAXXZ" ; aipingui.dll
"?OnEnSetfocusEditPinNew@CChangePINDialog@@QEAAXXZ" ; aipingui.dll
"?OnEraseBkgnd@CPopupAlert@@QEAAHPEAVCDC@@@Z" ; aipingui.dll
"?OnInitDialog@ACPoliciesDlg@@MEAAHXZ" ; aipingui.dll
"?OnInitDialog@CBaseDialog@@MEAAHXZ" ; aipingui.dll
"?OnInitDialog@CCMLockedDlg@@UEAAHXZ" ; aipingui.dll
"?OnInitDialog@CChangePINDialog@@MEAAHXZ" ; aipingui.dll
"?OnInitDialog@CDisplayUnlockCodeDlg@@MEAAHXZ" ; aipingui.dll
"?OnInitDialog@CInitializePinDlg@@MEAAHXZ" ; aipingui.dll
"?OnInitDialog@CResetCardDialog@@MEAAHXZ" ; aipingui.dll
"?OnInitDialog@CResetCardDialogMain@@MEAAHXZ" ; aipingui.dll
"?OnInitDialog@CUnlockCardDlg@@MEAAHXZ" ; aipingui.dll
"?OnInitDialog@CUnlockFailedDlg@@MEAAHXZ" ; aipingui.dll
"?OnInitDialog@CUnlockInitToolDlg@@UEAAHXZ" ; aipingui.dll
"?OnInitDialog@CUnlockSuccessDlg@@MEAAHXZ" ; aipingui.dll
"?OnKeyUp@CCapsLockSensitiveEdit@@QEAAXIII@Z" ; aipingui.dll
"?OnKillFocus@CCapsLockSensitiveEdit@@QEAAXPEAVCWnd@@@Z" ; aipingui.dll
"?OnMove@CChangePINDialog@@QEAAXHH@Z" ; aipingui.dll
"?OnMove@CInitializePinDlg@@QEAAXHH@Z" ; aipingui.dll
"?OnMove@CResetCardDialog@@QEAAXHH@Z" ; aipingui.dll
"?OnMove@CResetCardDialogMain@@QEAAXHH@Z" ; aipingui.dll
"?OnMove@CUnlockCardDlg@@QEAAXHH@Z" ; aipingui.dll
"?OnNcHitTest@CPopupAlert@@QEAA_JVCPoint@@@Z" ; aipingui.dll
"?OnNotify@CCapsLockSensitiveEdit@@MEAAH_K_JPEA_J@Z" ; aipingui.dll
"?OnOK@CDisplayUnlockCodeDlg@@MEAAXXZ" ; aipingui.dll
"?OnOK@CInitializePinDlg@@MEAAXXZ" ; aipingui.dll
"?OnOK@CUnlockCardDlg@@MEAAXXZ" ; aipingui.dll
"?OnOtpOk@CPopupAlert@@QEAA_J_K_J@Z" ; aipingui.dll
"?OnPopupAlertClicked@CPopupAlert@@QEAA_J_K_J@Z" ; aipingui.dll
"?OnPopupAlertHelpClicked@CPopupAlert@@QEAA_J_K_J@Z" ; aipingui.dll
"?OnRadioClicked@CResetCardDialog@@IEAAXXZ" ; aipingui.dll
"?OnSetFocus@CCapsLockSensitiveEdit@@QEAAXPEAVCWnd@@@Z" ; aipingui.dll
"?OnSysColorChange@CBaseDialog@@QEAAXXZ" ; aipingui.dll
"?OnTimer@CPopupAlert@@QEAAX_K@Z" ; aipingui.dll
"?PrepareBackgroundBitmap@CPopupAlert@@AEAAHI_N0@Z" ; aipingui.dll
"?PutPoliciesInBox@ACPoliciesDlg@@AEAAXXZ" ; aipingui.dll
"?ResetToolTip@CCapsLockSensitiveEdit@@QEAAXXZ" ; aipingui.dll
"?ResetToolTip@CChangePINDialog@@QEAAXXZ" ; aipingui.dll
"?ResetToolTip@CInitializePinDlg@@QEAAXXZ" ; aipingui.dll
"?ResetToolTip@CResetCardDialog@@QEAAXXZ" ; aipingui.dll
"?ResizeDlg@CBaseDialog@@QEAAXHHH@Z" ; aipingui.dll
"?ResizeDlg@CResetCardDialogMain@@AEAAXHH@Z" ; aipingui.dll
"?SetAlphaPIN@ACPoliciesDlg@@AEAAX_N0@Z" ; aipingui.dll
"?SetAnimStatusToWaiting@CPopupAlert@@AEAAXXZ" ; aipingui.dll
"?SetChallenge@CResetCardDialog@@QEAAXV?$CStringT@DV?$StrTraitMFC_DLL@DV?$ChTraitsCRT@D@ATL@@@@@ATL@@@Z" ; aipingui.dll
"?SetConfirmPIN@ACPoliciesDlg@@AEAAX_N@Z" ; aipingui.dll
"?SetMaxPINLen@ACPoliciesDlg@@AEAAXH_N0@Z" ; aipingui.dll
"?SetMessage@CPopupAlert@@QEAAXPEBD@Z" ; aipingui.dll
"?SetMinPINLen@ACPoliciesDlg@@AEAAXH_N0@Z" ; aipingui.dll
"?SetMode@CCapsLockSensitiveEdit@@QEAAX_N@Z" ; aipingui.dll
"?SetMustDisplayCardExpiry@ACExpiryNotificationInfo@@QEAAXH_J@Z" ; aipingui.dll
"?SetNbDaysForNotificationDelay@ACExpiryNotificationInfo@@QEAAXH@Z" ; aipingui.dll
"?SetPolicyIcon@ACPoliciesDlg@@AEAAXPEAVCWnd@@PEAUHICON__@@@Z" ; aipingui.dll
"?SetPreventSamePIN@ACPoliciesDlg@@AEAAX_N0@Z" ; aipingui.dll
"?SetReader@CPopupAlert@@QEAAXPEBD@Z" ; aipingui.dll
"?SetSkin@CPopupAlert@@QEAAHI_N0FFF@Z" ; aipingui.dll
"?SetSkin@CPopupAlert@@QEAAHPEBDFFF@Z" ; aipingui.dll
"?SetTextColor@CPopupAlert@@QEAAXKK@Z" ; aipingui.dll
"?SetTextFont@CPopupAlert@@QEAAXPEBDHHH@Z" ; aipingui.dll
"?SetTextRect@CPopupAlert@@QEAAXUtagRECT@@@Z" ; aipingui.dll
"?SetThreadRoutine@CPopupAlert@@QEAAXP6AKPEAX@Z@Z" ; aipingui.dll
"?SetWeakPIN@ACPoliciesDlg@@AEAAX_N0@Z" ; aipingui.dll
"?Show@CPopupAlert@@QEAAXXZ" ; aipingui.dll
"?StopDetectingRemoveEvent@CResetCardDialogMain@@IEAAXXZ" ; aipingui.dll
"?VerifyAndUpdateAllPolicies@CChangePINDialog@@QEAA_NV?$CStringT@DV?$StrTraitMFC_DLL@DV?$ChTraitsCRT@D@ATL@@@@@ATL@@@Z" ; aipingui.dll
"?VerifyAndUpdatePolicies@ACPoliciesDlg@@QEAA_NV?$CStringT@DV?$StrTraitMFC_DLL@DV?$ChTraitsCRT@D@ATL@@@@@ATL@@000@Z" ; aipingui.dll
"?_GetBaseClass@ACPoliciesDlg@@KAPEAUCRuntimeClass@@XZ" ; aipingui.dll
"?_GetBaseClass@CBaseDialog@@KAPEAUCRuntimeClass@@XZ" ; aipingui.dll
"?_GetBaseClass@CCMLockedDlg@@KAPEAUCRuntimeClass@@XZ" ; aipingui.dll
"?_GetBaseClass@CCapsLockSensitiveEdit@@KAPEAUCRuntimeClass@@XZ" ; aipingui.dll
"?_GetBaseClass@CChangePINDialog@@KAPEAUCRuntimeClass@@XZ" ; aipingui.dll
"?_GetBaseClass@CDisplayUCChild@@KAPEAUCRuntimeClass@@XZ" ; aipingui.dll
"?_GetBaseClass@CDisplayUnlockCodeDlg@@KAPEAUCRuntimeClass@@XZ" ; aipingui.dll
"?_GetBaseClass@CPopupAlert@@KAPEAUCRuntimeClass@@XZ" ; aipingui.dll
"?_GetBaseClass@CResetCardDialog@@KAPEAUCRuntimeClass@@XZ" ; aipingui.dll
"?_GetBaseClass@CResetCardDialogMain@@KAPEAUCRuntimeClass@@XZ" ; aipingui.dll
"?_GetBaseClass@CUnlockInitToolDlg@@KAPEAUCRuntimeClass@@XZ" ; aipingui.dll
"?classACPoliciesDlg@ACPoliciesDlg@@2UCRuntimeClass@@B" ; aipingui.dll
"?classCBaseDialog@CBaseDialog@@2UCRuntimeClass@@B" ; aipingui.dll
"?classCCMLockedDlg@CCMLockedDlg@@2UCRuntimeClass@@B" ; aipingui.dll
"?classCCapsLockSensitiveEdit@CCapsLockSensitiveEdit@@2UCRuntimeClass@@B" ; aipingui.dll
"?classCChangePINDialog@CChangePINDialog@@2UCRuntimeClass@@B" ; aipingui.dll
"?classCDisplayUCChild@CDisplayUCChild@@2UCRuntimeClass@@B" ; aipingui.dll
"?classCDisplayUnlockCodeDlg@CDisplayUnlockCodeDlg@@2UCRuntimeClass@@B" ; aipingui.dll
"?classCPopupAlert@CPopupAlert@@2UCRuntimeClass@@B" ; aipingui.dll
"?classCResetCardDialog@CResetCardDialog@@2UCRuntimeClass@@B" ; aipingui.dll
"?classCResetCardDialogMain@CResetCardDialogMain@@2UCRuntimeClass@@B" ; aipingui.dll
"?classCUnlockInitToolDlg@CUnlockInitToolDlg@@2UCRuntimeClass@@B" ; aipingui.dll
"DisplayCardExpiryNotification" ; aipingui.dll
"DisplayLastPINTry" ; aipingui.dll
"DisplayUnlockCode" ; aipingui.dll
"FreeGetPinBuffer" ; aipingui.dll
"GetChangePINInfoFromUser" ; aipingui.dll
"GetErrorString" ; aipingui.dll
"GetPINFromUser" ; aipingui.dll
"InitGUIDll" ; aipingui.dll
"SetPinPromptString" ; aipingui.dll
"ShowAbout" ; aipingui.dll
