LIBRARY "cmutil.dll"
EXPORTS
"??0CIniA@@QEAA@PEAUHINSTANCE__@@PEBD111@Z" ; cmutil.dll
"??0CIniW@@QEAA@PEAUHINSTANCE__@@PEBG111@Z" ; cmutil.dll
"??0CRandom@@QEAA@I@Z" ; cmutil.dll
"??0CRandom@@QEAA@XZ" ; cmutil.dll
"??0CmLogFile@@QEAA@XZ" ; cmutil.dll
"??1CIniA@@QEAA@XZ" ; cmutil.dll
"??1CIniW@@QEAA@XZ" ; cmutil.dll
"??1CmLogFile@@QEAA@XZ" ; cmutil.dll
"??4CIniA@@QEAAAEAV0@AEBV0@@Z" ; cmutil.dll
"??4CIniW@@QEAAAEAV0@AEBV0@@Z" ; cmutil.dll
"??4CRandom@@QEAAAEAV0@AEBV0@@Z" ; cmutil.dll
"??4CmLogFile@@QEAAAEAV0@AEBV0@@Z" ; cmutil.dll
"??_FCIniA@@QEAAXXZ" ; cmutil.dll
"??_FCIniW@@QEAAXXZ" ; cmutil.dll
"?Banner@CmLogFile@@QEAAXXZ" ; cmutil.dll
"?CIniA_DeleteEntryFromReg@CIniA@@IEBAHPEAUHKEY__@@PEBD1@Z" ; cmutil.dll
"?CIniA_GetEntryFromReg@CIniA@@IEBAPEAEPEAUHKEY__@@PEBD1KK@Z" ; cmutil.dll
"?CIniA_WriteEntryToReg@CIniA@@IEBAHPEAUHKEY__@@PEBD1PEBEKK@Z" ; cmutil.dll
"?CIniW_DeleteEntryFromReg@CIniW@@IEBAHPEAUHKEY__@@PEBG1@Z" ; cmutil.dll
"?CIniW_GetEntryFromReg@CIniW@@IEBAPEAEPEAUHKEY__@@PEBG1KK@Z" ; cmutil.dll
"?CIniW_WriteEntryToReg@CIniW@@IEBAHPEAUHKEY__@@PEBG1PEBEKK@Z" ; cmutil.dll
"?CIni_SetFile@CIniA@@KAXPEAPEADPEBD@Z" ; cmutil.dll
"?CIni_SetFile@CIniW@@KAXPEAPEAGPEBG@Z" ; cmutil.dll
"?Clear@CIniA@@QEAAXXZ" ; cmutil.dll
"?Clear@CIniW@@QEAAXXZ" ; cmutil.dll
"?Clear@CmLogFile@@QEAAXH@Z" ; cmutil.dll
"?CloseFile@CmLogFile@@AEAAJXZ" ; cmutil.dll
"?DeInit@CmLogFile@@QEAAJXZ" ; cmutil.dll
"?FormatWrite@CmLogFile@@AEAAXW4_CMLOG_ITEM@@PEAG@Z" ; cmutil.dll
"?GPPB@CIniA@@QEBAHPEBD0H@Z" ; cmutil.dll
"?GPPB@CIniW@@QEBAHPEBG0H@Z" ; cmutil.dll
"?GPPI@CIniA@@QEBAKPEBD0K@Z" ; cmutil.dll
"?GPPI@CIniW@@QEBAKPEBG0K@Z" ; cmutil.dll
"?GPPS@CIniA@@QEBAPEADPEBD00@Z" ; cmutil.dll
"?GPPS@CIniW@@QEBAPEAGPEBG00@Z" ; cmutil.dll
"?Generate@CRandom@@QEAAHXZ" ; cmutil.dll
"?GetFile@CIniA@@QEBAPEBDXZ" ; cmutil.dll
"?GetFile@CIniW@@QEBAPEBGXZ" ; cmutil.dll
"?GetHInst@CIniA@@QEBAPEAUHINSTANCE__@@XZ" ; cmutil.dll
"?GetHInst@CIniW@@QEBAPEAUHINSTANCE__@@XZ" ; cmutil.dll
"?GetLogFilePath@CmLogFile@@QEAAPEBGXZ" ; cmutil.dll
"?GetPrimaryFile@CIniA@@QEBAPEBDXZ" ; cmutil.dll
"?GetPrimaryFile@CIniW@@QEBAPEBGXZ" ; cmutil.dll
"?GetPrimaryRegPath@CIniA@@QEBAPEBDXZ" ; cmutil.dll
"?GetPrimaryRegPath@CIniW@@QEBAPEBGXZ" ; cmutil.dll
"?GetRegPath@CIniA@@QEBAPEBDXZ" ; cmutil.dll
"?GetRegPath@CIniW@@QEBAPEBGXZ" ; cmutil.dll
"?GetSection@CIniA@@QEBAPEBDXZ" ; cmutil.dll
"?GetSection@CIniW@@QEBAPEBGXZ" ; cmutil.dll
"?Init@CRandom@@QEAAXK@Z" ; cmutil.dll
"?Init@CmLogFile@@QEAAJPEAUHINSTANCE__@@HPEBD@Z" ; cmutil.dll
"?Init@CmLogFile@@QEAAJPEAUHINSTANCE__@@HPEBG@Z" ; cmutil.dll
"?IsEnabled@CmLogFile@@QEAAHXZ" ; cmutil.dll
"?LoadEntry@CIniA@@IEBAPEADPEBD@Z" ; cmutil.dll
"?LoadEntry@CIniW@@IEBAPEAGPEBG@Z" ; cmutil.dll
"?LoadSection@CIniA@@QEBAPEADPEBD@Z" ; cmutil.dll
"?LoadSection@CIniW@@QEBAPEAGPEBG@Z" ; cmutil.dll
"?Log@CmLogFile@@QEAAXW4_CMLOG_ITEM@@ZZ" ; cmutil.dll
"?OpenFile@CmLogFile@@AEAAJXZ" ; cmutil.dll
"?SetEntry@CIniA@@QEAAXPEBD@Z" ; cmutil.dll
"?SetEntry@CIniW@@QEAAXPEBG@Z" ; cmutil.dll
"?SetEntryFromIdx@CIniA@@QEAAXK@Z" ; cmutil.dll
"?SetEntryFromIdx@CIniW@@QEAAXK@Z" ; cmutil.dll
"?SetFile@CIniA@@QEAAXPEBD@Z" ; cmutil.dll
"?SetFile@CIniW@@QEAAXPEBG@Z" ; cmutil.dll
"?SetHInst@CIniA@@QEAAXPEAUHINSTANCE__@@@Z" ; cmutil.dll
"?SetHInst@CIniW@@QEAAXPEAUHINSTANCE__@@@Z" ; cmutil.dll
"?SetICSDataPath@CIniA@@QEAAXPEBD@Z" ; cmutil.dll
"?SetICSDataPath@CIniW@@QEAAXPEBG@Z" ; cmutil.dll
"?SetParams@CmLogFile@@QEAAJHKPEBD@Z" ; cmutil.dll
"?SetParams@CmLogFile@@QEAAJHKPEBG@Z" ; cmutil.dll
"?SetPrimaryFile@CIniA@@QEAAXPEBD@Z" ; cmutil.dll
"?SetPrimaryFile@CIniW@@QEAAXPEBG@Z" ; cmutil.dll
"?SetPrimaryRegPath@CIniA@@QEAAXPEBD@Z" ; cmutil.dll
"?SetPrimaryRegPath@CIniW@@QEAAXPEBG@Z" ; cmutil.dll
"?SetReadICSData@CIniA@@QEAAXH@Z" ; cmutil.dll
"?SetReadICSData@CIniW@@QEAAXH@Z" ; cmutil.dll
"?SetRegPath@CIniA@@QEAAXPEBD@Z" ; cmutil.dll
"?SetRegPath@CIniW@@QEAAXPEBG@Z" ; cmutil.dll
"?SetSection@CIniA@@QEAAXPEBD@Z" ; cmutil.dll
"?SetSection@CIniW@@QEAAXPEBG@Z" ; cmutil.dll
"?SetWriteICSData@CIniA@@QEAAXH@Z" ; cmutil.dll
"?SetWriteICSData@CIniW@@QEAAXH@Z" ; cmutil.dll
"?Start@CmLogFile@@QEAAJH@Z" ; cmutil.dll
"?Stop@CmLogFile@@QEAAJXZ" ; cmutil.dll
"?WPPB@CIniA@@QEAAXPEBD0H@Z" ; cmutil.dll
"?WPPB@CIniW@@QEAAXPEBG0H@Z" ; cmutil.dll
"?WPPI@CIniA@@QEAAXPEBD0K@Z" ; cmutil.dll
"?WPPI@CIniW@@QEAAXPEBG0K@Z" ; cmutil.dll
"?WPPS@CIniA@@QEAAXPEBD00@Z" ; cmutil.dll
"?WPPS@CIniW@@QEAAXPEBG00@Z" ; cmutil.dll
"?Write@CmLogFile@@AEAAJPEAG@Z" ; cmutil.dll
"CmAtolA" ; cmutil.dll
"CmAtolW" ; cmutil.dll
"CmBuildFullPathFromRelativeA" ; cmutil.dll
"CmBuildFullPathFromRelativeW" ; cmutil.dll
"CmCompareStringA" ; cmutil.dll
"CmCompareStringW" ; cmutil.dll
"CmConvertRelativePathA" ; cmutil.dll
"CmConvertRelativePathW" ; cmutil.dll
"CmEndOfStrA" ; cmutil.dll
"CmEndOfStrW" ; cmutil.dll
"CmFmtMsgA" ; cmutil.dll
"CmFmtMsgW" ; cmutil.dll
"CmFree" ; cmutil.dll
"CmIsDigitA" ; cmutil.dll
"CmIsDigitW" ; cmutil.dll
"CmIsSpaceA" ; cmutil.dll
"CmIsSpaceW" ; cmutil.dll
"CmLoadIconA" ; cmutil.dll
"CmLoadIconW" ; cmutil.dll
"CmLoadImage" ; cmutil.dll
"CmLoadImageA" ; cmutil.dll
"CmLoadImageW" ; cmutil.dll
"CmLoadSmallIconA" ; cmutil.dll
"CmLoadSmallIconW" ; cmutil.dll
"CmLoadStringA" ; cmutil.dll
"CmLoadStringW" ; cmutil.dll
"CmMalloc" ; cmutil.dll
"CmParsePathA" ; cmutil.dll
"CmParsePathW" ; cmutil.dll
"CmRealloc" ; cmutil.dll
"CmStrCatAllocA" ; cmutil.dll
"CmStrCatAllocW" ; cmutil.dll
"CmStrCpyAllocA" ; cmutil.dll
"CmStrCpyAllocW" ; cmutil.dll
"CmStrStrA" ; cmutil.dll
"CmStrStrW" ; cmutil.dll
"CmStrTrimA" ; cmutil.dll
"CmStrTrimW" ; cmutil.dll
"CmStrchrA" ; cmutil.dll
"CmStrchrW" ; cmutil.dll
"CmStripFileNameA" ; cmutil.dll
"CmStripFileNameW" ; cmutil.dll
"CmStripPathAndExtA" ; cmutil.dll
"CmStripPathAndExtW" ; cmutil.dll
"CmStrrchrA" ; cmutil.dll
"CmStrrchrW" ; cmutil.dll
"CmStrtokA" ; cmutil.dll
"CmStrtokW" ; cmutil.dll
"CmWinHelp" ; cmutil.dll
"GetOSBuildNumber" ; cmutil.dll
"GetOSMajorVersion" ; cmutil.dll
"GetOSVersion" ; cmutil.dll
"IsFarEastNonOSR2Win95" ; cmutil.dll
"IsLogonAsSystem" ; cmutil.dll
"MakeBold" ; cmutil.dll
"ReleaseBold" ; cmutil.dll
"SzToWz" ; cmutil.dll
"SzToWzWithAlloc" ; cmutil.dll
"UpdateFont" ; cmutil.dll
"WzToSz" ; cmutil.dll
"WzToSzWithAlloc" ; cmutil.dll
