LIBRARY "danim.dll"
EXPORTS
"?COMToCRBvr@@YAPEAVCRBvr@@PEAUIUnknown@@@Z" ; danim.dll
"?CRAbs@@YAPEAVCRNumber@@PEAV1@@Z" ; danim.dll
"?CRAcos@@YAPEAVCRNumber@@PEAV1@@Z" ; danim.dll
"?CRAcquireGCLock@@YA_NXZ" ; danim.dll
"?CRAdd@@YAPEAVCRNumber@@PEAV1@0@Z" ; danim.dll
"?CRAdd@@YAPEAVCRPoint2@@PEAV1@PEAVCRVector2@@@Z" ; danim.dll
"?CRAdd@@YAPEAVCRPoint3@@PEAV1@PEAVCRVector3@@@Z" ; danim.dll
"?CRAdd@@YAPEAVCRVector2@@PEAV1@0@Z" ; danim.dll
"?CRAdd@@YAPEAVCRVector3@@PEAV1@0@Z" ; danim.dll
"?CRAddBvrToRun@@YA_NPEAVCRView@@PEAVCRBvr@@_NPEAJ@Z" ; danim.dll
"?CRAddElement@@YAJPEAVCRArray@@PEAVCRBvr@@K@Z" ; danim.dll
"?CRAddPickData@@YAPEAVCRGeometry@@PEAV1@PEAUIUnknown@@_N@Z" ; danim.dll
"?CRAddPickData@@YAPEAVCRImage@@PEAV1@PEAUIUnknown@@_N@Z" ; danim.dll
"?CRAddRefGC@@YA_NPEAX@Z" ; danim.dll
"?CRAddSite@@YA_NPEAVCRSite@@@Z" ; danim.dll
"?CRAlways@@YAPEAVCREvent@@XZ" ; danim.dll
"?CRAmbientColor@@YAPEAVCRGeometry@@PEAV1@PEAVCRColor@@@Z" ; danim.dll
"?CRAmbientLight@@YAPEAVCRGeometry@@XZ" ; danim.dll
"?CRAnd@@YAPEAVCRBoolean@@PEAV1@0@Z" ; danim.dll
"?CRAndEvent@@YAPEAVCREvent@@PEAV1@0@Z" ; danim.dll
"?CRAntiAliasing@@YAPEAVCRFontStyle@@PEAV1@N@Z" ; danim.dll
"?CRAntiAliasing@@YAPEAVCRLineStyle@@PEAV1@N@Z" ; danim.dll
"?CRAppTriggeredEvent@@YAPEAVCREvent@@XZ" ; danim.dll
"?CRApplyDXTransform@@YAPEAVCRDXTransformResult@@PEAUIUnknown@@JPEAPEAVCRBvr@@PEAV3@@Z" ; danim.dll
"?CRAqua@@YAPEAVCRColor@@XZ" ; danim.dll
"?CRArc@@YAPEAVCRPath2@@NNNN@Z" ; danim.dll
"?CRArcRadians@@YAPEAVCRPath2@@NNNN@Z" ; danim.dll
"?CRArcRadians@@YAPEAVCRPath2@@PEAVCRNumber@@000@Z" ; danim.dll
"?CRAsin@@YAPEAVCRNumber@@PEAV1@@Z" ; danim.dll
"?CRAtan2@@YAPEAVCRNumber@@PEAV1@0@Z" ; danim.dll
"?CRAtan@@YAPEAVCRNumber@@PEAV1@@Z" ; danim.dll
"?CRAttachData@@YAPEAVCREvent@@PEAV1@PEAVCRBvr@@@Z" ; danim.dll
"?CRBSpline@@YAPEAVCRBvr@@HJQEAPEAVCRNumber@@JQEAPEAV1@J0PEAV2@W4CR_BVR_TYPEID@@@Z" ; danim.dll
"?CRBillboard@@YAPEAVCRGeometry@@PEAV1@PEAVCRVector3@@@Z" ; danim.dll
"?CRBlack@@YAPEAVCRColor@@XZ" ; danim.dll
"?CRBlendTextureDiffuse@@YAPEAVCRGeometry@@PEAV1@PEAVCRBoolean@@@Z" ; danim.dll
"?CRBlue@@YAPEAVCRColor@@XZ" ; danim.dll
"?CRBold@@YAPEAVCRFontStyle@@PEAV1@@Z" ; danim.dll
"?CRBoundingBox@@YAPEAVCRBbox2@@PEAVCRImage@@@Z" ; danim.dll
"?CRBoundingBox@@YAPEAVCRBbox2@@PEAVCRPath2@@PEAVCRLineStyle@@@Z" ; danim.dll
"?CRBoundingBox@@YAPEAVCRBbox3@@PEAVCRGeometry@@@Z" ; danim.dll
"?CRBvrApplyPreference@@YAPEAVCRBvr@@PEAV1@PEAGUtagVARIANT@@@Z" ; danim.dll
"?CRBvrToCOM@@YA_NPEAVCRBvr@@AEBU_GUID@@PEAPEAX@Z" ; danim.dll
"?CRCeiling@@YAPEAVCRNumber@@PEAV1@@Z" ; danim.dll
"?CRClearLastError@@YAXXZ" ; danim.dll
"?CRClearMatte@@YAPEAVCRMatte@@XZ" ; danim.dll
"?CRClip@@YAPEAVCRImage@@PEAV1@PEAVCRMatte@@@Z" ; danim.dll
"?CRClipPolygonImage@@YAPEAVCRImage@@PEAV1@PEAVCRArray@@@Z" ; danim.dll
"?CRClose@@YAPEAVCRPath2@@PEAV1@@Z" ; danim.dll
"?CRColorHsl@@YAPEAVCRColor@@NNN@Z" ; danim.dll
"?CRColorHsl@@YAPEAVCRColor@@PEAVCRNumber@@00@Z" ; danim.dll
"?CRColorKey@@YAPEAVCRImage@@PEAV1@PEAVCRColor@@@Z" ; danim.dll
"?CRColorRgb255@@YAPEAVCRColor@@FFF@Z" ; danim.dll
"?CRColorRgb@@YAPEAVCRColor@@NNN@Z" ; danim.dll
"?CRColorRgb@@YAPEAVCRColor@@PEAVCRNumber@@00@Z" ; danim.dll
"?CRCompose2@@YAPEAVCRTransform2@@PEAV1@0@Z" ; danim.dll
"?CRCompose2@@YAPEAVCRTransform2@@PEAVCRArray@@@Z" ; danim.dll
"?CRCompose3@@YAPEAVCRTransform3@@PEAV1@0@Z" ; danim.dll
"?CRCompose3@@YAPEAVCRTransform3@@PEAVCRArray@@@Z" ; danim.dll
"?CRConcat@@YAPEAVCRPath2@@PEAV1@0@Z" ; danim.dll
"?CRConcat@@YAPEAVCRPath2@@PEAVCRArray@@@Z" ; danim.dll
"?CRConcatString@@YAPEAVCRString@@PEAV1@0@Z" ; danim.dll
"?CRCond@@YAPEAVCRBvr@@PEAVCRBoolean@@PEAV1@1@Z" ; danim.dll
"?CRConnect@@YA_NPEAUHINSTANCE__@@@Z" ; danim.dll
"?CRCos@@YAPEAVCRNumber@@PEAV1@@Z" ; danim.dll
"?CRCreateArray@@YAPEAVCRArray@@JQEANW4CR_BVR_TYPEID@@@Z" ; danim.dll
"?CRCreateArray@@YAPEAVCRArray@@JQEAPEAVCRBvr@@K@Z" ; danim.dll
"?CRCreateBoolean@@YAPEAVCRBoolean@@_N@Z" ; danim.dll
"?CRCreateNumber@@YAPEAVCRNumber@@N@Z" ; danim.dll
"?CRCreatePoint2@@YAPEAVCRPoint2@@NN@Z" ; danim.dll
"?CRCreatePoint2@@YAPEAVCRPoint2@@PEAVCRNumber@@0@Z" ; danim.dll
"?CRCreatePoint3@@YAPEAVCRPoint3@@NNN@Z" ; danim.dll
"?CRCreatePoint3@@YAPEAVCRPoint3@@PEAVCRNumber@@00@Z" ; danim.dll
"?CRCreateString@@YAPEAVCRString@@PEAG@Z" ; danim.dll
"?CRCreateTuple@@YAPEAVCRTuple@@JQEAPEAVCRBvr@@@Z" ; danim.dll
"?CRCreateUserData@@YAPEAVCRUserData@@PEAUIUnknown@@@Z" ; danim.dll
"?CRCreateVector2@@YAPEAVCRVector2@@NN@Z" ; danim.dll
"?CRCreateVector2@@YAPEAVCRVector2@@PEAVCRNumber@@0@Z" ; danim.dll
"?CRCreateVector3@@YAPEAVCRVector3@@NNN@Z" ; danim.dll
"?CRCreateVector3@@YAPEAVCRVector3@@PEAVCRNumber@@00@Z" ; danim.dll
"?CRCreateView@@YAPEAVCRView@@XZ" ; danim.dll
"?CRCrop@@YAPEAVCRImage@@PEAV1@PEAVCRPoint2@@1@Z" ; danim.dll
"?CRCross@@YAPEAVCRVector3@@PEAV1@0@Z" ; danim.dll
"?CRCubicBSplinePath@@YAPEAVCRPath2@@PEAVCRArray@@0@Z" ; danim.dll
"?CRCyan@@YAPEAVCRColor@@XZ" ; danim.dll
"?CRD3DRMTexture@@YAPEAVCRGeometry@@PEAV1@PEAUIUnknown@@@Z" ; danim.dll
"?CRDash@@YAPEAVCRLineStyle@@PEAV1@PEAVCRDashStyle@@@Z" ; danim.dll
"?CRDashEx@@YAPEAVCRLineStyle@@PEAV1@K@Z" ; danim.dll
"?CRDashStyleDashed@@YAPEAVCRDashStyle@@XZ" ; danim.dll
"?CRDashStyleSolid@@YAPEAVCRDashStyle@@XZ" ; danim.dll
"?CRDefaultFont@@YAPEAVCRFontStyle@@XZ" ; danim.dll
"?CRDefaultLineStyle@@YAPEAVCRLineStyle@@XZ" ; danim.dll
"?CRDefaultMicrophone@@YAPEAVCRMicrophone@@XZ" ; danim.dll
"?CRDepth@@YAPEAVCRCamera@@PEAV1@N@Z" ; danim.dll
"?CRDepth@@YAPEAVCRCamera@@PEAV1@PEAVCRNumber@@@Z" ; danim.dll
"?CRDepthResolution@@YAPEAVCRCamera@@PEAV1@N@Z" ; danim.dll
"?CRDepthResolution@@YAPEAVCRCamera@@PEAV1@PEAVCRNumber@@@Z" ; danim.dll
"?CRDerivative@@YAPEAVCRNumber@@PEAV1@@Z" ; danim.dll
"?CRDerivative@@YAPEAVCRVector2@@PEAV1@@Z" ; danim.dll
"?CRDerivative@@YAPEAVCRVector2@@PEAVCRPoint2@@@Z" ; danim.dll
"?CRDerivative@@YAPEAVCRVector3@@PEAV1@@Z" ; danim.dll
"?CRDerivative@@YAPEAVCRVector3@@PEAVCRPoint3@@@Z" ; danim.dll
"?CRDestroyView@@YAXPEAVCRView@@@Z" ; danim.dll
"?CRDetail@@YAPEAVCRLineStyle@@PEAV1@@Z" ; danim.dll
"?CRDetectableEmptyImage@@YAPEAVCRImage@@XZ" ; danim.dll
"?CRDifferenceMatte@@YAPEAVCRMatte@@PEAV1@0@Z" ; danim.dll
"?CRDiffuseColor@@YAPEAVCRGeometry@@PEAV1@PEAVCRColor@@@Z" ; danim.dll
"?CRDirectionalLight@@YAPEAVCRGeometry@@XZ" ; danim.dll
"?CRDisconnect@@YA_NPEAUHINSTANCE__@@@Z" ; danim.dll
"?CRDistance@@YAPEAVCRNumber@@PEAVCRPoint2@@0@Z" ; danim.dll
"?CRDistance@@YAPEAVCRNumber@@PEAVCRPoint3@@0@Z" ; danim.dll
"?CRDistanceSquared@@YAPEAVCRNumber@@PEAVCRPoint2@@0@Z" ; danim.dll
"?CRDistanceSquared@@YAPEAVCRNumber@@PEAVCRPoint3@@0@Z" ; danim.dll
"?CRDiv@@YAPEAVCRNumber@@PEAV1@0@Z" ; danim.dll
"?CRDiv@@YAPEAVCRVector2@@PEAV1@N@Z" ; danim.dll
"?CRDiv@@YAPEAVCRVector2@@PEAV1@PEAVCRNumber@@@Z" ; danim.dll
"?CRDiv@@YAPEAVCRVector3@@PEAV1@N@Z" ; danim.dll
"?CRDiv@@YAPEAVCRVector3@@PEAV1@PEAVCRNumber@@@Z" ; danim.dll
"?CRDoGC@@YA_NXZ" ; danim.dll
"?CRDot@@YAPEAVCRNumber@@PEAVCRVector2@@0@Z" ; danim.dll
"?CRDot@@YAPEAVCRNumber@@PEAVCRVector3@@0@Z" ; danim.dll
"?CRDraw@@YAPEAVCRImage@@PEAVCRPath2@@PEAVCRLineStyle@@@Z" ; danim.dll
"?CRDuration@@YAPEAVCRBvr@@PEAV1@N@Z" ; danim.dll
"?CRDuration@@YAPEAVCRBvr@@PEAV1@PEAVCRNumber@@@Z" ; danim.dll
"?CREQ@@YAPEAVCRBoolean@@PEAVCRNumber@@0@Z" ; danim.dll
"?CREmissiveColor@@YAPEAVCRGeometry@@PEAV1@PEAVCRColor@@@Z" ; danim.dll
"?CREmptyColor@@YAPEAVCRColor@@XZ" ; danim.dll
"?CREmptyGeometry@@YAPEAVCRGeometry@@XZ" ; danim.dll
"?CREmptyImage@@YAPEAVCRImage@@XZ" ; danim.dll
"?CREmptyLineStyle@@YAPEAVCRLineStyle@@XZ" ; danim.dll
"?CREmptyMontage@@YAPEAVCRMontage@@XZ" ; danim.dll
"?CREnd@@YAPEAVCRLineStyle@@PEAV1@PEAVCREndStyle@@@Z" ; danim.dll
"?CREndEvent@@YAPEAVCRBvr@@PEAV1@@Z" ; danim.dll
"?CREndEx@@YAPEAVCRLineStyle@@PEAV1@K@Z" ; danim.dll
"?CREndStyleFlat@@YAPEAVCREndStyle@@XZ" ; danim.dll
"?CREndStyleRound@@YAPEAVCREndStyle@@XZ" ; danim.dll
"?CREndStyleSquare@@YAPEAVCREndStyle@@XZ" ; danim.dll
"?CRExp@@YAPEAVCRNumber@@PEAV1@@Z" ; danim.dll
"?CRExtendedAttrib@@YAPEAVCRBvr@@PEAV1@PEAGUtagVARIANT@@@Z" ; danim.dll
"?CRExtract@@YANPEAVCRNumber@@@Z" ; danim.dll
"?CRExtract@@YAPEAGPEAVCRString@@@Z" ; danim.dll
"?CRExtract@@YA_NPEAVCRBoolean@@@Z" ; danim.dll
"?CRFalse@@YAPEAVCRBoolean@@XZ" ; danim.dll
"?CRFamily@@YAPEAVCRFontStyle@@PEAV1@PEAG@Z" ; danim.dll
"?CRFamily@@YAPEAVCRFontStyle@@PEAV1@PEAVCRString@@@Z" ; danim.dll
"?CRFill@@YAPEAVCRImage@@PEAVCRPath2@@PEAVCRLineStyle@@PEAV1@@Z" ; danim.dll
"?CRFillMatte@@YAPEAVCRMatte@@PEAVCRPath2@@@Z" ; danim.dll
"?CRFirst@@YAPEAVCRBvr@@PEAVCRPair@@@Z" ; danim.dll
"?CRFloor@@YAPEAVCRNumber@@PEAV1@@Z" ; danim.dll
"?CRFollowPath@@YAPEAVCRTransform2@@PEAVCRPath2@@N@Z" ; danim.dll
"?CRFollowPath@@YAPEAVCRTransform2@@PEAVCRPath2@@PEAVCRNumber@@@Z" ; danim.dll
"?CRFollowPathAngle@@YAPEAVCRTransform2@@PEAVCRPath2@@N@Z" ; danim.dll
"?CRFollowPathAngle@@YAPEAVCRTransform2@@PEAVCRPath2@@PEAVCRNumber@@@Z" ; danim.dll
"?CRFollowPathAngleEval@@YAPEAVCRTransform2@@PEAVCRPath2@@PEAVCRNumber@@@Z" ; danim.dll
"?CRFollowPathAngleUpright@@YAPEAVCRTransform2@@PEAVCRPath2@@N@Z" ; danim.dll
"?CRFollowPathAngleUpright@@YAPEAVCRTransform2@@PEAVCRPath2@@PEAVCRNumber@@@Z" ; danim.dll
"?CRFollowPathAngleUprightEval@@YAPEAVCRTransform2@@PEAVCRPath2@@PEAVCRNumber@@@Z" ; danim.dll
"?CRFollowPathEval@@YAPEAVCRTransform2@@PEAVCRPath2@@PEAVCRNumber@@@Z" ; danim.dll
"?CRFont@@YAPEAVCRFontStyle@@PEAGNPEAVCRColor@@@Z" ; danim.dll
"?CRFont@@YAPEAVCRFontStyle@@PEAVCRString@@PEAVCRNumber@@PEAVCRColor@@@Z" ; danim.dll
"?CRFuchsia@@YAPEAVCRColor@@XZ" ; danim.dll
"?CRGT@@YAPEAVCRBoolean@@PEAVCRNumber@@0@Z" ; danim.dll
"?CRGTE@@YAPEAVCRBoolean@@PEAVCRNumber@@0@Z" ; danim.dll
"?CRGain@@YAPEAVCRSound@@PEAV1@N@Z" ; danim.dll
"?CRGain@@YAPEAVCRSound@@PEAV1@PEAVCRNumber@@@Z" ; danim.dll
"?CRGetArrayTypeId@@YA?AW4CR_BVR_TYPEID@@PEAVCRBvr@@@Z" ; danim.dll
"?CRGetBlue@@YAPEAVCRNumber@@PEAVCRColor@@@Z" ; danim.dll
"?CRGetCompletionEvent@@YAPEAVCREvent@@PEAVCRImportationResult@@@Z" ; danim.dll
"?CRGetCompositeDirectlyToTarget@@YA_NPEAVCRView@@@Z" ; danim.dll
"?CRGetConstDuration@@YANPEAVCREvent@@@Z" ; danim.dll
"?CRGetDC@@YAPEAUHDC__@@PEAVCRView@@@Z" ; danim.dll
"?CRGetDDD3DRM@@YA_NPEAVCRView@@PEAPEAUIUnknown@@1@Z" ; danim.dll
"?CRGetData@@YAPEAUIUnknown@@PEAVCRUserData@@@Z" ; danim.dll
"?CRGetDirectDrawSurface@@YAPEAUIUnknown@@PEAVCRView@@@Z" ; danim.dll
"?CRGetDuration@@YAPEAVCRNumber@@PEAVCRImportationResult@@@Z" ; danim.dll
"?CRGetElement@@YAPEAVCRBvr@@PEAVCRArray@@J@Z" ; danim.dll
"?CRGetEvent@@YAPEAVCREvent@@PEAVCRPickableResult@@@Z" ; danim.dll
"?CRGetGeometry@@YAPEAVCRGeometry@@PEAVCRImportationResult@@@Z" ; danim.dll
"?CRGetGeometry@@YAPEAVCRGeometry@@PEAVCRPickableResult@@@Z" ; danim.dll
"?CRGetGreen@@YAPEAVCRNumber@@PEAVCRColor@@@Z" ; danim.dll
"?CRGetHue@@YAPEAVCRNumber@@PEAVCRColor@@@Z" ; danim.dll
"?CRGetImage@@YAPEAVCRImage@@PEAVCRImportationResult@@@Z" ; danim.dll
"?CRGetImage@@YAPEAVCRImage@@PEAVCRPickableResult@@@Z" ; danim.dll
"?CRGetImportPriority@@YAMPEAVCRBvr@@@Z" ; danim.dll
"?CRGetInvalidatedRects@@YAJPEAVCRView@@KJPEAUtagRECT@@@Z" ; danim.dll
"?CRGetLastError@@YAJXZ" ; danim.dll
"?CRGetLastErrorString@@YAPEBGXZ" ; danim.dll
"?CRGetLightness@@YAPEAVCRNumber@@PEAVCRColor@@@Z" ; danim.dll
"?CRGetModifiableBvr@@YAPEAVCRBvr@@PEAV1@@Z" ; danim.dll
"?CRGetOutputBvr@@YAPEAVCRBvr@@PEAVCRDXTransformResult@@@Z" ; danim.dll
"?CRGetPreference@@YA_NPEAVCRView@@PEAGPEAUtagVARIANT@@@Z" ; danim.dll
"?CRGetProgress@@YAPEAVCRNumber@@PEAVCRImportationResult@@@Z" ; danim.dll
"?CRGetRMDevice@@YA_NPEAVCRView@@PEAPEAUIUnknown@@PEAK@Z" ; danim.dll
"?CRGetRed@@YAPEAVCRNumber@@PEAVCRColor@@@Z" ; danim.dll
"?CRGetSaturation@@YAPEAVCRNumber@@PEAVCRColor@@@Z" ; danim.dll
"?CRGetServiceProvider@@YAPEAUIServiceProvider@@PEAVCRView@@@Z" ; danim.dll
"?CRGetSimulationTime@@YANPEAVCRView@@@Z" ; danim.dll
"?CRGetSite@@YAPEAVCRViewSite@@PEAVCRView@@@Z" ; danim.dll
"?CRGetSize@@YAPEAVCRNumber@@PEAVCRImportationResult@@@Z" ; danim.dll
"?CRGetSound@@YAPEAVCRSound@@PEAVCRImportationResult@@@Z" ; danim.dll
"?CRGetTransform@@YAPEAUIUnknown@@PEAVCRDXTransformResult@@@Z" ; danim.dll
"?CRGetTypeId@@YA?AW4CR_BVR_TYPEID@@PEAVCRBvr@@@Z" ; danim.dll
"?CRGetWindow@@YAPEAUHWND__@@PEAVCRView@@@Z" ; danim.dll
"?CRGetX@@YAPEAVCRNumber@@PEAVCRPoint2@@@Z" ; danim.dll
"?CRGetX@@YAPEAVCRNumber@@PEAVCRPoint3@@@Z" ; danim.dll
"?CRGetX@@YAPEAVCRNumber@@PEAVCRVector2@@@Z" ; danim.dll
"?CRGetX@@YAPEAVCRNumber@@PEAVCRVector3@@@Z" ; danim.dll
"?CRGetY@@YAPEAVCRNumber@@PEAVCRPoint2@@@Z" ; danim.dll
"?CRGetY@@YAPEAVCRNumber@@PEAVCRPoint3@@@Z" ; danim.dll
"?CRGetY@@YAPEAVCRNumber@@PEAVCRVector2@@@Z" ; danim.dll
"?CRGetY@@YAPEAVCRNumber@@PEAVCRVector3@@@Z" ; danim.dll
"?CRGetZ@@YAPEAVCRNumber@@PEAVCRPoint3@@@Z" ; danim.dll
"?CRGetZ@@YAPEAVCRNumber@@PEAVCRVector3@@@Z" ; danim.dll
"?CRGlobalTime@@YAPEAVCRNumber@@XZ" ; danim.dll
"?CRGradientHorizontal@@YAPEAVCRImage@@PEAVCRColor@@0N@Z" ; danim.dll
"?CRGradientHorizontal@@YAPEAVCRImage@@PEAVCRColor@@0PEAVCRNumber@@@Z" ; danim.dll
"?CRGradientPolygon@@YAPEAVCRImage@@PEAVCRArray@@0@Z" ; danim.dll
"?CRGradientSquare@@YAPEAVCRImage@@PEAVCRColor@@000@Z" ; danim.dll
"?CRGray@@YAPEAVCRColor@@XZ" ; danim.dll
"?CRGreen@@YAPEAVCRColor@@XZ" ; danim.dll
"?CRHatchBackwardDiagonal@@YAPEAVCRImage@@PEAVCRColor@@N@Z" ; danim.dll
"?CRHatchBackwardDiagonal@@YAPEAVCRImage@@PEAVCRColor@@PEAVCRNumber@@@Z" ; danim.dll
"?CRHatchCross@@YAPEAVCRImage@@PEAVCRColor@@N@Z" ; danim.dll
"?CRHatchCross@@YAPEAVCRImage@@PEAVCRColor@@PEAVCRNumber@@@Z" ; danim.dll
"?CRHatchDiagonalCross@@YAPEAVCRImage@@PEAVCRColor@@N@Z" ; danim.dll
"?CRHatchDiagonalCross@@YAPEAVCRImage@@PEAVCRColor@@PEAVCRNumber@@@Z" ; danim.dll
"?CRHatchForwardDiagonal@@YAPEAVCRImage@@PEAVCRColor@@N@Z" ; danim.dll
"?CRHatchForwardDiagonal@@YAPEAVCRImage@@PEAVCRColor@@PEAVCRNumber@@@Z" ; danim.dll
"?CRHatchHorizontal@@YAPEAVCRImage@@PEAVCRColor@@N@Z" ; danim.dll
"?CRHatchHorizontal@@YAPEAVCRImage@@PEAVCRColor@@PEAVCRNumber@@@Z" ; danim.dll
"?CRHatchVertical@@YAPEAVCRImage@@PEAVCRColor@@N@Z" ; danim.dll
"?CRHatchVertical@@YAPEAVCRImage@@PEAVCRColor@@PEAVCRNumber@@@Z" ; danim.dll
"?CRHook@@YAPEAVCRBvr@@PEAV1@PEAVCRBvrHook@@@Z" ; danim.dll
"?CRIdentityTransform2@@YAPEAVCRTransform2@@XZ" ; danim.dll
"?CRIdentityTransform3@@YAPEAVCRTransform3@@XZ" ; danim.dll
"?CRImageMontage@@YAPEAVCRMontage@@PEAVCRImage@@N@Z" ; danim.dll
"?CRImageMontageAnim@@YAPEAVCRMontage@@PEAVCRImage@@PEAVCRNumber@@@Z" ; danim.dll
"?CRImageQuality@@YAPEAVCRImage@@PEAV1@K@Z" ; danim.dll
"?CRImportCancel@@YA_NPEAVCRBvr@@@Z" ; danim.dll
"?CRImportDirect3DRMVisual@@YAPEAVCRGeometry@@PEAUIUnknown@@@Z" ; danim.dll
"?CRImportDirect3DRMVisualWrapped@@YAPEAVCRGeometry@@PEAUIUnknown@@JNNNNNNNNNNNNNK@Z" ; danim.dll
"?CRImportDirectDrawSurface@@YAPEAVCRImage@@PEAUIUnknown@@PEAVCREvent@@@Z" ; danim.dll
"?CRImportGeometry@@YAKPEBG0PEAVCRImportSite@@PEAUIBindHost@@PEAVCRGeometry@@PEAPEAV3@PEAPEAVCREvent@@PEAPEAVCRNumber@@6@Z" ; danim.dll
"?CRImportGeometryWrapped@@YAKPEBG0PEAVCRImportSite@@PEAUIBindHost@@PEAVCRGeometry@@PEAPEAV3@PEAPEAVCREvent@@PEAPEAVCRNumber@@6JNNNNNNNNNNNNNK@Z" ; danim.dll
"?CRImportImage@@YAKPEBG0PEAVCRImportSite@@PEAUIBindHost@@_NEEEPEAVCRImage@@PEAPEAV3@PEAPEAVCREvent@@PEAPEAVCRNumber@@7@Z" ; danim.dll
"?CRImportMedia@@YAPEAVCRImportationResult@@PEAGPEAXW4CR_MEDIA_SOURCE@@QEAPEAXKPEAVCRImportSite@@@Z" ; danim.dll
"?CRImportMovie@@YAKPEBG0PEAVCRImportSite@@PEAUIBindHost@@_NPEAVCRImage@@PEAVCRSound@@PEAPEAV3@PEAPEAV4@PEAPEAVCRNumber@@PEAPEAVCREvent@@88@Z" ; danim.dll
"?CRImportSound@@YAKPEBG0PEAVCRImportSite@@PEAUIBindHost@@_NPEAVCRSound@@PEAPEAV3@PEAPEAVCRNumber@@PEAPEAVCREvent@@66@Z" ; danim.dll
"?CRImportStatus@@YAJPEAVCRBvr@@@Z" ; danim.dll
"?CRImportance@@YAPEAVCRBvr@@PEAV1@N@Z" ; danim.dll
"?CRInit@@YA_NPEAVCRBvr@@0@Z" ; danim.dll
"?CRIntegral@@YAPEAVCRNumber@@PEAV1@@Z" ; danim.dll
"?CRIntegral@@YAPEAVCRVector2@@PEAV1@@Z" ; danim.dll
"?CRIntegral@@YAPEAVCRVector3@@PEAV1@@Z" ; danim.dll
"?CRInterpolate@@YAPEAVCRNumber@@NNN@Z" ; danim.dll
"?CRInterpolate@@YAPEAVCRNumber@@PEAV1@00@Z" ; danim.dll
"?CRIntersectMatte@@YAPEAVCRMatte@@PEAV1@0@Z" ; danim.dll
"?CRInverse@@YAPEAVCRTransform2@@PEAV1@@Z" ; danim.dll
"?CRInverse@@YAPEAVCRTransform3@@PEAV1@@Z" ; danim.dll
"?CRIsConnected@@YA_NPEAUHINSTANCE__@@@Z" ; danim.dll
"?CRIsConstantBvr@@YA_NPEAVCRBvr@@@Z" ; danim.dll
"?CRIsImport@@YA_NPEAVCRBvr@@@Z" ; danim.dll
"?CRIsModifiableBvr@@YA_NPEAVCRBvr@@@Z" ; danim.dll
"?CRIsReady@@YA_NPEAVCRBvr@@_N@Z" ; danim.dll
"?CRIsSingular@@YAPEAVCRBoolean@@PEAVCRTransform2@@@Z" ; danim.dll
"?CRIsSingular@@YAPEAVCRBoolean@@PEAVCRTransform3@@@Z" ; danim.dll
"?CRItalic@@YAPEAVCRFontStyle@@PEAV1@@Z" ; danim.dll
"?CRJoin@@YAPEAVCRLineStyle@@PEAV1@PEAVCRJoinStyle@@@Z" ; danim.dll
"?CRJoinEx@@YAPEAVCRLineStyle@@PEAV1@K@Z" ; danim.dll
"?CRJoinStyleBevel@@YAPEAVCRJoinStyle@@XZ" ; danim.dll
"?CRJoinStyleMiter@@YAPEAVCRJoinStyle@@XZ" ; danim.dll
"?CRJoinStyleRound@@YAPEAVCRJoinStyle@@XZ" ; danim.dll
"?CRKeyDown@@YAPEAVCREvent@@J@Z" ; danim.dll
"?CRKeyState@@YAPEAVCRBoolean@@PEAVCRNumber@@@Z" ; danim.dll
"?CRKeyUp@@YAPEAVCREvent@@J@Z" ; danim.dll
"?CRLT@@YAPEAVCRBoolean@@PEAVCRNumber@@0@Z" ; danim.dll
"?CRLTE@@YAPEAVCRBoolean@@PEAVCRNumber@@0@Z" ; danim.dll
"?CRLeftButtonDown@@YAPEAVCREvent@@XZ" ; danim.dll
"?CRLeftButtonState@@YAPEAVCRBoolean@@XZ" ; danim.dll
"?CRLeftButtonUp@@YAPEAVCREvent@@XZ" ; danim.dll
"?CRLength@@YAJPEAVCRTuple@@@Z" ; danim.dll
"?CRLength@@YAPEAVCRNumber@@PEAVCRArray@@@Z" ; danim.dll
"?CRLength@@YAPEAVCRNumber@@PEAVCRVector2@@@Z" ; danim.dll
"?CRLength@@YAPEAVCRNumber@@PEAVCRVector3@@@Z" ; danim.dll
"?CRLengthSquared@@YAPEAVCRNumber@@PEAVCRVector2@@@Z" ; danim.dll
"?CRLengthSquared@@YAPEAVCRNumber@@PEAVCRVector3@@@Z" ; danim.dll
"?CRLightAttenuation@@YAPEAVCRGeometry@@PEAV1@NNN@Z" ; danim.dll
"?CRLightAttenuation@@YAPEAVCRGeometry@@PEAV1@PEAVCRNumber@@11@Z" ; danim.dll
"?CRLightColor@@YAPEAVCRGeometry@@PEAV1@PEAVCRColor@@@Z" ; danim.dll
"?CRLightRange@@YAPEAVCRGeometry@@PEAV1@N@Z" ; danim.dll
"?CRLightRange@@YAPEAVCRGeometry@@PEAV1@PEAVCRNumber@@@Z" ; danim.dll
"?CRLighting@@YAPEAVCRGeometry@@PEAV1@PEAVCRBoolean@@@Z" ; danim.dll
"?CRLime@@YAPEAVCRColor@@XZ" ; danim.dll
"?CRLine@@YAPEAVCRPath2@@PEAVCRPoint2@@0@Z" ; danim.dll
"?CRLineColor@@YAPEAVCRLineStyle@@PEAV1@PEAVCRColor@@@Z" ; danim.dll
"?CRLinearGradientMulticolor@@YAPEAVCRImage@@PEAVCRArray@@0@Z" ; danim.dll
"?CRLn@@YAPEAVCRNumber@@PEAV1@@Z" ; danim.dll
"?CRLocalTime@@YAPEAVCRNumber@@XZ" ; danim.dll
"?CRLog10@@YAPEAVCRNumber@@PEAV1@@Z" ; danim.dll
"?CRLookAtFrom@@YAPEAVCRTransform3@@PEAVCRPoint3@@0PEAVCRVector3@@@Z" ; danim.dll
"?CRLoop@@YAPEAVCRSound@@PEAV1@@Z" ; danim.dll
"?CRMagenta@@YAPEAVCRColor@@XZ" ; danim.dll
"?CRMapToUnitSquare@@YAPEAVCRImage@@PEAV1@@Z" ; danim.dll
"?CRMaroon@@YAPEAVCRColor@@XZ" ; danim.dll
"?CRMax@@YAPEAVCRPoint2@@PEAVCRBbox2@@@Z" ; danim.dll
"?CRMax@@YAPEAVCRPoint3@@PEAVCRBbox3@@@Z" ; danim.dll
"?CRMin@@YAPEAVCRPoint2@@PEAVCRBbox2@@@Z" ; danim.dll
"?CRMin@@YAPEAVCRPoint3@@PEAVCRBbox3@@@Z" ; danim.dll
"?CRMiterLimit@@YAPEAVCRLineStyle@@PEAV1@N@Z" ; danim.dll
"?CRMiterLimit@@YAPEAVCRLineStyle@@PEAV1@PEAVCRNumber@@@Z" ; danim.dll
"?CRMix@@YAPEAVCRSound@@PEAV1@0@Z" ; danim.dll
"?CRMix@@YAPEAVCRSound@@PEAVCRArray@@@Z" ; danim.dll
"?CRMod@@YAPEAVCRNumber@@PEAV1@0@Z" ; danim.dll
"?CRModelClip@@YAPEAVCRGeometry@@PEAV1@PEAVCRPoint3@@PEAVCRVector3@@@Z" ; danim.dll
"?CRModifiableBvr@@YAPEAVCRBvr@@PEAV1@K@Z" ; danim.dll
"?CRModifiableNumber@@YAPEAVCRNumber@@N@Z" ; danim.dll
"?CRModifiableString@@YAPEAVCRString@@PEAG@Z" ; danim.dll
"?CRMousePosition@@YAPEAVCRPoint2@@XZ" ; danim.dll
"?CRMul@@YAPEAVCRNumber@@PEAV1@0@Z" ; danim.dll
"?CRMul@@YAPEAVCRVector2@@PEAV1@N@Z" ; danim.dll
"?CRMul@@YAPEAVCRVector2@@PEAV1@PEAVCRNumber@@@Z" ; danim.dll
"?CRMul@@YAPEAVCRVector3@@PEAV1@N@Z" ; danim.dll
"?CRMul@@YAPEAVCRVector3@@PEAV1@PEAVCRNumber@@@Z" ; danim.dll
"?CRNE@@YAPEAVCRBoolean@@PEAVCRNumber@@0@Z" ; danim.dll
"?CRNavy@@YAPEAVCRColor@@XZ" ; danim.dll
"?CRNeg@@YAPEAVCRNumber@@PEAV1@@Z" ; danim.dll
"?CRNeg@@YAPEAVCRVector2@@PEAV1@@Z" ; danim.dll
"?CRNeg@@YAPEAVCRVector3@@PEAV1@@Z" ; danim.dll
"?CRNever@@YAPEAVCREvent@@XZ" ; danim.dll
"?CRNormalize@@YAPEAVCRVector2@@PEAV1@@Z" ; danim.dll
"?CRNormalize@@YAPEAVCRVector3@@PEAV1@@Z" ; danim.dll
"?CRNot@@YAPEAVCRBoolean@@PEAV1@@Z" ; danim.dll
"?CRNotEvent@@YAPEAVCREvent@@PEAV1@@Z" ; danim.dll
"?CRNotify@@YAPEAVCREvent@@PEAV1@PEAVCRUntilNotifier@@@Z" ; danim.dll
"?CRNth@@YAPEAVCRBvr@@PEAVCRArray@@PEAVCRNumber@@@Z" ; danim.dll
"?CRNth@@YAPEAVCRBvr@@PEAVCRTuple@@J@Z" ; danim.dll
"?CROlive@@YAPEAVCRColor@@XZ" ; danim.dll
"?CROnFocus@@YA_NPEAVCRView@@_N@Z" ; danim.dll
"?CROnKey@@YA_NPEAVCRView@@NJ_NE@Z" ; danim.dll
"?CROnMouseButton@@YA_NPEAVCRView@@NJJE_NE@Z" ; danim.dll
"?CROnMouseLeave@@YA_NPEAVCRView@@N@Z" ; danim.dll
"?CROnMouseMove@@YA_NPEAVCRView@@NJJE@Z" ; danim.dll
"?CROpacity@@YAPEAVCRGeometry@@PEAV1@N@Z" ; danim.dll
"?CROpacity@@YAPEAVCRGeometry@@PEAV1@PEAVCRNumber@@@Z" ; danim.dll
"?CROpacity@@YAPEAVCRImage@@PEAV1@N@Z" ; danim.dll
"?CROpacity@@YAPEAVCRImage@@PEAV1@PEAVCRNumber@@@Z" ; danim.dll
"?CROpaqueMatte@@YAPEAVCRMatte@@XZ" ; danim.dll
"?CROr@@YAPEAVCRBoolean@@PEAV1@0@Z" ; danim.dll
"?CROrEvent@@YAPEAVCREvent@@PEAV1@0@Z" ; danim.dll
"?CROrigin2@@YAPEAVCRPoint2@@XZ" ; danim.dll
"?CROrigin3@@YAPEAVCRPoint3@@XZ" ; danim.dll
"?CROval@@YAPEAVCRPath2@@NN@Z" ; danim.dll
"?CROval@@YAPEAVCRPath2@@PEAVCRNumber@@0@Z" ; danim.dll
"?CROverlay@@YAPEAVCRImage@@PEAV1@0@Z" ; danim.dll
"?CROverlay@@YAPEAVCRImage@@PEAVCRArray@@@Z" ; danim.dll
"?CRPan@@YAPEAVCRSound@@PEAV1@N@Z" ; danim.dll
"?CRPan@@YAPEAVCRSound@@PEAV1@PEAVCRNumber@@@Z" ; danim.dll
"?CRParallelCamera@@YAPEAVCRCamera@@N@Z" ; danim.dll
"?CRParallelCameraAnim@@YAPEAVCRCamera@@PEAVCRNumber@@@Z" ; danim.dll
"?CRParallelTransform2@@YAPEAVCRTransform2@@PEAVCRTransform3@@@Z" ; danim.dll
"?CRPauseModel@@YA_NPEAVCRView@@@Z" ; danim.dll
"?CRPerspectiveCamera@@YAPEAVCRCamera@@NN@Z" ; danim.dll
"?CRPerspectiveCameraAnim@@YAPEAVCRCamera@@PEAVCRNumber@@0@Z" ; danim.dll
"?CRPhase@@YAPEAVCRSound@@PEAV1@N@Z" ; danim.dll
"?CRPhase@@YAPEAVCRSound@@PEAV1@PEAVCRNumber@@@Z" ; danim.dll
"?CRPickable@@YAPEAVCRPickableResult@@PEAVCRGeometry@@@Z" ; danim.dll
"?CRPickable@@YAPEAVCRPickableResult@@PEAVCRImage@@@Z" ; danim.dll
"?CRPickableOccluded@@YAPEAVCRPickableResult@@PEAVCRGeometry@@@Z" ; danim.dll
"?CRPickableOccluded@@YAPEAVCRPickableResult@@PEAVCRImage@@@Z" ; danim.dll
"?CRPie@@YAPEAVCRPath2@@NNNN@Z" ; danim.dll
"?CRPieRadians@@YAPEAVCRPath2@@NNNN@Z" ; danim.dll
"?CRPieRadians@@YAPEAVCRPath2@@PEAVCRNumber@@000@Z" ; danim.dll
"?CRPixel@@YAPEAVCRNumber@@XZ" ; danim.dll
"?CRPoint2Polar@@YAPEAVCRPoint2@@NN@Z" ; danim.dll
"?CRPoint2Polar@@YAPEAVCRPoint2@@PEAVCRNumber@@0@Z" ; danim.dll
"?CRPoint3Spherical@@YAPEAVCRPoint3@@NNN@Z" ; danim.dll
"?CRPoint3Spherical@@YAPEAVCRPoint3@@PEAVCRNumber@@00@Z" ; danim.dll
"?CRPointLight@@YAPEAVCRGeometry@@XZ" ; danim.dll
"?CRPolarCoordAngle@@YAPEAVCRNumber@@PEAVCRPoint2@@@Z" ; danim.dll
"?CRPolarCoordAngle@@YAPEAVCRNumber@@PEAVCRVector2@@@Z" ; danim.dll
"?CRPolarCoordLength@@YAPEAVCRNumber@@PEAVCRPoint2@@@Z" ; danim.dll
"?CRPolarCoordLength@@YAPEAVCRNumber@@PEAVCRVector2@@@Z" ; danim.dll
"?CRPolydrawPath@@YAPEAVCRPath2@@PEANI0I@Z" ; danim.dll
"?CRPolydrawPath@@YAPEAVCRPath2@@PEAVCRArray@@0@Z" ; danim.dll
"?CRPolyline@@YAPEAVCRPath2@@PEAVCRArray@@@Z" ; danim.dll
"?CRPow@@YAPEAVCRNumber@@PEAV1@0@Z" ; danim.dll
"?CRPredicate@@YAPEAVCREvent@@PEAVCRBoolean@@@Z" ; danim.dll
"?CRProject@@YAPEAVCRPoint2@@PEAVCRPoint3@@PEAVCRCamera@@@Z" ; danim.dll
"?CRPropagate@@YA_NPEAVCRView@@@Z" ; danim.dll
"?CRPurple@@YAPEAVCRColor@@XZ" ; danim.dll
"?CRPutPreference@@YA_NPEAVCRView@@PEAGUtagVARIANT@@@Z" ; danim.dll
"?CRQueryHitPoint@@YAKPEAVCRView@@KPEBUtagRECT@@UtagPOINT@@J@Z" ; danim.dll
"?CRQueryHitPointEx@@YAJPEAVCRView@@JPEA_KPEANPEBUtagRECT@@UtagPOINT@@@Z" ; danim.dll
"?CRRadialGradientMulticolor@@YAPEAVCRImage@@PEAVCRArray@@0@Z" ; danim.dll
"?CRRadialGradientPolygon@@YAPEAVCRImage@@PEAVCRColor@@0PEAVCRArray@@N@Z" ; danim.dll
"?CRRadialGradientPolygon@@YAPEAVCRImage@@PEAVCRColor@@0PEAVCRArray@@PEAVCRNumber@@@Z" ; danim.dll
"?CRRadialGradientRegularPoly@@YAPEAVCRImage@@PEAVCRColor@@0NN@Z" ; danim.dll
"?CRRadialGradientRegularPoly@@YAPEAVCRImage@@PEAVCRColor@@0PEAVCRNumber@@1@Z" ; danim.dll
"?CRRadialGradientSquare@@YAPEAVCRImage@@PEAVCRColor@@0N@Z" ; danim.dll
"?CRRadialGradientSquare@@YAPEAVCRImage@@PEAVCRColor@@0PEAVCRNumber@@@Z" ; danim.dll
"?CRRate@@YAPEAVCRSound@@PEAV1@N@Z" ; danim.dll
"?CRRate@@YAPEAVCRSound@@PEAV1@PEAVCRNumber@@@Z" ; danim.dll
"?CRRay@@YAPEAVCRPath2@@PEAVCRPoint2@@@Z" ; danim.dll
"?CRRect@@YAPEAVCRPath2@@NN@Z" ; danim.dll
"?CRRect@@YAPEAVCRPath2@@PEAVCRNumber@@0@Z" ; danim.dll
"?CRRed@@YAPEAVCRColor@@XZ" ; danim.dll
"?CRReleaseGC@@YA_NPEAX@Z" ; danim.dll
"?CRReleaseGCLock@@YA_NXZ" ; danim.dll
"?CRRemoveElement@@YA_NPEAVCRArray@@J@Z" ; danim.dll
"?CRRemoveRunningBvr@@YA_NPEAVCRView@@J@Z" ; danim.dll
"?CRRemoveSite@@YA_NPEAVCRSite@@@Z" ; danim.dll
"?CRRender@@YAPEAVCRImage@@PEAVCRGeometry@@PEAVCRCamera@@@Z" ; danim.dll
"?CRRender@@YAPEAVCRImage@@PEAVCRMontage@@@Z" ; danim.dll
"?CRRender@@YA_NPEAVCRView@@@Z" ; danim.dll
"?CRRenderResolution@@YAPEAVCRImage@@PEAV1@JJ@Z" ; danim.dll
"?CRRenderSound@@YAPEAVCRSound@@PEAVCRGeometry@@PEAVCRMicrophone@@@Z" ; danim.dll
"?CRRepaint@@YA_NPEAVCRView@@JJJJ@Z" ; danim.dll
"?CRRepeat@@YAPEAVCRBvr@@PEAV1@J@Z" ; danim.dll
"?CRRepeatForever@@YAPEAVCRBvr@@PEAV1@@Z" ; danim.dll
"?CRResumeModel@@YA_NPEAVCRView@@@Z" ; danim.dll
"?CRRightButtonDown@@YAPEAVCREvent@@XZ" ; danim.dll
"?CRRightButtonState@@YAPEAVCRBoolean@@XZ" ; danim.dll
"?CRRightButtonUp@@YAPEAVCREvent@@XZ" ; danim.dll
"?CRRotate2@@YAPEAVCRTransform2@@N@Z" ; danim.dll
"?CRRotate2@@YAPEAVCRTransform2@@PEAVCRNumber@@@Z" ; danim.dll
"?CRRotate2Degrees@@YAPEAVCRTransform2@@N@Z" ; danim.dll
"?CRRotate3@@YAPEAVCRTransform3@@PEAVCRVector3@@N@Z" ; danim.dll
"?CRRotate3@@YAPEAVCRTransform3@@PEAVCRVector3@@PEAVCRNumber@@@Z" ; danim.dll
"?CRRound@@YAPEAVCRNumber@@PEAV1@@Z" ; danim.dll
"?CRRoundRect@@YAPEAVCRPath2@@NNNN@Z" ; danim.dll
"?CRRoundRect@@YAPEAVCRPath2@@PEAVCRNumber@@000@Z" ; danim.dll
"?CRRunOnce@@YAPEAVCRBvr@@PEAV1@@Z" ; danim.dll
"?CRSampleAtLocalTime@@YAPEAVCRBvr@@PEAV1@N@Z" ; danim.dll
"?CRScale2@@YAPEAVCRTransform2@@NN@Z" ; danim.dll
"?CRScale2@@YAPEAVCRTransform2@@PEAVCRNumber@@0@Z" ; danim.dll
"?CRScale2@@YAPEAVCRTransform2@@PEAVCRVector2@@@Z" ; danim.dll
"?CRScale2Uniform@@YAPEAVCRTransform2@@N@Z" ; danim.dll
"?CRScale2Uniform@@YAPEAVCRTransform2@@PEAVCRNumber@@@Z" ; danim.dll
"?CRScale3@@YAPEAVCRTransform3@@NNN@Z" ; danim.dll
"?CRScale3@@YAPEAVCRTransform3@@PEAVCRNumber@@00@Z" ; danim.dll
"?CRScale3@@YAPEAVCRTransform3@@PEAVCRVector3@@@Z" ; danim.dll
"?CRScale3Uniform@@YAPEAVCRTransform3@@N@Z" ; danim.dll
"?CRScale3Uniform@@YAPEAVCRTransform3@@PEAVCRNumber@@@Z" ; danim.dll
"?CRSecond@@YAPEAVCRBvr@@PEAVCRPair@@@Z" ; danim.dll
"?CRSeededRandom@@YAPEAVCRNumber@@N@Z" ; danim.dll
"?CRSequence@@YAPEAVCRBvr@@PEAV1@0@Z" ; danim.dll
"?CRSequenceArray@@YAPEAVCRBvr@@JQEAPEAV1@@Z" ; danim.dll
"?CRSetBvrAsProperty@@YA_NPEAVCRDXTransformResult@@PEBGPEAVCRBvr@@@Z" ; danim.dll
"?CRSetClipRect@@YA_NPEAVCRView@@JJJJ@Z" ; danim.dll
"?CRSetCompositeDirectlyToTarget@@YA_NPEAVCRView@@_N@Z" ; danim.dll
"?CRSetDC@@YA_NPEAVCRView@@PEAUHDC__@@@Z" ; danim.dll
"?CRSetDirectDrawSurface@@YA_NPEAVCRView@@PEAUIUnknown@@@Z" ; danim.dll
"?CRSetElement@@YA_NPEAVCRArray@@JPEAVCRBvr@@J@Z" ; danim.dll
"?CRSetImportPriority@@YA_NPEAVCRBvr@@M@Z" ; danim.dll
"?CRSetLastError@@YAXJPEBG@Z" ; danim.dll
"?CRSetServiceProvider@@YA_NPEAVCRView@@PEAUIServiceProvider@@@Z" ; danim.dll
"?CRSetSite@@YA_NPEAVCRView@@PEAVCRViewSite@@@Z" ; danim.dll
"?CRSetViewport@@YA_NPEAVCRView@@JJJJ@Z" ; danim.dll
"?CRSetWindow@@YA_NPEAVCRView@@PEAUHWND__@@@Z" ; danim.dll
"?CRShadow@@YAPEAVCRGeometry@@PEAV1@0PEAVCRPoint3@@PEAVCRVector3@@@Z" ; danim.dll
"?CRSilence@@YAPEAVCRSound@@XZ" ; danim.dll
"?CRSilver@@YAPEAVCRColor@@XZ" ; danim.dll
"?CRSin@@YAPEAVCRNumber@@PEAV1@@Z" ; danim.dll
"?CRSinSynth@@YAPEAVCRSound@@XZ" ; danim.dll
"?CRSize@@YAPEAVCRFontStyle@@PEAV1@N@Z" ; danim.dll
"?CRSize@@YAPEAVCRFontStyle@@PEAV1@PEAVCRNumber@@@Z" ; danim.dll
"?CRSlowInSlowOut@@YAPEAVCRNumber@@NNNN@Z" ; danim.dll
"?CRSlowInSlowOut@@YAPEAVCRNumber@@PEAV1@000@Z" ; danim.dll
"?CRSnapshot@@YAPEAVCREvent@@PEAV1@PEAVCRBvr@@@Z" ; danim.dll
"?CRSolidColorImage@@YAPEAVCRImage@@PEAVCRColor@@@Z" ; danim.dll
"?CRSoundSource@@YAPEAVCRGeometry@@PEAVCRSound@@@Z" ; danim.dll
"?CRSpecularColor@@YAPEAVCRGeometry@@PEAV1@PEAVCRColor@@@Z" ; danim.dll
"?CRSpecularExponent@@YAPEAVCRGeometry@@PEAV1@N@Z" ; danim.dll
"?CRSpecularExponentAnim@@YAPEAVCRGeometry@@PEAV1@PEAVCRNumber@@@Z" ; danim.dll
"?CRSphericalCoordLength@@YAPEAVCRNumber@@PEAVCRPoint3@@@Z" ; danim.dll
"?CRSphericalCoordLength@@YAPEAVCRNumber@@PEAVCRVector3@@@Z" ; danim.dll
"?CRSphericalCoordXYAngle@@YAPEAVCRNumber@@PEAVCRPoint3@@@Z" ; danim.dll
"?CRSphericalCoordXYAngle@@YAPEAVCRNumber@@PEAVCRVector3@@@Z" ; danim.dll
"?CRSphericalCoordYZAngle@@YAPEAVCRNumber@@PEAVCRPoint3@@@Z" ; danim.dll
"?CRSphericalCoordYZAngle@@YAPEAVCRNumber@@PEAVCRVector3@@@Z" ; danim.dll
"?CRSpotLight@@YAPEAVCRGeometry@@PEAVCRNumber@@0@Z" ; danim.dll
"?CRSpotLight@@YAPEAVCRGeometry@@PEAVCRNumber@@N@Z" ; danim.dll
"?CRSqrt@@YAPEAVCRNumber@@PEAV1@@Z" ; danim.dll
"?CRStartModel@@YA_NPEAVCRView@@PEAVCRImage@@PEAVCRSound@@NKPEA_N@Z" ; danim.dll
"?CRStopModel@@YA_NPEAVCRView@@@Z" ; danim.dll
"?CRStrikethrough@@YAPEAVCRFontStyle@@PEAV1@@Z" ; danim.dll
"?CRStringImage@@YAPEAVCRImage@@PEAGPEAVCRFontStyle@@@Z" ; danim.dll
"?CRStringImage@@YAPEAVCRImage@@PEAVCRString@@PEAVCRFontStyle@@@Z" ; danim.dll
"?CRStringPath@@YAPEAVCRPath2@@PEAGPEAVCRFontStyle@@@Z" ; danim.dll
"?CRStringPath@@YAPEAVCRPath2@@PEAVCRString@@PEAVCRFontStyle@@@Z" ; danim.dll
"?CRSub@@YAPEAVCRNumber@@PEAV1@0@Z" ; danim.dll
"?CRSub@@YAPEAVCRPoint2@@PEAV1@PEAVCRVector2@@@Z" ; danim.dll
"?CRSub@@YAPEAVCRPoint3@@PEAV1@PEAVCRVector3@@@Z" ; danim.dll
"?CRSub@@YAPEAVCRVector2@@PEAV1@0@Z" ; danim.dll
"?CRSub@@YAPEAVCRVector2@@PEAVCRPoint2@@0@Z" ; danim.dll
"?CRSub@@YAPEAVCRVector3@@PEAV1@0@Z" ; danim.dll
"?CRSub@@YAPEAVCRVector3@@PEAVCRPoint3@@0@Z" ; danim.dll
"?CRSubstituteTime@@YAPEAVCRBvr@@PEAV1@PEAVCRNumber@@@Z" ; danim.dll
"?CRSwitchTo@@YA_NPEAVCRBvr@@0_NKN@Z" ; danim.dll
"?CRSwitchToBool@@YA_NPEAVCRBoolean@@_N@Z" ; danim.dll
"?CRSwitchToNumber@@YA_NPEAVCRNumber@@N@Z" ; danim.dll
"?CRSwitchToString@@YA_NPEAVCRString@@PEAG@Z" ; danim.dll
"?CRTan@@YAPEAVCRNumber@@PEAV1@@Z" ; danim.dll
"?CRTeal@@YAPEAVCRColor@@XZ" ; danim.dll
"?CRTextColor@@YAPEAVCRFontStyle@@PEAV1@PEAVCRColor@@@Z" ; danim.dll
"?CRTextImage@@YAPEAVCRImage@@PEAGPEAVCRFontStyle@@@Z" ; danim.dll
"?CRTextImage@@YAPEAVCRImage@@PEAVCRString@@PEAVCRFontStyle@@@Z" ; danim.dll
"?CRTextMatte@@YAPEAVCRMatte@@PEAVCRString@@PEAVCRFontStyle@@@Z" ; danim.dll
"?CRTextPath@@YAPEAVCRPath2@@PEAVCRString@@PEAVCRFontStyle@@@Z" ; danim.dll
"?CRTexture@@YAPEAVCRGeometry@@PEAV1@PEAVCRImage@@@Z" ; danim.dll
"?CRTextureImage@@YAPEAVCRGeometry@@PEAV1@PEAVCRImage@@@Z" ; danim.dll
"?CRThenEvent@@YAPEAVCREvent@@PEAV1@0@Z" ; danim.dll
"?CRTick@@YA_NPEAVCRView@@NPEA_N@Z" ; danim.dll
"?CRTile@@YAPEAVCRImage@@PEAV1@@Z" ; danim.dll
"?CRTimer@@YAPEAVCREvent@@N@Z" ; danim.dll
"?CRTimer@@YAPEAVCREvent@@PEAVCRNumber@@@Z" ; danim.dll
"?CRToDegrees@@YAPEAVCRNumber@@PEAV1@@Z" ; danim.dll
"?CRToRadians@@YAPEAVCRNumber@@PEAV1@@Z" ; danim.dll
"?CRToString@@YAPEAVCRString@@PEAVCRNumber@@0@Z" ; danim.dll
"?CRToString@@YAPEAVCRString@@PEAVCRNumber@@N@Z" ; danim.dll
"?CRTransform3x2@@YAPEAVCRTransform2@@PEANI@Z" ; danim.dll
"?CRTransform3x2@@YAPEAVCRTransform2@@PEAVCRArray@@@Z" ; danim.dll
"?CRTransform4x4@@YAPEAVCRTransform3@@PEAVCRArray@@@Z" ; danim.dll
"?CRTransform@@YAPEAVCRCamera@@PEAV1@PEAVCRTransform3@@@Z" ; danim.dll
"?CRTransform@@YAPEAVCRGeometry@@PEAV1@PEAVCRTransform3@@@Z" ; danim.dll
"?CRTransform@@YAPEAVCRImage@@PEAV1@PEAVCRTransform2@@@Z" ; danim.dll
"?CRTransform@@YAPEAVCRMatte@@PEAV1@PEAVCRTransform2@@@Z" ; danim.dll
"?CRTransform@@YAPEAVCRMicrophone@@PEAV1@PEAVCRTransform3@@@Z" ; danim.dll
"?CRTransform@@YAPEAVCRPath2@@PEAV1@PEAVCRTransform2@@@Z" ; danim.dll
"?CRTransform@@YAPEAVCRPoint2@@PEAV1@PEAVCRTransform2@@@Z" ; danim.dll
"?CRTransform@@YAPEAVCRPoint3@@PEAV1@PEAVCRTransform3@@@Z" ; danim.dll
"?CRTransform@@YAPEAVCRVector2@@PEAV1@PEAVCRTransform2@@@Z" ; danim.dll
"?CRTransform@@YAPEAVCRVector3@@PEAV1@PEAVCRTransform3@@@Z" ; danim.dll
"?CRTransformCharacters@@YAPEAVCRFontStyle@@PEAV1@PEAVCRTransform2@@@Z" ; danim.dll
"?CRTransformColorRGB@@YAPEAVCRImage@@PEAV1@PEAVCRTransform3@@@Z" ; danim.dll
"?CRTranslate2@@YAPEAVCRTransform2@@NN@Z" ; danim.dll
"?CRTranslate2@@YAPEAVCRTransform2@@PEAVCRNumber@@0@Z" ; danim.dll
"?CRTranslate2@@YAPEAVCRTransform2@@PEAVCRPoint2@@@Z" ; danim.dll
"?CRTranslate2@@YAPEAVCRTransform2@@PEAVCRVector2@@@Z" ; danim.dll
"?CRTranslate3@@YAPEAVCRTransform3@@NNN@Z" ; danim.dll
"?CRTranslate3@@YAPEAVCRTransform3@@PEAVCRNumber@@00@Z" ; danim.dll
"?CRTranslate3@@YAPEAVCRTransform3@@PEAVCRPoint3@@@Z" ; danim.dll
"?CRTranslate3@@YAPEAVCRTransform3@@PEAVCRVector3@@@Z" ; danim.dll
"?CRTriMesh@@YAPEAVCRGeometry@@AEAVTriMeshData@@@Z" ; danim.dll
"?CRTriggerEvent@@YA_NPEAVCREvent@@PEAVCRBvr@@@Z" ; danim.dll
"?CRTrue@@YAPEAVCRBoolean@@XZ" ; danim.dll
"?CRUnderline@@YAPEAVCRFontStyle@@PEAV1@@Z" ; danim.dll
"?CRUndetectable@@YAPEAVCRGeometry@@PEAV1@@Z" ; danim.dll
"?CRUndetectable@@YAPEAVCRImage@@PEAV1@@Z" ; danim.dll
"?CRUninitializedArray@@YAPEAVCRArray@@PEAV1@@Z" ; danim.dll
"?CRUninitializedBvr@@YAPEAVCRBvr@@W4CR_BVR_TYPEID@@@Z" ; danim.dll
"?CRUninitializedTuple@@YAPEAVCRTuple@@PEAV1@@Z" ; danim.dll
"?CRUnionGeometry@@YAPEAVCRGeometry@@PEAV1@0@Z" ; danim.dll
"?CRUnionGeometry@@YAPEAVCRGeometry@@PEAVCRArray@@@Z" ; danim.dll
"?CRUnionMatte@@YAPEAVCRMatte@@PEAV1@0@Z" ; danim.dll
"?CRUnionMontage@@YAPEAVCRMontage@@PEAV1@0@Z" ; danim.dll
"?CRUnionMontageArray@@YAPEAVCRMontage@@PEAVCRArray@@@Z" ; danim.dll
"?CRUntil@@YAPEAVCRBvr@@PEAV1@PEAVCREvent@@0@Z" ; danim.dll
"?CRUntilEx@@YAPEAVCRBvr@@PEAV1@PEAVCREvent@@@Z" ; danim.dll
"?CRUntilNotify@@YAPEAVCRBvr@@PEAV1@PEAVCREvent@@PEAVCRUntilNotifier@@@Z" ; danim.dll
"?CRVector2Polar@@YAPEAVCRVector2@@NN@Z" ; danim.dll
"?CRVector2Polar@@YAPEAVCRVector2@@PEAVCRNumber@@0@Z" ; danim.dll
"?CRVector3Spherical@@YAPEAVCRVector3@@NNN@Z" ; danim.dll
"?CRVector3Spherical@@YAPEAVCRVector3@@PEAVCRNumber@@00@Z" ; danim.dll
"?CRVersionString@@YAPEBGXZ" ; danim.dll
"?CRViewFrameRate@@YAPEAVCRNumber@@XZ" ; danim.dll
"?CRViewTimeDelta@@YAPEAVCRNumber@@XZ" ; danim.dll
"?CRWeight@@YAPEAVCRFontStyle@@PEAV1@N@Z" ; danim.dll
"?CRWeight@@YAPEAVCRFontStyle@@PEAV1@PEAVCRNumber@@@Z" ; danim.dll
"?CRWhite@@YAPEAVCRColor@@XZ" ; danim.dll
"?CRWidth@@YAPEAVCRLineStyle@@PEAV1@N@Z" ; danim.dll
"?CRWidth@@YAPEAVCRLineStyle@@PEAV1@PEAVCRNumber@@@Z" ; danim.dll
"?CRXShear2@@YAPEAVCRTransform2@@N@Z" ; danim.dll
"?CRXShear2@@YAPEAVCRTransform2@@PEAVCRNumber@@@Z" ; danim.dll
"?CRXShear3@@YAPEAVCRTransform3@@NN@Z" ; danim.dll
"?CRXShear3@@YAPEAVCRTransform3@@PEAVCRNumber@@0@Z" ; danim.dll
"?CRXVector2@@YAPEAVCRVector2@@XZ" ; danim.dll
"?CRXVector3@@YAPEAVCRVector3@@XZ" ; danim.dll
"?CRYShear2@@YAPEAVCRTransform2@@N@Z" ; danim.dll
"?CRYShear2@@YAPEAVCRTransform2@@PEAVCRNumber@@@Z" ; danim.dll
"?CRYShear3@@YAPEAVCRTransform3@@NN@Z" ; danim.dll
"?CRYShear3@@YAPEAVCRTransform3@@PEAVCRNumber@@0@Z" ; danim.dll
"?CRYVector2@@YAPEAVCRVector2@@XZ" ; danim.dll
"?CRYVector3@@YAPEAVCRVector3@@XZ" ; danim.dll
"?CRYellow@@YAPEAVCRColor@@XZ" ; danim.dll
"?CRZShear3@@YAPEAVCRTransform3@@NN@Z" ; danim.dll
"?CRZShear3@@YAPEAVCRTransform3@@PEAVCRNumber@@0@Z" ; danim.dll
"?CRZVector3@@YAPEAVCRVector3@@XZ" ; danim.dll
"?CRZeroVector2@@YAPEAVCRVector2@@XZ" ; danim.dll
"?CRZeroVector3@@YAPEAVCRVector3@@XZ" ; danim.dll
"DllCanUnloadNow" ; danim.dll
"DllGetClassObject" ; danim.dll
"DllRegisterServer" ; danim.dll
"DllUnregisterServer" ; danim.dll
