LIBRARY "dmdskmgr.dll"
EXPORTS
"??0CDataCache@@QEAA@XZ" ; dmdskmgr.dll
"??1CDMNodeObj@@QEAA@XZ" ; dmdskmgr.dll
"??1CDataCache@@UEAA@XZ" ; dmdskmgr.dll
"?AddFileSystemInfoToListAndMap@CDataCache@@QEAAXKPEAUfilesysteminfo@@@Z" ; dmdskmgr.dll
"?AddInstalledFileSystemsToList@CDataCache@@QEAAXKPEAUifilesysteminfo@@@Z" ; dmdskmgr.dll
"?AddLDMObjMapEntry@CDataCache@@QEAAXPEAU_LDM_OBJ_MAP_ENTRY@@@Z" ; dmdskmgr.dll
"?AddRegionToVolumeMemberList@CDataCache@@QEAAXPEAVCDMNodeObj@@@Z" ; dmdskmgr.dll
"?AddRow@CDMComponentData@@QEAAX_J@Z" ; dmdskmgr.dll
"?AdjustRegionCountInLegendList@CDataCache@@QEAAXW4_REGIONTYPE@@H@Z" ; dmdskmgr.dll
"?AdjustVolumeCountInLegendList@CDataCache@@QEAAXW4_VOLUMELAYOUT@@H@Z" ; dmdskmgr.dll
"?CanHaveGPT@CDMNodeObj@@QEAAHXZ" ; dmdskmgr.dll
"?ChangeRow@CDMComponentData@@QEAAX_J@Z" ; dmdskmgr.dll
"?Command@CContextMenu@@QEAAJJPEAUIDataObject@@_J@Z" ; dmdskmgr.dll
"?CompareDiskNames@@YAH_J0@Z" ; dmdskmgr.dll
"?ContainsActivePartition@CDMNodeObj@@QEAAHXZ" ; dmdskmgr.dll
"?ContainsBootIniPartition@CDMNodeObj@@QEAAHXZ" ; dmdskmgr.dll
"?ContainsBootIniPartitionForWolfpack@CDMNodeObj@@QEAAHXZ" ; dmdskmgr.dll
"?ContainsBootVolumesNumberChange@CDMNodeObj@@QEAAH_JPEAH@Z" ; dmdskmgr.dll
"?ContainsESPPartition@CDMNodeObj@@QEAAHXZ" ; dmdskmgr.dll
"?ContainsLogicalDrvBootPartition@CDMNodeObj@@QEAAHXZ" ; dmdskmgr.dll
"?ContainsPageFile@CDMNodeObj@@QEAAHXZ" ; dmdskmgr.dll
"?ContainsRealSystemPartition@CDMNodeObj@@QEAAHXZ" ; dmdskmgr.dll
"?ContainsSubDiskNeedResync@CDMNodeObj@@QEAAHXZ" ; dmdskmgr.dll
"?ContainsSystemInformation@CDMNodeObj@@QEAAHXZ" ; dmdskmgr.dll
"?ContainsSystemPartition@CDMNodeObj@@QEAAHXZ" ; dmdskmgr.dll
"?ConvertBytesToMB@@YAK_J@Z" ; dmdskmgr.dll
"?ConvertMBToBytes@@YA_J_J@Z" ; dmdskmgr.dll
"?CookieSort@@YAXPEA_JJJP6AH_J1@Z@Z" ; dmdskmgr.dll
"?CreateDiskList@CDataCache@@QEAAXXZ" ; dmdskmgr.dll
"?CreateNodeObjAndAddToMap@CDataCache@@QEAAPEAVCDMNodeObj@@HW4_NODEOBJ_TYPES@@PEAV1@PEAX_J@Z" ; dmdskmgr.dll
"?CreateRegionNodeObj@CDataCache@@QEAAPEAVCDMNodeObj@@PEAV2@PEAUregioninfoex@@@Z" ; dmdskmgr.dll
"?CreateShortDiskName@CDataCache@@QEAAXAEAUdiskinfoex@@@Z" ; dmdskmgr.dll
"?CreateVolumeList@CDataCache@@QEAAXXZ" ; dmdskmgr.dll
"?DeleteDiskGroupData@CDataCache@@QEAAXPEAUDISK_GROUP_DATA@@@Z" ; dmdskmgr.dll
"?DeleteEncapsulateData@CDataCache@@QEAAXPEAUENCAPSULATE_DATA@@@Z" ; dmdskmgr.dll
"?DeleteLists@CDataCache@@QEAAXXZ" ; dmdskmgr.dll
"?DeleteRegionFromVolumeMemberList@CDataCache@@QEAAXPEAVCDMNodeObj@@@Z" ; dmdskmgr.dll
"?DeleteRow@CDMComponentData@@QEAAX_J@Z" ; dmdskmgr.dll
"?DoDelete@CContextMenu@@QEAAX_J@Z" ; dmdskmgr.dll
"?EmptyOcxViewData@CDMComponentData@@QEAAXXZ" ; dmdskmgr.dll
"?EnhancedIsUpgradeable@CDMNodeObj@@QEAAHPEAVCTaskData@@@Z" ; dmdskmgr.dll
"?EnumDiskRegions@CDMNodeObj@@QEAAXPEAPEA_JAEAJ@Z" ; dmdskmgr.dll
"?EnumDisks@CTaskData@@QEAAXAEAKPEAPEA_J@Z" ; dmdskmgr.dll
"?EnumFirstVolumeMember@CDMNodeObj@@QEAAXAEA_JAEAJ@Z" ; dmdskmgr.dll
"?EnumNTFSwithDriveLetter@CDataCache@@QEAAXPEAHPEAPEAG@Z" ; dmdskmgr.dll
"?EnumNTFSwithDriveLetter@CTaskData@@QEAAXPEAHPEAPEAG@Z" ; dmdskmgr.dll
"?EnumVolumeMembers@CDMNodeObj@@QEAAXPEAPEA_JAEAJ@Z" ; dmdskmgr.dll
"?EnumVolumes@CTaskData@@QEAAXAEAKPEAPEA_J@Z" ; dmdskmgr.dll
"?FillDeviceInstanceId@CDataCache@@QEAAXPEAG0@Z" ; dmdskmgr.dll
"?FilterCookiesBigEnoughForFTRepair@CTaskData@@QEAAXAEAKPEA_JPEAPEA_JJPEAVCDMNodeObj@@@Z" ; dmdskmgr.dll
"?FilterCookiesBigEnoughForRAID5Repair@CTaskData@@QEAAXAEAKPEA_JPEAPEA_JJPEAVCDMNodeObj@@@Z" ; dmdskmgr.dll
"?FindCookieAndRemoveFromList@CDataCache@@QEAAH_JPEAV?$CList@PEAVCDMNodeObj@@PEAV1@@@@Z" ; dmdskmgr.dll
"?FindDeviceInstanceId@CDataCache@@QEAAPEAG_J@Z" ; dmdskmgr.dll
"?FindDiskPtrFromDiskId@CDataCache@@QEAAH_JPEAPEAVCDMNodeObj@@@Z" ; dmdskmgr.dll
"?FindDriveLetter@CDataCache@@QEAAH_JAEAG@Z" ; dmdskmgr.dll
"?FindDriveLetter@CTaskData@@QEAAX_JAEAG@Z" ; dmdskmgr.dll
"?FindDriveLetterHelper@@YAHPEAUdriveletterinfo@@H_JAEAG@Z" ; dmdskmgr.dll
"?FindFileSystem@CDataCache@@QEAAH_JAEAUfilesysteminfo@@@Z" ; dmdskmgr.dll
"?FindFileSystem@CTaskData@@QEAAH_JAEAUfilesysteminfo@@@Z" ; dmdskmgr.dll
"?FindRegionPtrFromRegionId@CDataCache@@QEAAH_JPEAPEAVCDMNodeObj@@@Z" ; dmdskmgr.dll
"?FindRegionPtrFromRegionId@CTaskData@@QEAAH_JPEAPEAVCDMNodeObj@@@Z" ; dmdskmgr.dll
"?FindRegionPtrOnDiskFromRegionId@CDataCache@@QEAAHPEAVCDMNodeObj@@_JPEAPEAV2@AEAPEAU__POSITION@@@Z" ; dmdskmgr.dll
"?GetAssignedDriveLetter@CTaskData@@QEAAH_JAEAG@Z" ; dmdskmgr.dll
"?GetBootPort@CTaskData@@QEAAHXZ" ; dmdskmgr.dll
"?GetBottomViewStyle@CDMSnapin@@QEAAHXZ" ; dmdskmgr.dll
"?GetColorRef@CDMNodeObj@@QEAAKXZ" ; dmdskmgr.dll
"?GetDMDataObjPtrFromId@CTaskData@@QEAAPEAVCDMNodeObj@@_J@Z" ; dmdskmgr.dll
"?GetDeviceState@CDMNodeObj@@QEAAKXZ" ; dmdskmgr.dll
"?GetDeviceType@CDMNodeObj@@QEAAKXZ" ; dmdskmgr.dll
"?GetDiskCookies@CDataCache@@IEAAXAEAKPEAPEA_J@Z" ; dmdskmgr.dll
"?GetDiskCookies@CTaskData@@QEAAXAEAKPEAPEA_JHKH@Z" ; dmdskmgr.dll
"?GetDiskCookiesForSig@CTaskData@@QEAAXAEAKPEAPEA_J@Z" ; dmdskmgr.dll
"?GetDiskCookiesForUpgrade@CTaskData@@QEAAXAEAKPEAPEA_J@Z" ; dmdskmgr.dll
"?GetDiskCookiesToEncap@CTaskData@@QEAAXAEAKPEAPEA_J@Z" ; dmdskmgr.dll
"?GetDiskCount@CDataCache@@QEAAKXZ" ; dmdskmgr.dll
"?GetDiskInfo@CDMNodeObj@@QEAAHAEAUdiskinfoex@@@Z" ; dmdskmgr.dll
"?GetDiskInfoFromVolCookie@CTaskData@@QEAAX_JAEAHAEAKPEAPEA_JKH@Z" ; dmdskmgr.dll
"?GetDiskScaling@CDMSnapin@@QEAAHXZ" ; dmdskmgr.dll
"?GetDiskSpec@CDMNodeObj@@QEAAHAEAUdiskspec@@@Z" ; dmdskmgr.dll
"?GetDiskStatus@CDMNodeObj@@QEAAHAEAVCString@@@Z" ; dmdskmgr.dll
"?GetDiskStatusHelper@@YAHPEAUdiskinfoex@@AEAVCString@@H@Z" ; dmdskmgr.dll
"?GetDiskTypeName@CDMNodeObj@@QEAAXAEAVCString@@@Z" ; dmdskmgr.dll
"?GetDiskTypeNameHelper@@YAXPEAUdiskinfoex@@AEAVCString@@G@Z" ; dmdskmgr.dll
"?GetDriveLetter@CDMNodeObj@@QEAAXAEAG@Z" ; dmdskmgr.dll
"?GetDriveLetters@CDataCache@@IEAAXAEAFPEAPEAGG@Z" ; dmdskmgr.dll
"?GetDriveLetters@CTaskData@@QEAAXAEAFPEAPEAGG@Z" ; dmdskmgr.dll
"?GetExtendedRegionColor@CDMNodeObj@@QEAAKXZ" ; dmdskmgr.dll
"?GetExtraRegionStatus@CDMNodeObj@@QEAAHAEAVCString@@H@Z" ; dmdskmgr.dll
"?GetFileSystemLabel@CDMNodeObj@@QEAAXAEAVCString@@@Z" ; dmdskmgr.dll
"?GetFileSystemName@CDMNodeObj@@QEAAXAEAVCString@@@Z" ; dmdskmgr.dll
"?GetFileSystemSize@CDMNodeObj@@QEAAXAEAJ@Z" ; dmdskmgr.dll
"?GetFileSystemType@CDMNodeObj@@QEAAHXZ" ; dmdskmgr.dll
"?GetFileSystemTypes@CDataCache@@QEAAXAEAKPEAPEAUifilesysteminfo@@@Z" ; dmdskmgr.dll
"?GetFileSystemTypes@CTaskData@@QEAAXAEAKPEAPEAUifilesysteminfo@@@Z" ; dmdskmgr.dll
"?GetFilterToggle@CDMSnapin@@QEAAHXZ" ; dmdskmgr.dll
"?GetFlags@CDMNodeObj@@QEAAJXZ" ; dmdskmgr.dll
"?GetIVolumeClientVersion@CDMNodeObj@@QEAAFXZ" ; dmdskmgr.dll
"?GetIVolumeClientVersion@CTaskData@@QEAAFXZ" ; dmdskmgr.dll
"?GetIconId@CDMNodeObj@@QEAAIH@Z" ; dmdskmgr.dll
"?GetImageNum@CDMNodeObj@@QEAAHXZ" ; dmdskmgr.dll
"?GetLastKnownState@CDataCache@@QEAA_J_J@Z" ; dmdskmgr.dll
"?GetLayoutType@CDMNodeObj@@QEAA?AW4_LAYOUT_TYPES@@XZ" ; dmdskmgr.dll
"?GetLdmObjectId@CDMNodeObj@@QEAA_JXZ" ; dmdskmgr.dll
"?GetListBehavior@CDMSnapin@@QEAAHXZ" ; dmdskmgr.dll
"?GetLogicalDriveCount@CDMNodeObj@@QEAAKXZ" ; dmdskmgr.dll
"?GetLongName@CDMNodeObj@@QEAAXAEAVCString@@H@Z" ; dmdskmgr.dll
"?GetMMCWindow@CDMComponentData@@QEAAPEAUHWND__@@XZ" ; dmdskmgr.dll
"?GetMaxAdjustedFreeSize@CDMNodeObj@@QEAAXAEA_J@Z" ; dmdskmgr.dll
"?GetMaxPartitionCount@CDMNodeObj@@QEAAKXZ" ; dmdskmgr.dll
"?GetMinMaxPartitionSizes@CDataCache@@IEAAX_JAEAK1@Z" ; dmdskmgr.dll
"?GetMinMaxPartitionSizes@CTaskData@@QEAAX_JAEAK1@Z" ; dmdskmgr.dll
"?GetName@CDMNodeObj@@QEAAXAEAVCString@@@Z" ; dmdskmgr.dll
"?GetNumMembers@CDMNodeObj@@QEAAKXZ" ; dmdskmgr.dll
"?GetNumRegions@CDMNodeObj@@QEAAKXZ" ; dmdskmgr.dll
"?GetObjectId@CDMNodeObj@@QEAAXAEA_J@Z" ; dmdskmgr.dll
"?GetOcxFrameCWndPtr@CTaskData@@QEAAPEAVCWnd@@XZ" ; dmdskmgr.dll
"?GetParentDiskPtr@CDMNodeObj@@QEAAPEAV1@XZ" ; dmdskmgr.dll
"?GetParentVolumePtr@CDMNodeObj@@QEAAPEAV1@XZ" ; dmdskmgr.dll
"?GetPartitionStyle@CDMNodeObj@@QEAA?AW4_PARTITIONSTYLE@@XZ" ; dmdskmgr.dll
"?GetPartitionStyleString@CDMNodeObj@@QEAAXAEAVCString@@H@Z" ; dmdskmgr.dll
"?GetPartitionStyleStringHelper@@YAXW4_PARTITIONSTYLE@@AEAVCString@@HKKH@Z" ; dmdskmgr.dll
"?GetPatternRef@CDMNodeObj@@QEAAHXZ" ; dmdskmgr.dll
"?GetPort@CDMNodeObj@@QEAAHXZ" ; dmdskmgr.dll
"?GetPrimaryPartitionCount@CDMNodeObj@@QEAAKXZ" ; dmdskmgr.dll
"?GetRegionColorStructPtr@CTaskData@@QEAAXPEAPEAU_REGION_COLORS@@AEAH@Z" ; dmdskmgr.dll
"?GetRegionInfo@CDMNodeObj@@QEAAHAEAUregioninfoex@@@Z" ; dmdskmgr.dll
"?GetRegionScaling@CDMSnapin@@QEAAHXZ" ; dmdskmgr.dll
"?GetResultStringArray@CDMNodeObj@@QEAAHAEAVCStringArray@@@Z" ; dmdskmgr.dll
"?GetRevertDiskName@CServerRequests@@QEAAAEAVCString@@XZ" ; dmdskmgr.dll
"?GetServerName@CDataCache@@QEAA?AVCString@@XZ" ; dmdskmgr.dll
"?GetServerName@CTaskData@@QEAA?AVCString@@XZ" ; dmdskmgr.dll
"?GetShortName@CDMNodeObj@@QEAAXAEAVCString@@@Z" ; dmdskmgr.dll
"?GetSize@CDMNodeObj@@QEAAXAEAJ@Z" ; dmdskmgr.dll
"?GetSize@CDMNodeObj@@QEAAXAEA_JH@Z" ; dmdskmgr.dll
"?GetSizeString@CDMNodeObj@@QEAAXAEAVCString@@@Z" ; dmdskmgr.dll
"?GetStartOffset@CDMNodeObj@@QEAA_JXZ" ; dmdskmgr.dll
"?GetStatus@CDMNodeObj@@QEAAHXZ" ; dmdskmgr.dll
"?GetStorageType@CDMNodeObj@@QEAA?AW4_STORAGE_TYPES@@XZ" ; dmdskmgr.dll
"?GetStorageType@CDMNodeObj@@QEAAXAEAVCString@@H@Z" ; dmdskmgr.dll
"?GetStringFromRc@@YA?AVCString@@K@Z" ; dmdskmgr.dll
"?GetTopViewStyle@CDMSnapin@@QEAAHXZ" ; dmdskmgr.dll
"?GetUIState@CTaskData@@QEAAKXZ" ; dmdskmgr.dll
"?GetUnallocSpace@CDMNodeObj@@QEAA_JH@Z" ; dmdskmgr.dll
"?GetVolumeCookies@CDataCache@@IEAAXAEAKPEAPEA_J@Z" ; dmdskmgr.dll
"?GetVolumeCount@CDataCache@@QEAAKXZ" ; dmdskmgr.dll
"?GetVolumeInfo@CDMNodeObj@@QEAAHAEAUvolumeinfo@@@Z" ; dmdskmgr.dll
"?GetVolumeStatus@CDMNodeObj@@QEAAHAEAVCString@@@Z" ; dmdskmgr.dll
"?GetWaitCursor@CDMSnapin@@QEAAHXZ" ; dmdskmgr.dll
"?HasExtendedPartition@CDMNodeObj@@QEAAHXZ" ; dmdskmgr.dll
"?HasNTFSwithDriveLetter@CDataCache@@QEAAHXZ" ; dmdskmgr.dll
"?HasNTFSwithDriveLetter@CTaskData@@QEAAHXZ" ; dmdskmgr.dll
"?HasVMDisk@CDataCache@@QEAAHXZ" ; dmdskmgr.dll
"?IsActive@CDMNodeObj@@QEAAHXZ" ; dmdskmgr.dll
"?IsAlpha@CDataCache@@QEAAHXZ" ; dmdskmgr.dll
"?IsAlpha@CTaskData@@QEAAHXZ" ; dmdskmgr.dll
"?IsCurrBootVolume@CDMNodeObj@@QEAAHXZ" ; dmdskmgr.dll
"?IsCurrSystemVolume@CDMNodeObj@@QEAAHXZ" ; dmdskmgr.dll
"?IsDiskEmpty@CDMNodeObj@@QEAAHXZ" ; dmdskmgr.dll
"?IsDynamic1394@CDataCache@@QEAAHXZ" ; dmdskmgr.dll
"?IsEECoveredGPTDisk@CDMNodeObj@@QEAAHXZ" ; dmdskmgr.dll
"?IsESPPartition@CDMNodeObj@@QEAAHXZ" ; dmdskmgr.dll
"?IsEfi@CDataCache@@QEAAHXZ" ; dmdskmgr.dll
"?IsEfi@CTaskData@@QEAAHXZ" ; dmdskmgr.dll
"?IsFTVolume@CDMNodeObj@@QEAAHXZ" ; dmdskmgr.dll
"?IsFakeVolume@CDMNodeObj@@QEAAHXZ" ; dmdskmgr.dll
"?IsFirstFreeRegion@CDMNodeObj@@QEAAHXZ" ; dmdskmgr.dll
"?IsHiddenRegion@@YAHAEAUregioninfoex@@@Z" ; dmdskmgr.dll
"?IsHiddenRegion@CDMNodeObj@@QEAAHXZ" ; dmdskmgr.dll
"?IsInFlux@CDMNodeObj@@QEAAHXZ" ; dmdskmgr.dll
"?IsLocalMachine@CTaskData@@QEAAHXZ" ; dmdskmgr.dll
"?IsMbrEEPartition@@YAHAEAUregioninfoex@@@Z" ; dmdskmgr.dll
"?IsMbrEEPartition@CDMNodeObj@@QEAAHXZ" ; dmdskmgr.dll
"?IsMember@CDMNodeObj@@QEAAHPEAV1@@Z" ; dmdskmgr.dll
"?IsNEC_98Disk@CDMNodeObj@@QEAAHXZ" ; dmdskmgr.dll
"?IsNEC_98Server@CDataCache@@QEAAHXZ" ; dmdskmgr.dll
"?IsNEC_98Server@CTaskData@@QEAAHXZ" ; dmdskmgr.dll
"?IsNTServer@CTaskData@@QEAAHXZ" ; dmdskmgr.dll
"?IsOemPartition@CDMNodeObj@@QEAAHXZ" ; dmdskmgr.dll
"?IsPersonalOrLapTopServer@CDataCache@@QEAAHXZ" ; dmdskmgr.dll
"?IsRevertable@CDMNodeObj@@QEAAHXZ" ; dmdskmgr.dll
"?IsSecureSystemPartition@CTaskData@@QEAAHXZ" ; dmdskmgr.dll
"?IsUnknownPartition@CDMNodeObj@@QEAAHXZ" ; dmdskmgr.dll
"?IsUpgradeable@CDMNodeObj@@QEAAHXZ" ; dmdskmgr.dll
"?IsWolfpack@CTaskData@@QEAAHXZ" ; dmdskmgr.dll
"?LoadData@CDMComponentData@@QEAAXJ@Z" ; dmdskmgr.dll
"?ParseDeviceName@@YAXPEAH00PEAG@Z" ; dmdskmgr.dll
"?PopUpInit@CContextMenu@@QEAAXPEAVCDMNodeObj@@AEAHH@Z" ; dmdskmgr.dll
"?PopulateDiskGroupData@CDataCache@@QEAAXPEAUDISK_GROUP_DATA@@@Z" ; dmdskmgr.dll
"?PopulateEncapsulateData@CDataCache@@QEAAXPEAUENCAPSULATE_DATA@@@Z" ; dmdskmgr.dll
"?RecalculateSpace@CDMNodeObj@@QEAAXXZ" ; dmdskmgr.dll
"?RefreshDiskView@CDMComponentData@@QEAAXXZ" ; dmdskmgr.dll
"?RefreshFileSys@CContextMenu@@QEAAX_J@Z" ; dmdskmgr.dll
"?ReloadData@CDMComponentData@@QEAAXXZ" ; dmdskmgr.dll
"?RoundUpToMB@@YA_J_J@Z" ; dmdskmgr.dll
"?SetDescriptionBarText@CDMSnapin@@QEAAXXZ" ; dmdskmgr.dll
"?SetDiskList@CDataCache@@QEAAXPEAUdiskinfoex@@K@Z" ; dmdskmgr.dll
"?SetDriveLetterInUse@CDataCache@@QEAAXGH@Z" ; dmdskmgr.dll
"?SetFSId@CDMNodeObj@@QEAAX_J@Z" ; dmdskmgr.dll
"?SetOcxViewType@CDMComponentData@@QEAAXXZ" ; dmdskmgr.dll
"?SetOcxViewTypeForce@CDMComponentData@@QEAAXXZ" ; dmdskmgr.dll
"?SetUIState@CTaskData@@QEAAXK@Z" ; dmdskmgr.dll
"?SetVolumeList@CDataCache@@QEAAXPEAUvolumeinfo@@K@Z" ; dmdskmgr.dll
"?ShowContextMenu@CContextMenu@@QEAAJPEAVCWnd@@JJ_J@Z" ; dmdskmgr.dll
"?SupportGpt@CDataCache@@QEAAHXZ" ; dmdskmgr.dll
"?SupportGpt@CTaskData@@QEAAHXZ" ; dmdskmgr.dll
"?UIStateChange@CDMComponentData@@QEAAXK@Z" ; dmdskmgr.dll
"?UpDateConsoleView@CDMSnapin@@QEAAXXZ" ; dmdskmgr.dll
"?VolumeContainsActiveRegion@CDMNodeObj@@QEAAHXZ" ; dmdskmgr.dll
"?namecmp@@YAHPEBG0@Z" ; dmdskmgr.dll
"DllCanUnloadNow" ; dmdskmgr.dll
"DllGetClassObject" ; dmdskmgr.dll
"DllRegisterServer" ; dmdskmgr.dll
"GetPropertyPageData" ; dmdskmgr.dll
"IsFailPopupMgmtSupported" ; dmdskmgr.dll
"IsRequestPending" ; dmdskmgr.dll
"LoadPropertyPageData" ; dmdskmgr.dll
