LIBRARY "ifsutil.dll"
EXPORTS
"??0CANNED_SECURITY@@QEAA@XZ" ; ifsutil.dll
"??0DIGRAPH@@QEAA@XZ" ; ifsutil.dll
"??0DIGRAPH_EDGE@@QEAA@XZ" ; ifsutil.dll
"??0DP_DRIVE@@QEAA@XZ" ; ifsutil.dll
"??0INTSTACK@@QEAA@XZ" ; ifsutil.dll
"??0LOG_IO_DP_DRIVE@@QEAA@XZ" ; ifsutil.dll
"??0MOUNT_POINT_MAP@@QEAA@XZ" ; ifsutil.dll
"??0MOUNT_POINT_TUPLE@@QEAA@XZ" ; ifsutil.dll
"??0NUMBER_SET@@QEAA@XZ" ; ifsutil.dll
"??0READ_CACHE@@QEAA@XZ" ; ifsutil.dll
"??0READ_WRITE_CACHE@@QEAA@XZ" ; ifsutil.dll
"??0SECRUN@@QEAA@XZ" ; ifsutil.dll
"??0SNAPSHOT@@AEAA@XZ" ; ifsutil.dll
"??0SPARSE_SET@@QEAA@XZ" ; ifsutil.dll
"??0SUPERAREA@@IEAA@XZ" ; ifsutil.dll
"??0TLINK@@QEAA@XZ" ; ifsutil.dll
"??0VOL_LIODPDRV@@IEAA@XZ" ; ifsutil.dll
"??1CANNED_SECURITY@@UEAA@XZ" ; ifsutil.dll
"??1DIGRAPH@@UEAA@XZ" ; ifsutil.dll
"??1DP_DRIVE@@UEAA@XZ" ; ifsutil.dll
"??1INTSTACK@@UEAA@XZ" ; ifsutil.dll
"??1LOG_IO_DP_DRIVE@@UEAA@XZ" ; ifsutil.dll
"??1MOUNT_POINT_MAP@@UEAA@XZ" ; ifsutil.dll
"??1NUMBER_SET@@UEAA@XZ" ; ifsutil.dll
"??1SECRUN@@UEAA@XZ" ; ifsutil.dll
"??1SNAPSHOT@@EEAA@XZ" ; ifsutil.dll
"??1SPARSE_SET@@UEAA@XZ" ; ifsutil.dll
"??1SUPERAREA@@UEAA@XZ" ; ifsutil.dll
"??1TLINK@@UEAA@XZ" ; ifsutil.dll
"??1VOL_LIODPDRV@@UEAA@XZ" ; ifsutil.dll
"?Add@NUMBER_SET@@QEAAEPEBV1@@Z" ; ifsutil.dll
"?Add@NUMBER_SET@@QEAAEVBIG_INT@@0@Z" ; ifsutil.dll
"?Add@NUMBER_SET@@QEAAEVBIG_INT@@@Z" ; ifsutil.dll
"?AddDriveName@MOUNT_POINT_MAP@@QEAAEPEAVWSTRING@@0@Z" ; ifsutil.dll
"?AddEdge@DIGRAPH@@QEAAEKK@Z" ; ifsutil.dll
"?AddEntry@AUTOREG@@SAEPEBVWSTRING@@@Z" ; ifsutil.dll
"?AddNext@NUMBER_SET@@QEAAEVBIG_INT@@@Z" ; ifsutil.dll
"?AddStart@NUMBER_SET@@QEAAEVBIG_INT@@@Z" ; ifsutil.dll
"?AddVolumeName@MOUNT_POINT_MAP@@QEAAEPEAVWSTRING@@0@Z" ; ifsutil.dll
"?CheckAndAdd@NUMBER_SET@@QEAAEVBIG_INT@@PEAE@Z" ; ifsutil.dll
"?CheckAndAdd@SPARSE_SET@@QEAAEVBIG_INT@@PEAE@Z" ; ifsutil.dll
"?CheckAndRemove@NUMBER_SET@@QEAAEVBIG_INT@@PEAE@Z" ; ifsutil.dll
"?CheckAndRemove@SPARSE_SET@@QEAAEVBIG_INT@@PEAE@Z" ; ifsutil.dll
"?CheckSnapshotPresence@SNAPSHOT@@QEAAEXZ" ; ifsutil.dll
"?CheckValidSecurityDescriptor@IFS_SYSTEM@@SAEKPEAU_SECURITY_DESCRIPTOR@@@Z" ; ifsutil.dll
"?ChkDsk@VOL_LIODPDRV@@QEAAEW4FIX_LEVEL@@PEAVMESSAGE@@KKGPEAKPEBVWSTRING@@@Z" ; ifsutil.dll
"?CloseDriveHandle@DP_DRIVE@@QEAAXXZ" ; ifsutil.dll
"?ComputeVolId@SUPERAREA@@SAKK@Z" ; ifsutil.dll
"?DeleteEntry@AUTOREG@@SAEPEBVWSTRING@@0@Z" ; ifsutil.dll
"?DeleteEntry@AUTOREG@@SAEPEBVWSTRING@@E@Z" ; ifsutil.dll
"?DiskCopyMainLoop@@YAHPEBVWSTRING@@000EPEAVMESSAGE@@1@Z" ; ifsutil.dll
"?DismountAndLock@IO_DP_DRIVE@@QEAAEXZ" ; ifsutil.dll
"?DismountVolume@IFS_SYSTEM@@SAEPEBVWSTRING@@@Z" ; ifsutil.dll
"?DoesIntersectSet@NUMBER_SET@@QEBAEVBIG_INT@@0@Z" ; ifsutil.dll
"?DosDriveNameToNtDriveName@IFS_SYSTEM@@SAEPEBVWSTRING@@PEAV2@@Z" ; ifsutil.dll
"?DumpHashTable@SPARSE_SET@@QEAAXXZ" ; ifsutil.dll
"?EliminateCycles@DIGRAPH@@QEAAEPEAVCONTAINER@@PEAE@Z" ; ifsutil.dll
"?EnableFileSystem@IFS_SYSTEM@@SAEPEBVWSTRING@@@Z" ; ifsutil.dll
"?EnableVolumeCompression@IFS_SYSTEM@@SAEPEBVWSTRING@@@Z" ; ifsutil.dll
"?EnableVolumeUpgrade@IFS_SYSTEM@@SAEPEBVWSTRING@@@Z" ; ifsutil.dll
"?FileSetAttributes@IFS_SYSTEM@@SAEPEBVWSTRING@@KPEAK@Z" ; ifsutil.dll
"?FlushCache@IO_DP_DRIVE@@QEAAEXZ" ; ifsutil.dll
"?ForceAutochk@VOL_LIODPDRV@@QEAAEEKKGPEBVWSTRING@@@Z" ; ifsutil.dll
"?Format@VOL_LIODPDRV@@QEAA?AW4FORMAT_ERROR_CODE@@PEBVWSTRING@@PEAVMESSAGE@@KKK@Z" ; ifsutil.dll
"?GenerateLabelNotification@SUPERAREA@@SAJPEBVWSTRING@@PEAV2@PEAU_FILE_FS_SIZE_INFORMATION@@PEAU_FILE_FS_VOLUME_INFORMATION@@@Z" ; ifsutil.dll
"?GetAt@MOUNT_POINT_MAP@@QEAAEKPEAVWSTRING@@0@Z" ; ifsutil.dll
"?GetBuffer@TLINK@@QEAAPEAXPEAX@Z" ; ifsutil.dll
"?GetCannedSecurity@IFS_SYSTEM@@SAPEAVCANNED_SECURITY@@XZ" ; ifsutil.dll
"?GetCannedSecurityDescriptor@CANNED_SECURITY@@QEAAPEAXW4_CANNED_SECURITY_TYPE@@PEAK@Z" ; ifsutil.dll
"?GetData@TLINK@@QEAAAEAVBIG_INT@@G@Z" ; ifsutil.dll
"?GetData@TLINK@@QEAAAEAVBIG_INT@@PEAX@Z" ; ifsutil.dll
"?GetDrive@SECRUN@@QEAAPEAVIO_DP_DRIVE@@XZ" ; ifsutil.dll
"?GetDrive@SUPERAREA@@QEAAPEAVIO_DP_DRIVE@@XZ" ; ifsutil.dll
"?GetFirst@TLINK@@QEAAPEAXXZ" ; ifsutil.dll
"?GetMessageW@IO_DP_DRIVE@@QEAAPEAVMESSAGE@@XZ" ; ifsutil.dll
"?GetMessageW@SUPERAREA@@QEAAPEAVMESSAGE@@XZ" ; ifsutil.dll
"?GetNext@TLINK@@QEAAPEAXPEAX@Z" ; ifsutil.dll
"?GetNextDataSlot@TLINK@@QEAAAEAVBIG_INT@@XZ" ; ifsutil.dll
"?GetSnapshotGlobalDeviceName@SNAPSHOT@@QEAAPEAGXZ" ; ifsutil.dll
"?GetSnapshotNtDeviceName@SNAPSHOT@@QEAAPEAGXZ" ; ifsutil.dll
"?GetSortedFirst@TLINK@@QEAAPEAXXZ" ; ifsutil.dll
"?GetSortedNext@TLINK@@QEAAPEAXPEAX@Z" ; ifsutil.dll
"?GetVolumeSnapshot@SNAPSHOT@@SAEPEAVWSTRING@@PEAPEAV1@@Z" ; ifsutil.dll
"?Initialize@CANNED_SECURITY@@QEAAEXZ" ; ifsutil.dll
"?Initialize@DIGRAPH@@QEAAEK@Z" ; ifsutil.dll
"?Initialize@DP_DRIVE@@QEAAEPEBVWSTRING@@0PEAVMESSAGE@@EE@Z" ; ifsutil.dll
"?Initialize@DP_DRIVE@@QEAAEPEBVWSTRING@@PEAVMESSAGE@@EEG@Z" ; ifsutil.dll
"?Initialize@INTSTACK@@QEAAEXZ" ; ifsutil.dll
"?Initialize@LOG_IO_DP_DRIVE@@QEAAEPEBVWSTRING@@0PEAVMESSAGE@@E@Z" ; ifsutil.dll
"?Initialize@LOG_IO_DP_DRIVE@@QEAAEPEBVWSTRING@@PEAVMESSAGE@@EG@Z" ; ifsutil.dll
"?Initialize@MOUNT_POINT_MAP@@QEAAEXZ" ; ifsutil.dll
"?Initialize@NUMBER_SET@@QEAAEXZ" ; ifsutil.dll
"?Initialize@READ_CACHE@@QEAAEPEAVIO_DP_DRIVE@@K@Z" ; ifsutil.dll
"?Initialize@READ_WRITE_CACHE@@QEAAEPEAVIO_DP_DRIVE@@K@Z" ; ifsutil.dll
"?Initialize@SECRUN@@QEAAEPEAVMEM@@PEAVIO_DP_DRIVE@@VBIG_INT@@K@Z" ; ifsutil.dll
"?Initialize@SNAPSHOT@@AEAAJPEAG@Z" ; ifsutil.dll
"?Initialize@SPARSE_SET@@QEAAEXZ" ; ifsutil.dll
"?Initialize@SUPERAREA@@IEAAEPEAVMEM@@PEAVLOG_IO_DP_DRIVE@@KPEAVMESSAGE@@@Z" ; ifsutil.dll
"?Initialize@TLINK@@QEAAEG@Z" ; ifsutil.dll
"?Initialize@VOL_LIODPDRV@@IEAA?AW4FORMAT_ERROR_CODE@@PEBVWSTRING@@PEAVSUPERAREA@@PEAVMESSAGE@@EEW4_MEDIA_TYPE@@GE@Z" ; ifsutil.dll
"?Initialize@VOL_LIODPDRV@@IEAAEPEBVWSTRING@@0PEAVSUPERAREA@@PEAVMESSAGE@@E@Z" ; ifsutil.dll
"?InvalidateVolume@IO_DP_DRIVE@@QEAAEXZ" ; ifsutil.dll
"?IsArcSystemPartition@IFS_SYSTEM@@SAEPEBVWSTRING@@PEAE@Z" ; ifsutil.dll
"?IsEntryPresent@AUTOREG@@SAEPEBVWSTRING@@0@Z" ; ifsutil.dll
"?IsEntryPresent@AUTOREG@@SAEPEBVWSTRING@@@Z" ; ifsutil.dll
"?IsFileSystemEnabled@IFS_SYSTEM@@SAEPEBVWSTRING@@PEAE@Z" ; ifsutil.dll
"?IsFrontEndPresent@AUTOREG@@SAEPEBVWSTRING@@0@Z" ; ifsutil.dll
"?IsThisNtfs@IFS_SYSTEM@@SAEVBIG_INT@@KPEAX@Z" ; ifsutil.dll
"?IsVolumeDirty@IFS_SYSTEM@@SAEPEAVWSTRING@@PEAE@Z" ; ifsutil.dll
"?Lock@IO_DP_DRIVE@@QEAAEXZ" ; ifsutil.dll
"?Look@INTSTACK@@QEBA?AVBIG_INT@@K@Z" ; ifsutil.dll
"?NtDriveNameToDosDriveName@IFS_SYSTEM@@SAEPEBVWSTRING@@PEAV2@@Z" ; ifsutil.dll
"?Pop@INTSTACK@@QEAAXK@Z" ; ifsutil.dll
"?Push@INTSTACK@@QEAAEVBIG_INT@@@Z" ; ifsutil.dll
"?PushEntry@AUTOREG@@SAEPEBVWSTRING@@@Z" ; ifsutil.dll
"?QueryAutochkTimeOut@VOL_LIODPDRV@@SAEPEAK@Z" ; ifsutil.dll
"?QueryCanonicalNtDriveName@IFS_SYSTEM@@SAEPEBVWSTRING@@PEAV2@@Z" ; ifsutil.dll
"?QueryChildren@DIGRAPH@@QEBAEKPEAVNUMBER_SET@@@Z" ; ifsutil.dll
"?QueryCompressedInteger@BIG_INT@@QEBAXPEAE0@Z" ; ifsutil.dll
"?QueryContainingRange@NUMBER_SET@@QEBAEVBIG_INT@@PEAV2@1@Z" ; ifsutil.dll
"?QueryDisjointRange@NUMBER_SET@@QEBAXKPEAVBIG_INT@@0@Z" ; ifsutil.dll
"?QueryDisjointRangeAndAssignBuffer@TLINK@@QEAAPEAXPEAVBIG_INT@@PEAG1PEAXK2@Z" ; ifsutil.dll
"?QueryDriveHandle@DP_DRIVE@@QEBAPEAXXZ" ; ifsutil.dll
"?QueryDriveName@MOUNT_POINT_MAP@@QEAAEPEAVWSTRING@@0@Z" ; ifsutil.dll
"?QueryDriveType@DP_DRIVE@@QEBA?AW4DRIVE_TYPE@@XZ" ; ifsutil.dll
"?QueryFileSystemName@IFS_SYSTEM@@SAEPEBVWSTRING@@PEAV2@PEAJ1@Z" ; ifsutil.dll
"?QueryFreeDiskSpace@IFS_SYSTEM@@SAEPEBVWSTRING@@PEAVBIG_INT@@@Z" ; ifsutil.dll
"?QueryMachineUniqueToken@@YAKXZ" ; ifsutil.dll
"?QueryMediaByte@DP_DRIVE@@QEBAEXZ" ; ifsutil.dll
"?QueryMemberCount@TLINK@@QEBAGXZ" ; ifsutil.dll
"?QueryMrwSupport@DP_DRIVE@@SAEPEAX@Z" ; ifsutil.dll
"?QueryNtfsSupportInfo@DP_DRIVE@@SAJPEAXPEAE@Z" ; ifsutil.dll
"?QueryNtfsTime@IFS_SYSTEM@@SAXPEAT_LARGE_INTEGER@@@Z" ; ifsutil.dll
"?QueryNtfsVersion@IFS_SYSTEM@@SAEPEAE0PEAVLOG_IO_DP_DRIVE@@PEAX@Z" ; ifsutil.dll
"?QueryNumber@NUMBER_SET@@QEBA?AVBIG_INT@@V2@@Z" ; ifsutil.dll
"?QueryPageSize@IFS_SYSTEM@@SAKXZ" ; ifsutil.dll
"?QueryParents@DIGRAPH@@QEBAEKPEAVNUMBER_SET@@@Z" ; ifsutil.dll
"?QueryParentsWithChildren@DIGRAPH@@QEBAEPEAVNUMBER_SET@@K@Z" ; ifsutil.dll
"?QueryRecommendedMediaType@DP_DRIVE@@QEBA?AW4_MEDIA_TYPE@@XZ" ; ifsutil.dll
"?QuerySectorSize@DP_DRIVE@@UEBAKXZ" ; ifsutil.dll
"?QuerySectors@DP_DRIVE@@UEBA?AVBIG_INT@@XZ" ; ifsutil.dll
"?QuerySize@TLINK@@QEBAGXZ" ; ifsutil.dll
"?QueryVolumeName@MOUNT_POINT_MAP@@QEAAEPEAVWSTRING@@0@Z" ; ifsutil.dll
"?Read@IO_DP_DRIVE@@QEAAEVBIG_INT@@KPEAX@Z" ; ifsutil.dll
"?Read@SECRUN@@UEAAEXZ" ; ifsutil.dll
"?Recover@VOL_LIODPDRV@@QEAAEPEBVWSTRING@@PEAVMESSAGE@@@Z" ; ifsutil.dll
"?ReleaseVolumeSnapshot@SNAPSHOT@@SAEPEAV1@@Z" ; ifsutil.dll
"?Remove@NUMBER_SET@@QEAAEPEBV1@@Z" ; ifsutil.dll
"?Remove@NUMBER_SET@@QEAAEVBIG_INT@@0@Z" ; ifsutil.dll
"?Remove@NUMBER_SET@@QEAAEVBIG_INT@@@Z" ; ifsutil.dll
"?RemoveAll@NUMBER_SET@@QEAAEXZ" ; ifsutil.dll
"?RemoveAll@SPARSE_SET@@QEAAEXZ" ; ifsutil.dll
"?RemoveEdge@DIGRAPH@@QEAAEKK@Z" ; ifsutil.dll
"?RestoreThreadExecutionState@@YAXJK@Z" ; ifsutil.dll
"?ReverseCopy@INTSTACK@@QEAAEPEAV1@@Z" ; ifsutil.dll
"?SendSonyMSFormatCmd@DP_DRIVE@@QEAAEXZ" ; ifsutil.dll
"?SendSonyMSInquiryCmd@DP_DRIVE@@QEAAEPEAUSONY_MS_INQUIRY_DATA@@@Z" ; ifsutil.dll
"?SendSonyMSModeSenseCmd@DP_DRIVE@@QEAAEPEAUSONY_MS_MODE_SENSE_DATA@@@Z" ; ifsutil.dll
"?SendSonyMSRequestSenseCmd@DP_DRIVE@@QEAAEPEAU_SENSE_DATA@@@Z" ; ifsutil.dll
"?SendSonyMSTestUnitReadyCmd@DP_DRIVE@@QEAAEPEAU_SENSE_DATA@@@Z" ; ifsutil.dll
"?Set@BIG_INT@@QEAAXEPEBE@Z" ; ifsutil.dll
"?SetAutochkTimeOut@VOL_LIODPDRV@@SAEK@Z" ; ifsutil.dll
"?SetCache@IO_DP_DRIVE@@QEAAXPEAVDRIVE_CACHE@@@Z" ; ifsutil.dll
"?SetSystemId@LOG_IO_DP_DRIVE@@QEAAEE@Z" ; ifsutil.dll
"?SetVolumeLabelAndPrintFormatReport@VOL_LIODPDRV@@QEAAEPEBVWSTRING@@PEAVMESSAGE@@@Z" ; ifsutil.dll
"?ShellSort@TLINK@@QEAAXXZ" ; ifsutil.dll
"?Sort@TLINK@@QEAAXXZ" ; ifsutil.dll
"?Verify@IO_DP_DRIVE@@QEAAEVBIG_INT@@0@Z" ; ifsutil.dll
"?Verify@IO_DP_DRIVE@@QEAAEVBIG_INT@@0PEAVNUMBER_SET@@@Z" ; ifsutil.dll
"?Write@IO_DP_DRIVE@@QEAAEVBIG_INT@@KPEAX@Z" ; ifsutil.dll
"?Write@SECRUN@@UEAAEXZ" ; ifsutil.dll
"?WriteToFile@IFS_SYSTEM@@SAEPEBVWSTRING@@PEAXKE@Z" ; ifsutil.dll
