LIBRARY "mfcsubs.dll"
EXPORTS
"??$ConstructElements@VCString@@@@YAXPEAVCString@@H@Z" ; mfcsubs.dll
"??$CopyElements@VCString@@@@YAXPEAVCString@@PEBV0@H@Z" ; mfcsubs.dll
"??$DestructElements@VCString@@@@YAXPEAVCString@@H@Z" ; mfcsubs.dll
"??$HashKey@AEBU_GUID@@@@YAIAEBU_GUID@@@Z" ; mfcsubs.dll
"??$HashKey@PEBD@@YAIPEBD@Z" ; mfcsubs.dll
"??$HashKey@PEBG@@YAIPEBG@Z" ; mfcsubs.dll
"??0CCriticalSection@@QEAA@XZ" ; mfcsubs.dll
"??0CMapStringToPtr@@QEAA@H@Z" ; mfcsubs.dll
"??0CObject@@IEAA@XZ" ; mfcsubs.dll
"??0CString@@QEAA@AEBV0@@Z" ; mfcsubs.dll
"??0CString@@QEAA@GH@Z" ; mfcsubs.dll
"??0CString@@QEAA@PEBD@Z" ; mfcsubs.dll
"??0CString@@QEAA@PEBE@Z" ; mfcsubs.dll
"??0CString@@QEAA@PEBG@Z" ; mfcsubs.dll
"??0CString@@QEAA@PEBGH@Z" ; mfcsubs.dll
"??0CString@@QEAA@XZ" ; mfcsubs.dll
"??0CStringArray@@QEAA@XZ" ; mfcsubs.dll
"??0CSyncObject@@QEAA@PEBG@Z" ; mfcsubs.dll
"??1CCriticalSection@@UEAA@XZ" ; mfcsubs.dll
"??1CMapStringToPtr@@UEAA@XZ" ; mfcsubs.dll
"??1CObject@@UEAA@XZ" ; mfcsubs.dll
"??1CString@@QEAA@XZ" ; mfcsubs.dll
"??1CStringArray@@UEAA@XZ" ; mfcsubs.dll
"??1CSyncObject@@UEAA@XZ" ; mfcsubs.dll
"??4CPlex@@QEAAAEAU0@AEBU0@@Z" ; mfcsubs.dll
"??4CString@@QEAAAEBV0@AEBV0@@Z" ; mfcsubs.dll
"??4CString@@QEAAAEBV0@D@Z" ; mfcsubs.dll
"??4CString@@QEAAAEBV0@G@Z" ; mfcsubs.dll
"??4CString@@QEAAAEBV0@PEBD@Z" ; mfcsubs.dll
"??4CString@@QEAAAEBV0@PEBE@Z" ; mfcsubs.dll
"??4CString@@QEAAAEBV0@PEBG@Z" ; mfcsubs.dll
"??8@YA_NAEBVCString@@0@Z" ; mfcsubs.dll
"??8@YA_NAEBVCString@@PEBG@Z" ; mfcsubs.dll
"??8@YA_NPEBGAEBVCString@@@Z" ; mfcsubs.dll
"??9@YA_NAEBVCString@@0@Z" ; mfcsubs.dll
"??9@YA_NAEBVCString@@PEBG@Z" ; mfcsubs.dll
"??9@YA_NPEBGAEBVCString@@@Z" ; mfcsubs.dll
"??ACMapStringToPtr@@QEAAAEAPEAXPEBG@Z" ; mfcsubs.dll
"??ACString@@QEBAGH@Z" ; mfcsubs.dll
"??ACStringArray@@QEAAAEAVCString@@H@Z" ; mfcsubs.dll
"??ACStringArray@@QEBA?AVCString@@H@Z" ; mfcsubs.dll
"??BCCriticalSection@@QEAAPEAU_RTL_CRITICAL_SECTION@@XZ" ; mfcsubs.dll
"??BCString@@QEBAPEBGXZ" ; mfcsubs.dll
"??BCSyncObject@@QEBAPEAXXZ" ; mfcsubs.dll
"??H@YA?AVCString@@AEBV0@0@Z" ; mfcsubs.dll
"??H@YA?AVCString@@AEBV0@D@Z" ; mfcsubs.dll
"??H@YA?AVCString@@AEBV0@G@Z" ; mfcsubs.dll
"??H@YA?AVCString@@AEBV0@PEBG@Z" ; mfcsubs.dll
"??H@YA?AVCString@@DAEBV0@@Z" ; mfcsubs.dll
"??H@YA?AVCString@@GAEBV0@@Z" ; mfcsubs.dll
"??H@YA?AVCString@@PEBGAEBV0@@Z" ; mfcsubs.dll
"??M@YA_NAEBVCString@@0@Z" ; mfcsubs.dll
"??M@YA_NAEBVCString@@PEBG@Z" ; mfcsubs.dll
"??M@YA_NPEBGAEBVCString@@@Z" ; mfcsubs.dll
"??N@YA_NAEBVCString@@0@Z" ; mfcsubs.dll
"??N@YA_NAEBVCString@@PEBG@Z" ; mfcsubs.dll
"??N@YA_NPEBGAEBVCString@@@Z" ; mfcsubs.dll
"??O@YA_NAEBVCString@@0@Z" ; mfcsubs.dll
"??O@YA_NAEBVCString@@PEBG@Z" ; mfcsubs.dll
"??O@YA_NPEBGAEBVCString@@@Z" ; mfcsubs.dll
"??P@YA_NAEBVCString@@0@Z" ; mfcsubs.dll
"??P@YA_NAEBVCString@@PEBG@Z" ; mfcsubs.dll
"??P@YA_NPEBGAEBVCString@@@Z" ; mfcsubs.dll
"??YCString@@QEAAAEBV0@AEBV0@@Z" ; mfcsubs.dll
"??YCString@@QEAAAEBV0@D@Z" ; mfcsubs.dll
"??YCString@@QEAAAEBV0@G@Z" ; mfcsubs.dll
"??YCString@@QEAAAEBV0@PEBG@Z" ; mfcsubs.dll
"??_7CCriticalSection@@6B@" ; mfcsubs.dll
"??_7CMapStringToPtr@@6B@" ; mfcsubs.dll
"??_7CObject@@6B@" ; mfcsubs.dll
"??_7CStringArray@@6B@" ; mfcsubs.dll
"??_7CSyncObject@@6B@" ; mfcsubs.dll
"??_FCMapStringToPtr@@QEAAXXZ" ; mfcsubs.dll
"?Add@CStringArray@@QEAAHPEBG@Z" ; mfcsubs.dll
"?AfxA2WHelper@@YAPEAGPEAGPEBDH@Z" ; mfcsubs.dll
"?AfxExtractSubString@@YAHAEAVCString@@PEBGHG@Z" ; mfcsubs.dll
"?AfxGetEmptyString@@YAAEBVCString@@XZ" ; mfcsubs.dll
"?AfxLoadString@@YAHIPEAGI@Z" ; mfcsubs.dll
"?AfxW2AHelper@@YAPEADPEADPEBGH@Z" ; mfcsubs.dll
"?AllocBeforeWrite@CString@@IEAAXH@Z" ; mfcsubs.dll
"?AllocBuffer@CString@@IEAAXH@Z" ; mfcsubs.dll
"?AllocCopy@CString@@IEBAXAEAV1@HHH@Z" ; mfcsubs.dll
"?Append@CStringArray@@QEAAHAEBV1@@Z" ; mfcsubs.dll
"?AssignCopy@CString@@IEAAXHPEBG@Z" ; mfcsubs.dll
"?Collate@CString@@QEBAHPEBG@Z" ; mfcsubs.dll
"?Compare@CString@@QEBAHPEBG@Z" ; mfcsubs.dll
"?CompareNoCase@CString@@QEBAHPEBG@Z" ; mfcsubs.dll
"?ConcatCopy@CString@@IEAAXHPEBGH0@Z" ; mfcsubs.dll
"?ConcatInPlace@CString@@IEAAXHPEBG@Z" ; mfcsubs.dll
"?Copy@CStringArray@@QEAAXAEBV1@@Z" ; mfcsubs.dll
"?CopyBeforeWrite@CString@@IEAAXXZ" ; mfcsubs.dll
"?Create@CPlex@@SAPEAU1@AEAPEAU1@II@Z" ; mfcsubs.dll
"?ElementAt@CStringArray@@QEAAAEAVCString@@H@Z" ; mfcsubs.dll
"?Empty@CString@@QEAAXXZ" ; mfcsubs.dll
"?Find@CString@@QEBAHG@Z" ; mfcsubs.dll
"?Find@CString@@QEBAHPEBG@Z" ; mfcsubs.dll
"?FindOneOf@CString@@QEBAHPEBG@Z" ; mfcsubs.dll
"?Format@CString@@QEAAXIZZ" ; mfcsubs.dll
"?Format@CString@@QEAAXPEBGZZ" ; mfcsubs.dll
"?FormatMessageW@CString@@QEAAXIZZ" ; mfcsubs.dll
"?FormatMessageW@CString@@QEAAXPEBGZZ" ; mfcsubs.dll
"?FormatV@CString@@IEAAXPEBGPEAD@Z" ; mfcsubs.dll
"?FreeAssoc@CMapStringToPtr@@IEAAXPEAUCAssoc@1@@Z" ; mfcsubs.dll
"?FreeDataChain@CPlex@@QEAAXXZ" ; mfcsubs.dll
"?FreeExtra@CString@@QEAAXXZ" ; mfcsubs.dll
"?FreeExtra@CStringArray@@QEAAXXZ" ; mfcsubs.dll
"?GetAllocLength@CString@@QEBAHXZ" ; mfcsubs.dll
"?GetAssocAt@CMapStringToPtr@@IEBAPEAUCAssoc@1@PEBGAEAI@Z" ; mfcsubs.dll
"?GetAt@CString@@QEBAGH@Z" ; mfcsubs.dll
"?GetAt@CStringArray@@QEBA?AVCString@@H@Z" ; mfcsubs.dll
"?GetBuffer@CString@@QEAAPEAGH@Z" ; mfcsubs.dll
"?GetBufferSetLength@CString@@QEAAPEAGH@Z" ; mfcsubs.dll
"?GetCount@CMapStringToPtr@@QEBAHXZ" ; mfcsubs.dll
"?GetData@CString@@IEBAPEAUCStringData@@XZ" ; mfcsubs.dll
"?GetData@CStringArray@@QEAAPEAVCString@@XZ" ; mfcsubs.dll
"?GetData@CStringArray@@QEBAPEBVCString@@XZ" ; mfcsubs.dll
"?GetHashTableSize@CMapStringToPtr@@QEBAIXZ" ; mfcsubs.dll
"?GetLength@CString@@QEBAHXZ" ; mfcsubs.dll
"?GetNextAssoc@CMapStringToPtr@@QEBAXAEAPEAU__POSITION@@AEAVCString@@AEAPEAX@Z" ; mfcsubs.dll
"?GetSize@CStringArray@@QEBAHXZ" ; mfcsubs.dll
"?GetStartPosition@CMapStringToPtr@@QEBAPEAU__POSITION@@XZ" ; mfcsubs.dll
"?GetUpperBound@CStringArray@@QEBAHXZ" ; mfcsubs.dll
"?HashKey@CMapStringToPtr@@QEBAIPEBG@Z" ; mfcsubs.dll
"?Init@CString@@IEAAXXZ" ; mfcsubs.dll
"?InitHashTable@CMapStringToPtr@@QEAAXIH@Z" ; mfcsubs.dll
"?InsertAt@CStringArray@@QEAAXHPEAV1@@Z" ; mfcsubs.dll
"?InsertAt@CStringArray@@QEAAXHPEBGH@Z" ; mfcsubs.dll
"?IsEmpty@CMapStringToPtr@@QEBAHXZ" ; mfcsubs.dll
"?IsEmpty@CString@@QEBAHXZ" ; mfcsubs.dll
"?Left@CString@@QEBA?AV1@H@Z" ; mfcsubs.dll
"?LoadStringW@CString@@QEAAHI@Z" ; mfcsubs.dll
"?Lock@CCriticalSection@@QEAAHXZ" ; mfcsubs.dll
"?Lock@CCriticalSection@@UEAAHK@Z" ; mfcsubs.dll
"?Lock@CSyncObject@@UEAAHK@Z" ; mfcsubs.dll
"?LockBuffer@CString@@QEAAPEAGXZ" ; mfcsubs.dll
"?Lookup@CMapStringToPtr@@QEBAHPEBGAEAPEAX@Z" ; mfcsubs.dll
"?LookupKey@CMapStringToPtr@@QEBAHPEBGAEAPEBG@Z" ; mfcsubs.dll
"?MakeLower@CString@@QEAAXXZ" ; mfcsubs.dll
"?MakeReverse@CString@@QEAAXXZ" ; mfcsubs.dll
"?MakeUpper@CString@@QEAAXXZ" ; mfcsubs.dll
"?Mid@CString@@QEBA?AV1@H@Z" ; mfcsubs.dll
"?Mid@CString@@QEBA?AV1@HH@Z" ; mfcsubs.dll
"?NewAssoc@CMapStringToPtr@@IEAAPEAUCAssoc@1@XZ" ; mfcsubs.dll
"?Release@CString@@IEAAXXZ" ; mfcsubs.dll
"?Release@CString@@KAXPEAUCStringData@@@Z" ; mfcsubs.dll
"?ReleaseBuffer@CString@@QEAAXH@Z" ; mfcsubs.dll
"?RemoveAll@CMapStringToPtr@@QEAAXXZ" ; mfcsubs.dll
"?RemoveAll@CStringArray@@QEAAXXZ" ; mfcsubs.dll
"?RemoveAt@CStringArray@@QEAAXHH@Z" ; mfcsubs.dll
"?RemoveKey@CMapStringToPtr@@QEAAHPEBG@Z" ; mfcsubs.dll
"?ReverseFind@CString@@QEBAHG@Z" ; mfcsubs.dll
"?Right@CString@@QEBA?AV1@H@Z" ; mfcsubs.dll
"?SafeStrlen@CString@@KAHPEBG@Z" ; mfcsubs.dll
"?SetAt@CMapStringToPtr@@QEAAXPEBGPEAX@Z" ; mfcsubs.dll
"?SetAt@CString@@QEAAXHG@Z" ; mfcsubs.dll
"?SetAt@CStringArray@@QEAAXHPEBG@Z" ; mfcsubs.dll
"?SetAtGrow@CStringArray@@QEAAXHPEBG@Z" ; mfcsubs.dll
"?SetSize@CStringArray@@QEAAXHH@Z" ; mfcsubs.dll
"?SpanExcluding@CString@@QEBA?AV1@PEBG@Z" ; mfcsubs.dll
"?SpanIncluding@CString@@QEBA?AV1@PEBG@Z" ; mfcsubs.dll
"?TrimLeft@CString@@QEAAXXZ" ; mfcsubs.dll
"?TrimRight@CString@@QEAAXXZ" ; mfcsubs.dll
"?Unlock@CCriticalSection@@UEAAHXZ" ; mfcsubs.dll
"?Unlock@CSyncObject@@UEAAHJPEAJ@Z" ; mfcsubs.dll
"?UnlockBuffer@CString@@QEAAXXZ" ; mfcsubs.dll
"?data@CPlex@@QEAAPEAXXZ" ; mfcsubs.dll
