LIBRARY "mmcbase.dll"
EXPORTS
"??0?$CEventLock@UAppEvents@@@@QEAA@XZ" ; mmcbase.dll
"??0CEventBuffer@@QEAA@AEBV0@@Z" ; mmcbase.dll
"??0CEventBuffer@@QEAA@XZ" ; mmcbase.dll
"??0CMMCStrongReferences@@AEAA@XZ" ; mmcbase.dll
"??0SC@mmcerror@@QEAA@AEBV01@@Z" ; mmcbase.dll
"??0SC@mmcerror@@QEAA@J@Z" ; mmcbase.dll
"??1?$CEventLock@UAppEvents@@@@QEAA@XZ" ; mmcbase.dll
"??1CEventBuffer@@QEAA@XZ" ; mmcbase.dll
"??1SC@mmcerror@@QEAA@XZ" ; mmcbase.dll
"??4?$CEventLock@UAppEvents@@@@QEAAAEAV0@AEBV0@@Z" ; mmcbase.dll
"??4CEventBuffer@@QEAAAEAV0@AEBV0@@Z" ; mmcbase.dll
"??4CMMCStrongReferences@@QEAAAEAV0@AEBV0@@Z" ; mmcbase.dll
"??4SC@mmcerror@@QEAAAEAV01@AEBV01@@Z" ; mmcbase.dll
"??4SC@mmcerror@@QEAAAEAV01@J@Z" ; mmcbase.dll
"??7SC@mmcerror@@QEBAHXZ" ; mmcbase.dll
"??8SC@mmcerror@@QEBA_NAEBV01@@Z" ; mmcbase.dll
"??8SC@mmcerror@@QEBA_NJ@Z" ; mmcbase.dll
"??9SC@mmcerror@@QEBA_NAEBV01@@Z" ; mmcbase.dll
"??9SC@mmcerror@@QEBA_NJ@Z" ; mmcbase.dll
"??BSC@mmcerror@@QEBA_NXZ" ; mmcbase.dll
"??_FSC@mmcerror@@QEAAXXZ" ; mmcbase.dll
"?AddItem@BookKeeping@@SAJAEAVItemHandle@@@Z" ; mmcbase.dll
"?AddRef@CMMCStrongReferences@@SAKXZ" ; mmcbase.dll
"?AddSnapin@BookKeeping@@SAJPEBGAEAH@Z" ; mmcbase.dll
"?AddSnapinInterface@BookKeeping@@SA_NPEAUIUnknown@@PEBGAEAH@Z" ; mmcbase.dll
"?CheckCallingThreadID@SC@mmcerror@@QEAAXXZ" ; mmcbase.dll
"?Clear@SC@mmcerror@@QEAAXXZ" ; mmcbase.dll
"?DumpWatsonTables@BookKeeping@@SAJPEAXPEBGH@Z" ; mmcbase.dll
"?EnableDiagnosticMessageBox@BookKeeping@@SA_N_N@Z" ; mmcbase.dll
"?ExceptionFilter@CMMCWatsonAPI@@SAJPEAU_EXCEPTION_POINTERS@@H@Z" ; mmcbase.dll
"?FatalError@SC@mmcerror@@QEBAXXZ" ; mmcbase.dll
"?FindAllSnapinUIThreads@BookKeeping@@SAJHPEAPEAKPEAK@Z" ; mmcbase.dll
"?FindAllSnapinUIThreads@BookKeeping@@SAJPEAPEAKPEAK@Z" ; mmcbase.dll
"?FindItem@BookKeeping@@SAPEAVItemHandle@@PEAX@Z" ; mmcbase.dll
"?FindSnapin@BookKeeping@@SAAEBVSnapinBookkeepingInfo@@H@Z" ; mmcbase.dll
"?FindSnapin@BookKeeping@@SAAEBVSnapinBookkeepingInfo@@PEAUIUnknown@@@Z" ; mmcbase.dll
"?FindSnapin@BookKeeping@@SAAEBVSnapinBookkeepingInfo@@PEBG@Z" ; mmcbase.dll
"?ForceException@CMMCWatsonAPI@@SAXH@Z" ; mmcbase.dll
"?FormatErrorIds@@YAXIVSC@mmcerror@@IPEAG@Z" ; mmcbase.dll
"?FormatErrorShort@@YAXVSC@mmcerror@@IPEAG@Z" ; mmcbase.dll
"?FormatErrorString@@YAXPEBGVSC@mmcerror@@IPEAGH@Z" ; mmcbase.dll
"?FromLastError@SC@mmcerror@@QEAAAEAV12@XZ" ; mmcbase.dll
"?FromMMC@SC@mmcerror@@QEAAAEAV12@J@Z" ; mmcbase.dll
"?FromWin32@SC@mmcerror@@QEAAAEAV12@J@Z" ; mmcbase.dll
"?FxSnapinException@BookKeeping@@SA_NHPEBG000H@Z" ; mmcbase.dll
"?GetCode@SC@mmcerror@@QEBAJXZ" ; mmcbase.dll
"?GetComObjectEventSource@@YAAEAV?$CEventSource@VCComObjectObserver@@VCVoid@@V2@V2@V2@@@XZ" ; mmcbase.dll
"?GetErrorMessage@SC@mmcerror@@QEBAXIPEAG@Z" ; mmcbase.dll
"?GetEventBuffer@@YAAEAVCEventBuffer@@XZ" ; mmcbase.dll
"?GetFacility@SC@mmcerror@@AEBA?AW4facility_type@12@XZ" ; mmcbase.dll
"?GetFunctionName@SC@mmcerror@@QEBAPEBGXZ" ; mmcbase.dll
"?GetHWnd@SC@mmcerror@@SAPEAUHWND__@@XZ" ; mmcbase.dll
"?GetHelpFile@SC@mmcerror@@SAPEBGXZ" ; mmcbase.dll
"?GetHelpID@SC@mmcerror@@QEAAKXZ" ; mmcbase.dll
"?GetHinst@SC@mmcerror@@SAPEAUHINSTANCE__@@XZ" ; mmcbase.dll
"?GetMainThreadID@SC@mmcerror@@SAKXZ" ; mmcbase.dll
"?GetModalHWND@SC@mmcerror@@SAPEAUHWND__@@XZ" ; mmcbase.dll
"?GetNewSnapinInstanceId@BookKeeping@@SAHXZ" ; mmcbase.dll
"?GetSingletonObject@CMMCStrongReferences@@CAAEAV1@XZ" ; mmcbase.dll
"?GetSnapinModuleName@BookKeeping@@SAPEBGH@Z" ; mmcbase.dll
"?GetSnapinName@BookKeeping@@SAPEBGH@Z" ; mmcbase.dll
"?GetSnapinName@SC@mmcerror@@QEBAPEBGXZ" ; mmcbase.dll
"?GetStringModule@@YAPEAUHINSTANCE__@@XZ" ; mmcbase.dll
"?HrFromSc@@YAJAEBVSC@mmcerror@@@Z" ; mmcbase.dll
"?InitInstance@BookKeeping@@SAJXZ" ; mmcbase.dll
"?InterfaceFailure@BookKeeping@@SAXHPEBG0@Z" ; mmcbase.dll
"?InterfaceMethodException@BookKeeping@@SAXHPEBG0KPEAU_EXCEPTION_POINTERS@@@Z" ; mmcbase.dll
"?InterfaceNotFound@BookKeeping@@SAXHPEBG@Z" ; mmcbase.dll
"?InternalAddRef@CMMCStrongReferences@@AEAAKXZ" ; mmcbase.dll
"?InternalLastRefReleased@CMMCStrongReferences@@AEAA_NXZ" ; mmcbase.dll
"?InternalRelease@CMMCStrongReferences@@AEAAKXZ" ; mmcbase.dll
"?InvalidInterface@BookKeeping@@SAXHPEBG0@Z" ; mmcbase.dll
"?InvalidMMCInterface@BookKeeping@@SAXHPEBG0@Z" ; mmcbase.dll
"?InvalidMMCInterfaceRelease@BookKeeping@@SAXHPEBG0@Z" ; mmcbase.dll
"?IsError@SC@mmcerror@@QEBA_NXZ" ; mmcbase.dll
"?IsLocked@CEventBuffer@@QEAA_NXZ" ; mmcbase.dll
"?IsValid@ItemHandle@@SA_NPEBV1@@Z" ; mmcbase.dll
"?LKResult2HRESULT@BookKeeping@@SAJ_J@Z" ; mmcbase.dll
"?LastRefReleased@CMMCStrongReferences@@SA_NXZ" ; mmcbase.dll
"?LoadStandardOverlays@@YAJPEAU_IMAGELIST@@HPEAH1@Z" ; mmcbase.dll
"?Lock@CEventBuffer@@QEAAXXZ" ; mmcbase.dll
"?MMCErrorBox@@YAHII@Z" ; mmcbase.dll
"?MMCErrorBox@@YAHIVSC@mmcerror@@I@Z" ; mmcbase.dll
"?MMCErrorBox@@YAHPEBGI@Z" ; mmcbase.dll
"?MMCErrorBox@@YAHPEBGVSC@mmcerror@@I@Z" ; mmcbase.dll
"?MMCErrorBox@@YAHVSC@mmcerror@@I@Z" ; mmcbase.dll
"?MMCInterfaceError@BookKeeping@@SAXHPEBG0@Z" ; mmcbase.dll
"?MMCInterfaceLeak@BookKeeping@@SAXHPEBG@Z" ; mmcbase.dll
"?MMCInterfaceMethodException@BookKeeping@@SAXHPEBG0KPEAU_EXCEPTION_POINTERS@@W4_SnapinError@1@@Z" ; mmcbase.dll
"?MMCNullInterface@BookKeeping@@SAXHPEBG0@Z" ; mmcbase.dll
"?MMCUpdateRegistry@@YAJHPEBVCObjectRegParams@@PEBVCControlRegParams@@@Z" ; mmcbase.dll
"?MMC_PickIconDlg@@YA_JPEAUHWND__@@PEAGIPEAH@Z" ; mmcbase.dll
"?MakeSc@SC@mmcerror@@AEAAXW4facility_type@12@J@Z" ; mmcbase.dll
"?RegisterSnapinInterfaceErrorHandler@BookKeeping@@SAP6A_NAEAVSnapinBookkeepingInfo@@W4_SnapinError@1@PEBG222KPEAU_EXCEPTION_POINTERS@@@ZP6A_N012222K3@Z@Z" ; mmcbase.dll
"?RegisterThread@BookKeeping@@SAJHHKW4SnapinThreadFlags@1@@Z" ; mmcbase.dll
"?Release@CMMCStrongReferences@@SAKXZ" ; mmcbase.dll
"?ReleaseSnapinInterface@BookKeeping@@SAJPEAUIUnknown@@H@Z" ; mmcbase.dll
"?RemoveItem@BookKeeping@@SAJPEAX@Z" ; mmcbase.dll
"?SCODEFromSc@@YAJAEBVSC@mmcerror@@@Z" ; mmcbase.dll
"?ScEmitOrPostpone@CEventBuffer@@QEAA?AVSC@mmcerror@@PEAUIDispatch@@JPEAVCComVariant@ATL@@H@Z" ; mmcbase.dll
"?ScFlushPostponed@CEventBuffer@@AEAA?AVSC@mmcerror@@XZ" ; mmcbase.dll
"?ScFromMMC@@YA?AVSC@mmcerror@@J@Z" ; mmcbase.dll
"?ScGetConsoleEventDispatcher@CConsoleEventDispatcherProvider@@SA?AVSC@mmcerror@@AEAPEAVCConsoleEventDispatcher@@@Z" ; mmcbase.dll
"?ScSetConsoleEventDispatcher@CConsoleEventDispatcherProvider@@SA?AVSC@mmcerror@@PEAVCConsoleEventDispatcher@@@Z" ; mmcbase.dll
"?SetFunctionName@SC@mmcerror@@QEAAXPEBG@Z" ; mmcbase.dll
"?SetHWnd@SC@mmcerror@@SAXPEAUHWND__@@@Z" ; mmcbase.dll
"?SetHinst@SC@mmcerror@@SAXPEAUHINSTANCE__@@@Z" ; mmcbase.dll
"?SetMainThreadID@SC@mmcerror@@SAXK@Z" ; mmcbase.dll
"?SetModalHWND@SC@mmcerror@@SAPEAUHWND__@@PEAU3@@Z" ; mmcbase.dll
"?SetSnapinName@SC@mmcerror@@QEAAXPEBG@Z" ; mmcbase.dll
"?Throw@SC@mmcerror@@QEAAXJ@Z" ; mmcbase.dll
"?Throw@SC@mmcerror@@QEAAXXZ" ; mmcbase.dll
"?ToHr@SC@mmcerror@@QEBAJXZ" ; mmcbase.dll
"?TraceAndClear@SC@mmcerror@@QEAAXXZ" ; mmcbase.dll
"?TraceError@@YAXPEBGAEBVSC@mmcerror@@@Z" ; mmcbase.dll
"?TraceSnapinError@@YAXPEBGAEBVSC@mmcerror@@@Z" ; mmcbase.dll
"?Trace_@SC@mmcerror@@QEBAXXZ" ; mmcbase.dll
"?Unlock@CEventBuffer@@QEAAXXZ" ; mmcbase.dll
"?UnregisterAllSnapinInstanceThreads@BookKeeping@@SAJH@Z" ; mmcbase.dll
"?UnregisterThread@BookKeeping@@SAJHK@Z" ; mmcbase.dll
"?WrongThreadCall@BookKeeping@@SAXHPEBG0@Z" ; mmcbase.dll
"?s_CallDepth@SC@mmcerror@@0IA" ; mmcbase.dll
"?s_dwMainThreadID@SC@mmcerror@@0KA" ; mmcbase.dll
"?s_hInst@SC@mmcerror@@0PEAUHINSTANCE__@@EA" ; mmcbase.dll
"?s_hWnd@SC@mmcerror@@0PEAUHWND__@@EA" ; mmcbase.dll
"?s_hWndModal@SC@mmcerror@@0PEAUHWND__@@EA" ; mmcbase.dll
"?s_pDispatcher@CConsoleEventDispatcherProvider@@0PEAVCConsoleEventDispatcher@@EA" ; mmcbase.dll
"GetAllocCounters" ; mmcbase.dll
"ReportFxSnapinException" ; mmcbase.dll
