LIBRARY "mmutilse.dll"
EXPORTS
"??0CDirectDrawSurface@IHammer@@QEAA@PEAUHPALETTE__@@KPEBUtagSIZE@@PEAJ@Z" ; mmutilse.dll
"??0CHalftone@@QEAA@PEAUHPALETTE__@@@Z" ; mmutilse.dll
"??0CHalftonePalette@@QEAA@PEAUHPALETTE__@@@Z" ; mmutilse.dll
"??0CHalftonePalette@@QEAA@XZ" ; mmutilse.dll
"??0CMemManager@@QEAA@XZ" ; mmutilse.dll
"??0CMemUser@@QEAA@XZ" ; mmutilse.dll
"??0CTStr@@QEAA@AEAV0@@Z" ; mmutilse.dll
"??0CTStr@@QEAA@H@Z" ; mmutilse.dll
"??0CTStr@@QEAA@PEAD@Z" ; mmutilse.dll
"??0CTStr@@QEAA@PEAG@Z" ; mmutilse.dll
"??0CURLArchive@@QEAA@PEAUIUnknown@@@Z" ; mmutilse.dll
"??0OTrig@@QEAA@XZ" ; mmutilse.dll
"??1CMemManager@@UEAA@XZ" ; mmutilse.dll
"??1CMemUser@@UEAA@XZ" ; mmutilse.dll
"??1CTStr@@QEAA@XZ" ; mmutilse.dll
"??1CURLArchive@@UEAA@XZ" ; mmutilse.dll
"??_FCTStr@@QEAAXXZ" ; mmutilse.dll
"??_FCURLArchive@@QEAAXXZ" ; mmutilse.dll
"?AllocBuffer@CMemManager@@QEAAPEAXKG@Z" ; mmutilse.dll
"?AllocBuffer@CMemUser@@QEAAPEAUMEMBLOCK_tag@@KG@Z" ; mmutilse.dll
"?AllocBuffer@CTStr@@QEAAHHH@Z" ; mmutilse.dll
"?AllocBufferGlb@CMemManager@@SAPEAXKG@Z" ; mmutilse.dll
"?Atoi@CStringWrapper@@SAHPEBD@Z" ; mmutilse.dll
"?Atol@CStringWrapper@@SAJPEBD@Z" ; mmutilse.dll
"?BitCountFromDDPIXELFORMAT@@YAJAEBU_DDPIXELFORMAT@@@Z" ; mmutilse.dll
"?Close@CURLArchive@@UEAAJXZ" ; mmutilse.dll
"?CopyFrom@CNonCollapsingDrg@@UEAAHPEAVCDrg@@@Z" ; mmutilse.dll
"?CopyLocal@CURLArchive@@UEAAJPEADH@Z" ; mmutilse.dll
"?CopyLocal@CURLArchive@@UEAAJPEAGH@Z" ; mmutilse.dll
"?Cos@OTrig@@QEAAMJ@Z" ; mmutilse.dll
"?Cos@OTrig@@QEAAMM@Z" ; mmutilse.dll
"?CosDeg@CMathWrapper@@SAMJ@Z" ; mmutilse.dll
"?CosDeg@CMathWrapper@@SAMM@Z" ; mmutilse.dll
"?CosDegWrap@CMathWrapper@@SAMJ@Z" ; mmutilse.dll
"?CosDegWrap@CMathWrapper@@SAMM@Z" ; mmutilse.dll
"?CosRad@CMathWrapper@@SANN@Z" ; mmutilse.dll
"?CosWrap@OTrig@@QEAAMJ@Z" ; mmutilse.dll
"?CosWrap@OTrig@@QEAAMM@Z" ; mmutilse.dll
"?Create@CURLArchive@@UEAAJPEBD@Z" ; mmutilse.dll
"?Create@CURLArchive@@UEAAJPEBG@Z" ; mmutilse.dll
"?CreateIDispatchCollection@@YAHPEAPEAUIUnknown@@@Z" ; mmutilse.dll
"?DumpAllocations@CMemManager@@QEAAXPEAD@Z" ; mmutilse.dll
"?DumpAllocationsGlb@CMemManager@@SAXPEAD@Z" ; mmutilse.dll
"?DumpHeapHeader@CMemManager@@AEAAXPEAUHEAPHEADER_tag@@PEAU_iobuf@@@Z" ; mmutilse.dll
"?DumpMemBlock@CMemManager@@AEAAXPEAUMEMBLOCK_tag@@PEAU_iobuf@@@Z" ; mmutilse.dll
"?DumpMemUserInfo@CMemManager@@AEAAXPEAUMEMUSERINFO_tag@@PEAU_iobuf@@@Z" ; mmutilse.dll
"?ExternalDumpAllocations@@YAXPEAD@Z" ; mmutilse.dll
"?FreeBuffer@CMemManager@@QEAAXPEAX@Z" ; mmutilse.dll
"?FreeBuffer@CMemUser@@QEAAXPEAUMEMBLOCK_tag@@@Z" ; mmutilse.dll
"?FreeBuffer@CTStr@@QEAAXXZ" ; mmutilse.dll
"?FreeBufferGlb@CMemManager@@SAXPEAX@Z" ; mmutilse.dll
"?FreeBufferMemBlock@CMemManager@@QEAAXPEAUMEMBLOCK_tag@@@Z" ; mmutilse.dll
"?Gcvt@CStringWrapper@@SAPEADNHPEAD@Z" ; mmutilse.dll
"?GetAt@CNonCollapsingDrg@@UEAAPEAXJ@Z" ; mmutilse.dll
"?GetFileSize@CURLArchive@@UEAAJAEAJ@Z" ; mmutilse.dll
"?GetFirst@CNonCollapsingDrg@@UEAAPEAXXZ" ; mmutilse.dll
"?GetNext@CNonCollapsingDrg@@UEAAPEAXXZ" ; mmutilse.dll
"?GetSigBitsFrom16BPP@@YAKPEAUHDC__@@@Z" ; mmutilse.dll
"?GetStreamInterface@CURLArchive@@UEBAPEAUIStream@@XZ" ; mmutilse.dll
"?Insert@CDrg@@UEAAHPEAXJ@Z" ; mmutilse.dll
"?IsMMXCpu@@YAHXZ" ; mmutilse.dll
"?Iswspace@CStringWrapper@@SAHG@Z" ; mmutilse.dll
"?Itoa@CStringWrapper@@SAPEADHPEADH@Z" ; mmutilse.dll
"?Len@CTStr@@QEAAHXZ" ; mmutilse.dll
"?LoadStringW@CStringWrapper@@SAHPEAUHINSTANCE__@@IPEAGH@Z" ; mmutilse.dll
"?LockBuffer@CMemUser@@QEAAPEAXPEAUMEMBLOCK_tag@@@Z" ; mmutilse.dll
"?Ltoa@CStringWrapper@@SAPEADJPEADH@Z" ; mmutilse.dll
"?Mbstowcs@CStringWrapper@@SA_KPEAGPEBD_K@Z" ; mmutilse.dll
"?Memcmp@CStringWrapper@@SAHPEBX0_K@Z" ; mmutilse.dll
"?Memcpy@CStringWrapper@@SAPEAXPEAXPEBX_K@Z" ; mmutilse.dll
"?Memset@CStringWrapper@@SAPEAXPEAXH_K@Z" ; mmutilse.dll
"?NotifyMemUser@CMemUser@@UEAAHPEAUMEMNOTIFY_tag@@@Z" ; mmutilse.dll
"?OverheadOfSavePtrDrg@@YAKXZ" ; mmutilse.dll
"?Pow@CMathWrapper@@SAMNN@Z" ; mmutilse.dll
"?ReAllocBuffer@CMemManager@@QEAAPEAXPEAXKG@Z" ; mmutilse.dll
"?ReAllocBufferGlb@CMemManager@@SAPEAXPEAXKG@Z" ; mmutilse.dll
"?Read@CURLArchive@@UEAAKPEAEK@Z" ; mmutilse.dll
"?ReadBstrFromPropBag@@YAJPEAUIPropertyBag@@PEAUIErrorLog@@PEADPEAPEAG@Z" ; mmutilse.dll
"?ReadLine@CURLArchive@@UEAAKPEADK@Z" ; mmutilse.dll
"?ReadLine@CURLArchive@@UEAAKPEAGK@Z" ; mmutilse.dll
"?ReadLongFromPropBag@@YAJPEAUIPropertyBag@@PEAUIErrorLog@@PEADPEAJ@Z" ; mmutilse.dll
"?RegisterMemUser@CMemManager@@QEAAHPEAVCMemUser@@@Z" ; mmutilse.dll
"?RegisterMemUserGlb@CMemManager@@SAHPEAVCMemUser@@@Z" ; mmutilse.dll
"?Remove@CDrg@@UEAAHPEAXJ@Z" ; mmutilse.dll
"?Remove@CNonCollapsingDrg@@UEAAHPEAXJ@Z" ; mmutilse.dll
"?ResetLength@CTStr@@QEAAXXZ" ; mmutilse.dll
"?RetailEcho@@YAXPEADZZ" ; mmutilse.dll
"?Seek@CURLArchive@@UEAAJJW4origin@1@@Z" ; mmutilse.dll
"?SetArray@CNonCollapsingDrg@@UEAAXPEAEJI@Z" ; mmutilse.dll
"?SetAt@CNonCollapsingDrg@@UEAAHPEAXJ@Z" ; mmutilse.dll
"?SetNonDefaultSizes@CDrg@@UEAAXII@Z" ; mmutilse.dll
"?SetString@CTStr@@QEAAHPEAD@Z" ; mmutilse.dll
"?SetString@CTStr@@QEAAHPEAG@Z" ; mmutilse.dll
"?SetStringPointer@CTStr@@QEAAHPEADH@Z" ; mmutilse.dll
"?Sin@OTrig@@QEAAMJ@Z" ; mmutilse.dll
"?Sin@OTrig@@QEAAMM@Z" ; mmutilse.dll
"?SinDeg@CMathWrapper@@SAMJ@Z" ; mmutilse.dll
"?SinDeg@CMathWrapper@@SAMM@Z" ; mmutilse.dll
"?SinDegWrap@CMathWrapper@@SAMJ@Z" ; mmutilse.dll
"?SinDegWrap@CMathWrapper@@SAMM@Z" ; mmutilse.dll
"?SinRad@CMathWrapper@@SANN@Z" ; mmutilse.dll
"?SinWrap@OTrig@@QEAAMJ@Z" ; mmutilse.dll
"?SinWrap@OTrig@@QEAAMM@Z" ; mmutilse.dll
"?SizeBuffer@CMemManager@@QEAAKPEAX@Z" ; mmutilse.dll
"?SizeBufferGlb@CMemManager@@SAKPEAX@Z" ; mmutilse.dll
"?Sprintf@CStringWrapper@@SAHPEADPEBDZZ" ; mmutilse.dll
"?Sqrt@CMathWrapper@@SAMM@Z" ; mmutilse.dll
"?Sscanf1@CStringWrapper@@SAHPEBD0PEAX@Z" ; mmutilse.dll
"?Sscanf2@CStringWrapper@@SAHPEBD0PEAX1@Z" ; mmutilse.dll
"?Sscanf3@CStringWrapper@@SAHPEBD0PEAX11@Z" ; mmutilse.dll
"?Strcat@CStringWrapper@@SAPEADPEADPEBD@Z" ; mmutilse.dll
"?Strchr@CStringWrapper@@SAPEADPEBDD@Z" ; mmutilse.dll
"?Strcmp@CStringWrapper@@SAHPEBD0@Z" ; mmutilse.dll
"?Strcpy@CStringWrapper@@SAPEADPEADPEBD@Z" ; mmutilse.dll
"?Stricmp@CStringWrapper@@SAHPEBD0@Z" ; mmutilse.dll
"?Strinc@CStringWrapper@@SAPEADPEBD@Z" ; mmutilse.dll
"?Strlen@CStringWrapper@@SAHPEBD@Z" ; mmutilse.dll
"?Strncmp@CStringWrapper@@SAHPEBD0_K@Z" ; mmutilse.dll
"?Strncpy@CStringWrapper@@SAPEADPEADPEBD_K@Z" ; mmutilse.dll
"?Strnicmp@CStringWrapper@@SAHPEBD0_K@Z" ; mmutilse.dll
"?Strrchr@CStringWrapper@@SAPEADPEBDD@Z" ; mmutilse.dll
"?Strstr@CStringWrapper@@SAPEADPEBD0@Z" ; mmutilse.dll
"?Strtok@CStringWrapper@@SAPEADPEADPEBD@Z" ; mmutilse.dll
"?SysAllocString@CTStr@@QEAAPEAGXZ" ; mmutilse.dll
"?UnLockBuffer@CMemUser@@QEAAXPEAUMEMBLOCK_tag@@@Z" ; mmutilse.dll
"?UnRegisterMemUser@CMemManager@@QEAAHPEAVCMemUser@@@Z" ; mmutilse.dll
"?UnRegisterMemUserGlb@CMemManager@@SAHPEAVCMemUser@@@Z" ; mmutilse.dll
"?WStrCmpin@CStringWrapper@@SAHPEBG0_K@Z" ; mmutilse.dll
"?WStrcat@CStringWrapper@@SAPEAGPEAGPEBG@Z" ; mmutilse.dll
"?WStrcpy@CStringWrapper@@SAPEAGPEAGPEBG@Z" ; mmutilse.dll
"?WStrlen@CStringWrapper@@SAHPEBG@Z" ; mmutilse.dll
"?WStrncpy@CStringWrapper@@SAPEAGPEAGPEBG_K@Z" ; mmutilse.dll
"?Wcstombs@CStringWrapper@@SA_KPEADPEBG_K@Z" ; mmutilse.dll
"?Write@CURLArchive@@UEAAKPEAEK@Z" ; mmutilse.dll
"?WriteBstrToPropBag@@YAJPEAUIPropertyBag@@PEADPEAG@Z" ; mmutilse.dll
"?WriteLongToPropBag@@YAJPEAUIPropertyBag@@PEADJ@Z" ; mmutilse.dll
"?psz@CTStr@@QEAAPEADXZ" ; mmutilse.dll
"?pszA@CTStr@@QEAAPEADXZ" ; mmutilse.dll
"?pszW@CTStr@@QEAAPEAGXZ" ; mmutilse.dll
"_wcsicmp" ; mmutilse.dll
"_wtoi" ; mmutilse.dll
"fmod" ; mmutilse.dll
"memcmp" ; mmutilse.dll
"memset" ; mmutilse.dll
"setlocale" ; mmutilse.dll
"strcpy" ; mmutilse.dll
"strlen" ; mmutilse.dll
"swprintf" ; mmutilse.dll
