LIBRARY "mqsec.dll"
EXPORTS
"??0CCancelRpc@@QEAA@AEBV0@@Z" ; mqsec.dll
"??0CCancelRpc@@QEAA@XZ" ; mqsec.dll
"??0CColumns@@QEAA@AEBV0@@Z" ; mqsec.dll
"??0CColumns@@QEAA@I@Z" ; mqsec.dll
"??0CDSBaseUpdate@@QEAA@AEBV0@@Z" ; mqsec.dll
"??0CDSBaseUpdate@@QEAA@XZ" ; mqsec.dll
"??0COutputReport@@QEAA@XZ" ; mqsec.dll
"??0CPropertyRestriction@@QEAA@AEBV0@@Z" ; mqsec.dll
"??0CPropertyRestriction@@QEAA@KAEBKAEBVCMQVariant@@@Z" ; mqsec.dll
"??0CPropertyRestriction@@QEAA@XZ" ; mqsec.dll
"??0CRestriction@@QEAA@AEBV0@@Z" ; mqsec.dll
"??0CRestriction@@QEAA@I@Z" ; mqsec.dll
"??0CSort@@QEAA@AEBV0@@Z" ; mqsec.dll
"??0CSort@@QEAA@I@Z" ; mqsec.dll
"??0CSortKey@@QEAA@AEBKK@Z" ; mqsec.dll
"??0CSortKey@@QEAA@XZ" ; mqsec.dll
"??1CCancelRpc@@QEAA@XZ" ; mqsec.dll
"??1CColumns@@QEAA@XZ" ; mqsec.dll
"??1CDSBaseUpdate@@QEAA@XZ" ; mqsec.dll
"??1COutputReport@@QEAA@XZ" ; mqsec.dll
"??1CPropertyRestriction@@QEAA@XZ" ; mqsec.dll
"??1CRestriction@@QEAA@XZ" ; mqsec.dll
"??1CSort@@QEAA@XZ" ; mqsec.dll
"??1CSortKey@@QEAA@XZ" ; mqsec.dll
"??4CCancelRpc@@QEAAAEAV0@AEBV0@@Z" ; mqsec.dll
"??4CDSBaseUpdate@@QEAAAEAV0@AEBV0@@Z" ; mqsec.dll
"??4COutputReport@@QEAAAEAV0@AEBV0@@Z" ; mqsec.dll
"??4CPropertyRestriction@@QEAAAEAV0@AEBV0@@Z" ; mqsec.dll
"??4CRestriction@@QEAAAEAV0@AEBV0@@Z" ; mqsec.dll
"??4CSortKey@@QEAAAEAV0@AEBV0@@Z" ; mqsec.dll
"??_FCColumns@@QEAAXXZ" ; mqsec.dll
"??_FCRestriction@@QEAAXXZ" ; mqsec.dll
"??_FCSort@@QEAAXXZ" ; mqsec.dll
"?Add@CCancelRpc@@QEAAXPEAX_J@Z" ; mqsec.dll
"?Add@CColumns@@QEAAXAEBK@Z" ; mqsec.dll
"?Add@CSort@@QEAAXAEBKK@Z" ; mqsec.dll
"?Add@CSort@@QEAAXAEBVCSortKey@@@Z" ; mqsec.dll
"?AddChild@CRestriction@@QEAAXAEBVCPropertyRestriction@@@Z" ; mqsec.dll
"?AddRestriction@CRestriction@@QEAAXAEAUtagBLOB@@KK@Z" ; mqsec.dll
"?AddRestriction@CRestriction@@QEAAXAEBVCMQVariant@@KK@Z" ; mqsec.dll
"?AddRestriction@CRestriction@@QEAAXEKK@Z" ; mqsec.dll
"?AddRestriction@CRestriction@@QEAAXFKK@Z" ; mqsec.dll
"?AddRestriction@CRestriction@@QEAAXJKK@Z" ; mqsec.dll
"?AddRestriction@CRestriction@@QEAAXKKK@Z" ; mqsec.dll
"?AddRestriction@CRestriction@@QEAAXPEAGKK@Z" ; mqsec.dll
"?AddRestriction@CRestriction@@QEAAXPEAU_GUID@@KK@Z" ; mqsec.dll
"?AddRestriction@CRestriction@@QEAAXPEAUtagCACLSID@@KK@Z" ; mqsec.dll
"?AddRestriction@CRestriction@@QEAAXPEAUtagCALPWSTR@@KK@Z" ; mqsec.dll
"?CancelRequests@CCancelRpc@@QEAAX_J@Z" ; mqsec.dll
"?CancelThread@CCancelRpc@@CAKPEAX@Z" ; mqsec.dll
"?CastToStruct@CColumns@@QEAAPEAUtagMQCOLUMNSET@@XZ" ; mqsec.dll
"?CastToStruct@CRestriction@@QEAAPEAUtagMQRESTRICTION@@XZ" ; mqsec.dll
"?CastToStruct@CSort@@QEAAPEAUtagMQSORTSET@@XZ" ; mqsec.dll
"?ComposeRPCEndPointName@@YAXPEBG0PEAPEAG@Z" ; mqsec.dll
"?CopyProperty@CDSBaseUpdate@@AEAAJAEAUtagPROPVARIANT@@PEAU2@@Z" ; mqsec.dll
"?Count@CColumns@@QEBAIXZ" ; mqsec.dll
"?Count@CRestriction@@QEBAIXZ" ; mqsec.dll
"?Count@CSort@@QEBAIXZ" ; mqsec.dll
"?DeleteFalconKeyValue@@YAJPEBG@Z" ; mqsec.dll
"?DeleteProperty@CDSBaseUpdate@@AEAAXAEAUtagPROPVARIANT@@@Z" ; mqsec.dll
"?Get@CColumns@@QEBAAEBKI@Z" ; mqsec.dll
"?Get@CSort@@QEBAAEBVCSortKey@@I@Z" ; mqsec.dll
"?GetChild@CRestriction@@QEBAAEBVCPropertyRestriction@@I@Z" ; mqsec.dll
"?GetCommand@CDSBaseUpdate@@QEAAEXZ" ; mqsec.dll
"?GetComputerDnsNameInternal@@YAJPEAGPEAK@Z" ; mqsec.dll
"?GetComputerNameInternal@@YAJPEAGPEAK@Z" ; mqsec.dll
"?GetFalconKey@@YAJPEBGPEAPEAUHKEY__@@@Z" ; mqsec.dll
"?GetFalconSectionName@@YAPEBGXZ" ; mqsec.dll
"?GetFalconServiceName@@YAKPEAGK@Z" ; mqsec.dll
"?GetGuidIdentifier@CDSBaseUpdate@@QEAAPEAU_GUID@@XZ" ; mqsec.dll
"?GetMasterId@CDSBaseUpdate@@QEAAPEBU_GUID@@XZ" ; mqsec.dll
"?GetObjectType@CDSBaseUpdate@@QEAAKXZ" ; mqsec.dll
"?GetOrder@CSortKey@@QEBAKXZ" ; mqsec.dll
"?GetPathName@CDSBaseUpdate@@QEAAPEAGXZ" ; mqsec.dll
"?GetPrevSeqNum@CDSBaseUpdate@@QEBAAEBVCSeqNum@@XZ" ; mqsec.dll
"?GetProperty@CSortKey@@QEBAAEBKXZ" ; mqsec.dll
"?GetProps@CDSBaseUpdate@@QEAAPEAKXZ" ; mqsec.dll
"?GetPurgeSeqNum@CDSBaseUpdate@@QEBAAEBVCSeqNum@@XZ" ; mqsec.dll
"?GetSeqNum@CDSBaseUpdate@@QEBAAEBVCSeqNum@@XZ" ; mqsec.dll
"?GetSerializeSize@CDSBaseUpdate@@QEAAJPEAK@Z" ; mqsec.dll
"?GetThisServerIpPort@@YAJPEAGK@Z" ; mqsec.dll
"?GetVars@CDSBaseUpdate@@QEAAPEAUtagPROPVARIANT@@XZ" ; mqsec.dll
"?Grow@CRestriction@@AEAAXXZ" ; mqsec.dll
"?HashMessageProperties@@YAJ_KPEBEKK1KPEBGKPEBUQUEUE_FORMAT@@3@Z" ; mqsec.dll
"?HashProperties@@YAJ_KKPEAKPEAUtagPROPVARIANT@@@Z" ; mqsec.dll
"?Init@CCancelRpc@@QEAAXXZ" ; mqsec.dll
"?Init@CDSBaseUpdate@@QEAAJPEBEPEAKH@Z" ; mqsec.dll
"?Init@CDSBaseUpdate@@QEAAJPEBU_GUID@@AEBVCSeqNum@@11HEK0KPEAKPEAUtagPROPVARIANT@@@Z" ; mqsec.dll
"?Init@CDSBaseUpdate@@QEAAJPEBU_GUID@@AEBVCSeqNum@@11HEKPEAGKPEAKPEAUtagPROPVARIANT@@@Z" ; mqsec.dll
"?InitProperty@CDSBaseUpdate@@AEAAJPEBEPEAKKAEAUtagPROPVARIANT@@@Z" ; mqsec.dll
"?IsLocalSystemCluster@@YA_NXZ" ; mqsec.dll
"?KeepErrorHistory@COutputReport@@QEAAXPEBGGJ@Z" ; mqsec.dll
"?MQSetCaConfig@@YAJKPEAVMQ_CA_CONFIG@@@Z" ; mqsec.dll
"?ProcessEvents@CCancelRpc@@AEAAXXZ" ; mqsec.dll
"?ProduceRPCErrorTracing@@YAXPEAGK@Z" ; mqsec.dll
"?Relation@CPropertyRestriction@@QEAAKXZ" ; mqsec.dll
"?Remove@CCancelRpc@@QEAAXPEAX@Z" ; mqsec.dll
"?Remove@CColumns@@QEAAXI@Z" ; mqsec.dll
"?Remove@CSort@@QEAAXI@Z" ; mqsec.dll
"?Report@@3VCOutputReport@@A" ; mqsec.dll
"?RpcCancelTimeout@CCancelRpc@@QEAAKXZ" ; mqsec.dll
"?Serialize@CDSBaseUpdate@@QEAAJPEAEPEAKH@Z" ; mqsec.dll
"?SerializeProperty@CDSBaseUpdate@@AEAAJAEAUtagPROPVARIANT@@PEAEPEAK@Z" ; mqsec.dll
"?SetChild@CRestriction@@QEAAXAEBVCPropertyRestriction@@I@Z" ; mqsec.dll
"?SetOrder@CSortKey@@QEAAXAEBK@Z" ; mqsec.dll
"?SetPrevSeqNum@CDSBaseUpdate@@QEAAXAEAVCSeqNum@@@Z" ; mqsec.dll
"?SetProperty@CPropertyRestriction@@QEAAXAEBK@Z" ; mqsec.dll
"?SetProperty@CSortKey@@QEAAXAEBK@Z" ; mqsec.dll
"?SetRelation@CPropertyRestriction@@QEAAXK@Z" ; mqsec.dll
"?SetValue@CPropertyRestriction@@QEAAXAEAUtagBLOB@@@Z" ; mqsec.dll
"?SetValue@CPropertyRestriction@@QEAAXAEBVCMQVariant@@@Z" ; mqsec.dll
"?SetValue@CPropertyRestriction@@QEAAXE@Z" ; mqsec.dll
"?SetValue@CPropertyRestriction@@QEAAXF@Z" ; mqsec.dll
"?SetValue@CPropertyRestriction@@QEAAXJ@Z" ; mqsec.dll
"?SetValue@CPropertyRestriction@@QEAAXK@Z" ; mqsec.dll
"?SetValue@CPropertyRestriction@@QEAAXPEAG@Z" ; mqsec.dll
"?SetValue@CPropertyRestriction@@QEAAXPEAU_GUID@@@Z" ; mqsec.dll
"?SetValue@CPropertyRestriction@@QEAAXPEAUtagCACLSID@@@Z" ; mqsec.dll
"?SetValue@CPropertyRestriction@@QEAAXPEAUtagCALPWSTR@@@Z" ; mqsec.dll
"?ShutDownCancelThread@CCancelRpc@@QEAAXXZ" ; mqsec.dll
"?UnalignedWcslen@@YA_KPEFBG@Z" ; mqsec.dll
"?Value@CPropertyRestriction@@QEAAAEBVCMQVariant@@XZ" ; mqsec.dll
"?XactGetDTC@@YAJPEAPEAUIUnknown@@@Z" ; mqsec.dll
"?XactGetWhereabouts@@YAJPEAKPEAE@Z" ; mqsec.dll
"?g_CancelRpc@@3VCCancelRpc@@A" ; mqsec.dll
"?g_hProvVer@@3VCHCryptProv@@A" ; mqsec.dll
"?getNumOfProps@CDSBaseUpdate@@QEAAEXZ" ; mqsec.dll
"?mqrpcBindQMService@@YAJPEAG0PEAKPEAPEAXW4PORTTYPE@@P6AKPEAXK@ZK@Z" ; mqsec.dll
"?mqrpcGetLocalCallPID@@YAKPEAX@Z" ; mqsec.dll
"?mqrpcIsLocalCall@@YAHPEAX@Z" ; mqsec.dll
"?mqrpcIsTcpipTransport@@YAHPEAX@Z" ; mqsec.dll
"?mqrpcUnbindQMService@@YAJPEAPEAXPEAPEAG@Z" ; mqsec.dll
"FreeContextHandle" ; mqsec.dll
"GetDomainFQDNName" ; mqsec.dll
"GetFalconKeyValue" ; mqsec.dll
"GetSizes" ; mqsec.dll
"MQSealBuffer" ; mqsec.dll
"MQSec_AccessCheck" ; mqsec.dll
"MQSec_AccessCheckForSelf" ; mqsec.dll
"MQSec_AcquireCryptoProvider" ; mqsec.dll
"MQSec_CanGenerateAudit" ; mqsec.dll
"MQSec_ConvertSDToNT4Format" ; mqsec.dll
"MQSec_ConvertSDToNT5Format" ; mqsec.dll
"MQSec_CopySecurityDescriptor" ; mqsec.dll
"MQSec_GetAdminSid" ; mqsec.dll
"MQSec_GetAnonymousSid" ; mqsec.dll
"MQSec_GetCryptoProvProperty" ; mqsec.dll
"MQSec_GetDefaultSecDescriptor" ; mqsec.dll
"MQSec_GetImpersonationObject" ; mqsec.dll
"MQSec_GetLocalMachineSid" ; mqsec.dll
"MQSec_GetLocalSystemSid" ; mqsec.dll
"MQSec_GetNetworkServiceSid" ; mqsec.dll
"MQSec_GetProcessSid" ; mqsec.dll
"MQSec_GetProcessUserSid" ; mqsec.dll
"MQSec_GetPubKeysFromDS" ; mqsec.dll
"MQSec_GetThreadUserSid" ; mqsec.dll
"MQSec_GetUserType" ; mqsec.dll
"MQSec_GetWorldSid" ; mqsec.dll
"MQSec_IsAnonymusSid" ; mqsec.dll
"MQSec_IsDC" ; mqsec.dll
"MQSec_IsGuestSid" ; mqsec.dll
"MQSec_IsNetworkServiceSid" ; mqsec.dll
"MQSec_IsSystemSid" ; mqsec.dll
"MQSec_IsUnAuthenticatedUser" ; mqsec.dll
"MQSec_MakeAbsoluteSD" ; mqsec.dll
"MQSec_MakeSelfRelative" ; mqsec.dll
"MQSec_MergeSecurityDescriptors" ; mqsec.dll
"MQSec_PackPublicKey" ; mqsec.dll
"MQSec_RpcAuthnLevel" ; mqsec.dll
"MQSec_SetLocalRpcMutualAuth" ; mqsec.dll
"MQSec_SetPrivilegeInThread" ; mqsec.dll
"MQSec_SetSecurityDescriptorDacl" ; mqsec.dll
"MQSec_StorePubKeys" ; mqsec.dll
"MQSec_StorePubKeysInDS" ; mqsec.dll
"MQSec_TraceThreadTokenInfo" ; mqsec.dll
"MQSec_UnpackPublicKey" ; mqsec.dll
"MQSec_UpdateLocalMachineSid" ; mqsec.dll
"MQSigCloneCertFromReg" ; mqsec.dll
"MQSigCloneCertFromSysStore" ; mqsec.dll
"MQSigCreateCertificate" ; mqsec.dll
"MQSigHashMessageProperties" ; mqsec.dll
"MQSigOpenUserCertStore" ; mqsec.dll
"MQUInitGlobalScurityVars" ; mqsec.dll
"MQsspi_InitServerAuthntication" ; mqsec.dll
"MSMQGetOperatingSystem" ; mqsec.dll
"ServerAcceptSecCtx" ; mqsec.dll
"SetFalconKeyValue" ; mqsec.dll
"SetFalconServiceName" ; mqsec.dll
"ShutDownDebugWindow" ; mqsec.dll
