LIBRARY "msdtcprx.dll"
EXPORTS
"??0CSecurityDescriptor@@QEAA@XZ" ; msdtcprx.dll
"??0CService@@IEAA@XZ" ; msdtcprx.dll
"??0CServiceControlManager@@IEAA@XZ" ; msdtcprx.dll
"??1CSecurityDescriptor@@QEAA@XZ" ; msdtcprx.dll
"??1CService@@IEAA@XZ" ; msdtcprx.dll
"??1CServiceControlManager@@IEAA@XZ" ; msdtcprx.dll
"??4CSecurityDescriptor@@QEAAAEAV0@AEBV0@@Z" ; msdtcprx.dll
"??4CService@@QEAAAEAV0@AEBV0@@Z" ; msdtcprx.dll
"??4CServiceControlManager@@QEAAAEAV0@AEBV0@@Z" ; msdtcprx.dll
"?AddRef@CService@@QEAAKXZ" ; msdtcprx.dll
"?AddRef@CServiceControlManager@@QEAAKXZ" ; msdtcprx.dll
"?AddSid@CSecurityDescriptor@@QEAAJPEAGKK@Z" ; msdtcprx.dll
"?AddSid@CSecurityDescriptor@@QEAAJPEAXKK@Z" ; msdtcprx.dll
"?Alloc@CSecurityDescriptor@@IEAAJK@Z" ; msdtcprx.dll
"?ApplyAccountSettings@@YAJHPEAGK000H@Z" ; msdtcprx.dll
"?ApplyNamedSecurityChange@@YAJPEAGW4_SE_OBJECT_TYPE@@PEAX2K@Z" ; msdtcprx.dll
"?CheckForDCPromotionDemotion@@YAJPEAG@Z" ; msdtcprx.dll
"?ClearAcl@CSecurityDescriptor@@QEAAJXZ" ; msdtcprx.dll
"?ClearInMemoryAcl@CSecurityDescriptor@@QEAAJXZ" ; msdtcprx.dll
"?CloseNetpEventLogHandle@@YAXXZ" ; msdtcprx.dll
"?Create@CConnectionManager@@SAJPEAPEAV1@@Z" ; msdtcprx.dll
"?Create@CNameService@@SAJPEAPEAV1@@Z" ; msdtcprx.dll
"?Create@CService@@SAJPEAPEAV1@PEAGPEAVCServiceControlManager@@K1@Z" ; msdtcprx.dll
"?Create@CServiceControlManager@@SAJPEAPEAV1@KPEAG1@Z" ; msdtcprx.dll
"?CreateASRKey@@YAXXZ" ; msdtcprx.dll
"?CreateInstance@CTmProxyCore@@SAJPEAPEAV1@PEAUIUnknown@@@Z" ; msdtcprx.dll
"?CreateNewContact@@YAJPEAPEAUIProperties@@@Z" ; msdtcprx.dll
"?CreateOrOpenMutexW@@YAJPEAPEAXPEBGH@Z" ; msdtcprx.dll
"?DeleteExistingContacts@@YAXPEAGPEAUIContactPool@@0@Z" ; msdtcprx.dll
"?DllGetDTCAdmin@@YAHAEBU_GUID@@0PEAPEAX@Z" ; msdtcprx.dll
"?DtcWriteToEventLogger@@YAJKKKKPEAXPEAD@Z" ; msdtcprx.dll
"?DtcWriteToEventLoggerEx@@YAJGGKPEAXGKPEAPEBD0@Z" ; msdtcprx.dll
"?DtcWriteToEventLoggerExUnFiltered@@YAJGGKPEAXGKPEAPEBD0@Z" ; msdtcprx.dll
"?DtcWriteToEventLoggerExUnFilteredA@@YAJGGKPEAXGKPEAPEBD0@Z" ; msdtcprx.dll
"?EraseDtcClient@@YAJPEAG@Z" ; msdtcprx.dll
"?GetAccount@CService@@QEAAJPEAGPEAK@Z" ; msdtcprx.dll
"?GetAccountSid@@YAJPEAG0PEAPEAX@Z" ; msdtcprx.dll
"?GetControl@CSecurityDescriptor@@QEAAJPEAG@Z" ; msdtcprx.dll
"?GetDefaultLogPath@@YAPEAGXZ" ; msdtcprx.dll
"?GetDefaultLogSize@@YAKXZ" ; msdtcprx.dll
"?GetDefaultSecurityConfigurationOptions@@YAJPEAGPEAK1@Z" ; msdtcprx.dll
"?GetDefaultServiceNameA@@YAPEADXZ" ; msdtcprx.dll
"?GetDefaultServiceNameW@@YAPEAGXZ" ; msdtcprx.dll
"?GetDefaultServicePath@@YAPEAGXZ" ; msdtcprx.dll
"?GetDtcCIDProps@@YAHAEAU_LOG_PROPERTIES@@AEAU_DAC_PROPERTIES@@@Z" ; msdtcprx.dll
"?GetDtcLogPath@@YAHKPEAG@Z" ; msdtcprx.dll
"?GetDtcPath@@YAHKPEAG@Z" ; msdtcprx.dll
"?GetDtcRegValueNonClusterW@@YAJPEAGPEBGPEAEPEAK@Z" ; msdtcprx.dll
"?GetDtcRegValueW@@YAJPEAGPEBGPEAEPEAKH@Z" ; msdtcprx.dll
"?GetDtcRpcSecurityLevel@@YAJPEAGPEAW4_DTC_SECURITY_LEVEL@@H@Z" ; msdtcprx.dll
"?GetEventLogSource@@YAPEAGXZ" ; msdtcprx.dll
"?GetHandle@CService@@QEAAJAEAPEAUSC_HANDLE__@@@Z" ; msdtcprx.dll
"?GetHandle@CServiceControlManager@@QEAAJAEAPEAUSC_HANDLE__@@@Z" ; msdtcprx.dll
"?GetLastKnownDomainControllerState@@YAJPEAGPEAK@Z" ; msdtcprx.dll
"?GetLocalDtcClusteringVersion@@YAJPEAK@Z" ; msdtcprx.dll
"?GetMsDtcSPN@@YAJPEAGPEAPEAG@Z" ; msdtcprx.dll
"?GetNamedInfo@CSecurityDescriptor@@QEAAJPEAGW4_SE_OBJECT_TYPE@@@Z" ; msdtcprx.dll
"?GetOldDefaultLogPath@@YAPEAGXZ" ; msdtcprx.dll
"?GetSecurityConfigurationOptions@@YAJPEAGPEAK1H@Z" ; msdtcprx.dll
"?GetSecurityDescriptor@CSecurityDescriptor@@QEAAJPEAPEAX@Z" ; msdtcprx.dll
"?GetSecurityRegValueNonClusterW@@YAJPEAGPEBGPEAEPEAK@Z" ; msdtcprx.dll
"?GetSecurityRegValueW@@YAJPEAGPEBGPEAEPEAKH@Z" ; msdtcprx.dll
"?GetSharedDtcClusteringVersion@@YAJPEAK@Z" ; msdtcprx.dll
"?GetTmContactA@@YAJPEAD0PEAPEAUIProperties@@@Z" ; msdtcprx.dll
"?GetTmContactW@@YAJPEAG0PEAPEAUIProperties@@@Z" ; msdtcprx.dll
"?GetTmUIContactA@@YAJPEAD0PEAPEAUIProperties@@@Z" ; msdtcprx.dll
"?GetTmUIContactW@@YAJPEAG0PEAPEAUIProperties@@@Z" ; msdtcprx.dll
"?GetXATmSecurityKey@@YAJPEAG0PEAK@Z" ; msdtcprx.dll
"?InstallDtc@@YAJPEAG0000K0H@Z" ; msdtcprx.dll
"?InstallDtcClient@@YAJPEAGKK@Z" ; msdtcprx.dll
"?InstallTipGw@@YAJPEAG@Z" ; msdtcprx.dll
"?InstallXaTm@@YAJPEAG@Z" ; msdtcprx.dll
"?InternalInit@CService@@IEAAJPEAGPEAVCServiceControlManager@@K0@Z" ; msdtcprx.dll
"?InternalInit@CServiceControlManager@@IEAAJKPEAG0@Z" ; msdtcprx.dll
"?IsNtVersion5OrMore@@YAHXZ" ; msdtcprx.dll
"?JoinDtc@@YAJXZ" ; msdtcprx.dll
"?JoinDtcEx@@YAJPEAG@Z" ; msdtcprx.dll
"?LookupSpecialAccount@@YAJPEAGPEAPEAU_SPECIAL_ACCOUNT_@@@Z" ; msdtcprx.dll
"?MakeAbsolute@CSecurityDescriptor@@IEAAJXZ" ; msdtcprx.dll
"?MirrorXaTmSecurityKey@@YAJPEAG@Z" ; msdtcprx.dll
"?MsDtcSPNFree@@YAJPEAPEAG@Z" ; msdtcprx.dll
"?OpenServiceA@CServiceControlManager@@QEAAJPEAPEAVCService@@PEAGK@Z" ; msdtcprx.dll
"?PopulateLocalRegistry@@YAJXZ" ; msdtcprx.dll
"?PopulateSharedClusterRegistryWithContacts@@YAJXZ" ; msdtcprx.dll
"?PopulateSharedClusterRegistryWithLogInfo@@YAJXZ" ; msdtcprx.dll
"?QueryServiceObjectSecurity@CSecurityDescriptor@@QEAAJPEAUSC_HANDLE__@@K@Z" ; msdtcprx.dll
"?Release@CService@@QEAAKXZ" ; msdtcprx.dll
"?Release@CServiceControlManager@@QEAAKXZ" ; msdtcprx.dll
"?RemoveDtc@@YAJPEAG00@Z" ; msdtcprx.dll
"?RemoveSid@CSecurityDescriptor@@QEAAJPEAG@Z" ; msdtcprx.dll
"?RemoveSid@CSecurityDescriptor@@QEAAJPEAX@Z" ; msdtcprx.dll
"?Reset@CSecurityDescriptor@@IEAAXXZ" ; msdtcprx.dll
"?RidToSid@@YAJKPEAPEAX@Z" ; msdtcprx.dll
"?SetAccount@CService@@QEAAJPEAG0@Z" ; msdtcprx.dll
"?SetAccountInfoInRegistryW@@YAJPEAG@Z" ; msdtcprx.dll
"?SetControl@CSecurityDescriptor@@QEAAJGG@Z" ; msdtcprx.dll
"?SetDomainControllerState@@YAJPEAG@Z" ; msdtcprx.dll
"?SetDtcCIDProps@@YAHAEAU_LOG_PROPERTIES@@AEAU_DAC_PROPERTIES@@@Z" ; msdtcprx.dll
"?SetDtcClient@@YAJPEAGPEAD0@Z" ; msdtcprx.dll
"?SetDtcRpcSecurityLevel@@YAJPEAGW4_DTC_SECURITY_LEVEL@@H@Z" ; msdtcprx.dll
"?SetDtcServerProtocol@@YAJPEAD0@Z" ; msdtcprx.dll
"?SetEventLogSourceToMsdtcCore@@YAXXZ" ; msdtcprx.dll
"?SetNamedInfo@CSecurityDescriptor@@QEAAJPEAGW4_SE_OBJECT_TYPE@@K@Z" ; msdtcprx.dll
"?SetNewAcl@CSecurityDescriptor@@IEAAJPEAU_ACL@@KHH@Z" ; msdtcprx.dll
"?SetOwner@CSecurityDescriptor@@QEAAJPEAGH@Z" ; msdtcprx.dll
"?SetOwner@CSecurityDescriptor@@QEAAJPEAXH@Z" ; msdtcprx.dll
"?SetSecurityConfigurationOptions@@YAJPEAGKK@Z" ; msdtcprx.dll
"?SetSecurityRegValueNonClusterW@@YAJPEAGPEBGKPEAEK@Z" ; msdtcprx.dll
"?SetSecurityRegValueW@@YAJPEAGPEBGKPEAEK@Z" ; msdtcprx.dll
"?SetServiceObjectSecurity@CSecurityDescriptor@@QEAAJPEAUSC_HANDLE__@@K@Z" ; msdtcprx.dll
"?SetSpecialAccounts@CSecurityDescriptor@@QEAAJK@Z" ; msdtcprx.dll
"?StringToSid@@YAJPEAGPEAPEAX@Z" ; msdtcprx.dll
"?UpdateTmNameObject@@YAJPEAUINameObject@@PEAPEAU1@@Z" ; msdtcprx.dll
"?UpgradeDtc@@YAJH@Z" ; msdtcprx.dll
"?VerifyAccountInfo@@YAJXZ" ; msdtcprx.dll
"?Win95Present@@YAHXZ" ; msdtcprx.dll
"?g_aSpecialAccounts@@3PAU_SPECIAL_ACCOUNT_@@A" ; msdtcprx.dll
"ClusterChangeDtcUserAccount" ; msdtcprx.dll
"ClusterCryptoContainerCreate" ; msdtcprx.dll
"ClusterCryptoContainerDelete" ; msdtcprx.dll
"ClusterDaclCryptoContainer" ; msdtcprx.dll
"ClusterUpdateAccountInformation" ; msdtcprx.dll
"ContactToNameObject" ; msdtcprx.dll
"DTC_AxReg" ; msdtcprx.dll
"DTC_AxUnReg" ; msdtcprx.dll
"DTC_XaClose" ; msdtcprx.dll
"DTC_XaCommit" ; msdtcprx.dll
"DTC_XaComplete" ; msdtcprx.dll
"DTC_XaEnd" ; msdtcprx.dll
"DTC_XaForget" ; msdtcprx.dll
"DTC_XaOpen" ; msdtcprx.dll
"DTC_XaPrepare" ; msdtcprx.dll
"DTC_XaRecover" ; msdtcprx.dll
"DTC_XaRollback" ; msdtcprx.dll
"DTC_XaStart" ; msdtcprx.dll
"DecryptAccountInformation" ; msdtcprx.dll
"DllGetClassObject" ; msdtcprx.dll
"DllGetDTCConnectionManager" ; msdtcprx.dll
"DllGetDTCProxy" ; msdtcprx.dll
"DllGetDTCUtilObject" ; msdtcprx.dll
"DllGetTransactionManagerCore" ; msdtcprx.dll
"DllRegisterServer" ; msdtcprx.dll
"DllUnregisterServer" ; msdtcprx.dll
"EncryptAccountInformation" ; msdtcprx.dll
"ShutDownCM" ; msdtcprx.dll
"SysPrepDtcReinstall" ; msdtcprx.dll
"ax_reg" ; msdtcprx.dll
"ax_unreg" ; msdtcprx.dll
