LIBRARY "msdtcuiu.dll"
EXPORTS
"??0CDac@@QEAA@AEBV0@@Z" ; msdtcuiu.dll
"??0CDac@@QEAA@K@Z" ; msdtcuiu.dll
"??1CDac@@QEAA@XZ" ; msdtcuiu.dll
"??4CDac@@QEAAAEAV0@AEBV0@@Z" ; msdtcuiu.dll
"?Connect@CDac@@QEAAHPEAUHWND__@@PEAUINTServiceControl@@@Z" ; msdtcuiu.dll
"?Create@CUicCore@@SAJPEAPEAV1@@Z" ; msdtcuiu.dll
"?CreateAdvancedPropertySheet@CDac@@QEAAPEAVCDialog@@PEAVCWnd@@@Z" ; msdtcuiu.dll
"?ErrorMessage@CDac@@QEAAHKI@Z" ; msdtcuiu.dll
"?GetAdminAccess@CDac@@QEAAKXZ" ; msdtcuiu.dll
"?GetHostNameA@CDac@@QEAAPEADXZ" ; msdtcuiu.dll
"?GetHostNameW@CDac@@QEAAPEAGXZ" ; msdtcuiu.dll
"?GetOwnerHwnd@CDac@@QEAAPEAUHWND__@@XZ" ; msdtcuiu.dll
"?GetVirtualHostName@CDac@@QEAAPEAGXZ" ; msdtcuiu.dll
"?Init@CDac@@QEAAJPEAG@Z" ; msdtcuiu.dll
"?IsConnected@CDac@@QEAAHXZ" ; msdtcuiu.dll
"?ProcessCommand@CDac@@QEAAH_K_J@Z" ; msdtcuiu.dll
"?RegisterErrorSink@@YAXPEAUIDacErrorSink@@@Z" ; msdtcuiu.dll
"?ServiceRequest@CDac@@QEAAJKPEAXK_N@Z" ; msdtcuiu.dll
"?SetHostNameA@CDac@@QEAAXPEAD@Z" ; msdtcuiu.dll
"?SetHostNameW@CDac@@QEAAXPEAG@Z" ; msdtcuiu.dll
"?SetOwnerWnd@CDac@@QEAAXPEAVCWnd@@@Z" ; msdtcuiu.dll
"?ValidateDACInstance@@YAPEAVCDac@@PEAPEAXPEAG@Z" ; msdtcuiu.dll
"DllGetClassObject" ; msdtcuiu.dll
"DllGetDTCUIC" ; msdtcuiu.dll
"DllRegisterServer" ; msdtcuiu.dll
"DllUnregisterServer" ; msdtcuiu.dll
"DoDACAdvanced" ; msdtcuiu.dll
"DoDACPropSheet" ; msdtcuiu.dll
"DtcPerfClose" ; msdtcuiu.dll
"DtcPerfCollect" ; msdtcuiu.dll
"DtcPerfOpen" ; msdtcuiu.dll
"GetDACStatsMinMaxInfo" ; msdtcuiu.dll
"InitDACDLL" ; msdtcuiu.dll
"PerfDllRegisterServer" ; msdtcuiu.dll
"RunDACExe" ; msdtcuiu.dll
"ShutDownUIC" ; msdtcuiu.dll
"TermDACDLL" ; msdtcuiu.dll
"TermDACInstance" ; msdtcuiu.dll
