LIBRARY "msvcirt.dll"
EXPORTS
"??0Iostream_init@@QEAA@AEAVios@@H@Z" ; msvcirt.dll
"??0Iostream_init@@QEAA@XZ" ; msvcirt.dll
"??0exception@@QEAA@AEBQEBD@Z" ; msvcirt.dll
"??0exception@@QEAA@AEBV0@@Z" ; msvcirt.dll
"??0exception@@QEAA@XZ" ; msvcirt.dll
"??0filebuf@@QEAA@AEBV0@@Z" ; msvcirt.dll
"??0filebuf@@QEAA@H@Z" ; msvcirt.dll
"??0filebuf@@QEAA@HPEADH@Z" ; msvcirt.dll
"??0filebuf@@QEAA@XZ" ; msvcirt.dll
"??0fstream@@QEAA@AEBV0@@Z" ; msvcirt.dll
"??0fstream@@QEAA@H@Z" ; msvcirt.dll
"??0fstream@@QEAA@HPEADH@Z" ; msvcirt.dll
"??0fstream@@QEAA@PEBDHH@Z" ; msvcirt.dll
"??0fstream@@QEAA@XZ" ; msvcirt.dll
"??0ifstream@@QEAA@AEBV0@@Z" ; msvcirt.dll
"??0ifstream@@QEAA@H@Z" ; msvcirt.dll
"??0ifstream@@QEAA@HPEADH@Z" ; msvcirt.dll
"??0ifstream@@QEAA@PEBDHH@Z" ; msvcirt.dll
"??0ifstream@@QEAA@XZ" ; msvcirt.dll
"??0ios@@IEAA@AEBV0@@Z" ; msvcirt.dll
"??0ios@@IEAA@XZ" ; msvcirt.dll
"??0ios@@QEAA@PEAVstreambuf@@@Z" ; msvcirt.dll
"??0iostream@@IEAA@AEBV0@@Z" ; msvcirt.dll
"??0iostream@@IEAA@XZ" ; msvcirt.dll
"??0iostream@@QEAA@PEAVstreambuf@@@Z" ; msvcirt.dll
"??0istream@@IEAA@AEBV0@@Z" ; msvcirt.dll
"??0istream@@IEAA@XZ" ; msvcirt.dll
"??0istream@@QEAA@PEAVstreambuf@@@Z" ; msvcirt.dll
"??0istream_withassign@@QEAA@AEBV0@@Z" ; msvcirt.dll
"??0istream_withassign@@QEAA@PEAVstreambuf@@@Z" ; msvcirt.dll
"??0istream_withassign@@QEAA@XZ" ; msvcirt.dll
"??0istrstream@@QEAA@AEBV0@@Z" ; msvcirt.dll
"??0istrstream@@QEAA@PEAD@Z" ; msvcirt.dll
"??0istrstream@@QEAA@PEADH@Z" ; msvcirt.dll
"??0logic_error@@QEAA@AEBQEBD@Z" ; msvcirt.dll
"??0logic_error@@QEAA@AEBV0@@Z" ; msvcirt.dll
"??0ofstream@@QEAA@AEBV0@@Z" ; msvcirt.dll
"??0ofstream@@QEAA@H@Z" ; msvcirt.dll
"??0ofstream@@QEAA@HPEADH@Z" ; msvcirt.dll
"??0ofstream@@QEAA@PEBDHH@Z" ; msvcirt.dll
"??0ofstream@@QEAA@XZ" ; msvcirt.dll
"??0ostream@@IEAA@AEBV0@@Z" ; msvcirt.dll
"??0ostream@@IEAA@XZ" ; msvcirt.dll
"??0ostream@@QEAA@PEAVstreambuf@@@Z" ; msvcirt.dll
"??0ostream_withassign@@QEAA@AEBV0@@Z" ; msvcirt.dll
"??0ostream_withassign@@QEAA@PEAVstreambuf@@@Z" ; msvcirt.dll
"??0ostream_withassign@@QEAA@XZ" ; msvcirt.dll
"??0ostrstream@@QEAA@AEBV0@@Z" ; msvcirt.dll
"??0ostrstream@@QEAA@PEADHH@Z" ; msvcirt.dll
"??0ostrstream@@QEAA@XZ" ; msvcirt.dll
"??0stdiobuf@@QEAA@AEBV0@@Z" ; msvcirt.dll
"??0stdiobuf@@QEAA@PEAU_iobuf@@@Z" ; msvcirt.dll
"??0stdiostream@@QEAA@AEBV0@@Z" ; msvcirt.dll
"??0stdiostream@@QEAA@PEAU_iobuf@@@Z" ; msvcirt.dll
"??0streambuf@@IEAA@PEADH@Z" ; msvcirt.dll
"??0streambuf@@IEAA@XZ" ; msvcirt.dll
"??0streambuf@@QEAA@AEBV0@@Z" ; msvcirt.dll
"??0strstream@@QEAA@AEBV0@@Z" ; msvcirt.dll
"??0strstream@@QEAA@PEADHH@Z" ; msvcirt.dll
"??0strstream@@QEAA@XZ" ; msvcirt.dll
"??0strstreambuf@@QEAA@AEBV0@@Z" ; msvcirt.dll
"??0strstreambuf@@QEAA@H@Z" ; msvcirt.dll
"??0strstreambuf@@QEAA@P6APEAXJ@ZP6AXPEAX@Z@Z" ; msvcirt.dll
"??0strstreambuf@@QEAA@PEADH0@Z" ; msvcirt.dll
"??0strstreambuf@@QEAA@PEAEH0@Z" ; msvcirt.dll
"??0strstreambuf@@QEAA@XZ" ; msvcirt.dll
"??1Iostream_init@@QEAA@XZ" ; msvcirt.dll
"??1exception@@UEAA@XZ" ; msvcirt.dll
"??1filebuf@@UEAA@XZ" ; msvcirt.dll
"??1fstream@@UEAA@XZ" ; msvcirt.dll
"??1ifstream@@UEAA@XZ" ; msvcirt.dll
"??1ios@@UEAA@XZ" ; msvcirt.dll
"??1iostream@@UEAA@XZ" ; msvcirt.dll
"??1istream@@UEAA@XZ" ; msvcirt.dll
"??1istream_withassign@@UEAA@XZ" ; msvcirt.dll
"??1istrstream@@UEAA@XZ" ; msvcirt.dll
"??1logic_error@@UEAA@XZ" ; msvcirt.dll
"??1ofstream@@UEAA@XZ" ; msvcirt.dll
"??1ostream@@UEAA@XZ" ; msvcirt.dll
"??1ostream_withassign@@UEAA@XZ" ; msvcirt.dll
"??1ostrstream@@UEAA@XZ" ; msvcirt.dll
"??1stdiobuf@@UEAA@XZ" ; msvcirt.dll
"??1stdiostream@@UEAA@XZ" ; msvcirt.dll
"??1streambuf@@UEAA@XZ" ; msvcirt.dll
"??1strstream@@UEAA@XZ" ; msvcirt.dll
"??1strstreambuf@@UEAA@XZ" ; msvcirt.dll
"??4Iostream_init@@QEAAAEAV0@AEBV0@@Z" ; msvcirt.dll
"??4exception@@QEAAAEAV0@AEBV0@@Z" ; msvcirt.dll
"??4filebuf@@QEAAAEAV0@AEBV0@@Z" ; msvcirt.dll
"??4fstream@@QEAAAEAV0@AEAV0@@Z" ; msvcirt.dll
"??4ifstream@@QEAAAEAV0@AEBV0@@Z" ; msvcirt.dll
"??4ios@@IEAAAEAV0@AEBV0@@Z" ; msvcirt.dll
"??4iostream@@IEAAAEAV0@AEAV0@@Z" ; msvcirt.dll
"??4iostream@@IEAAAEAV0@PEAVstreambuf@@@Z" ; msvcirt.dll
"??4istream@@IEAAAEAV0@AEBV0@@Z" ; msvcirt.dll
"??4istream@@IEAAAEAV0@PEAVstreambuf@@@Z" ; msvcirt.dll
"??4istream_withassign@@QEAAAEAV0@AEBV0@@Z" ; msvcirt.dll
"??4istream_withassign@@QEAAAEAVistream@@AEBV1@@Z" ; msvcirt.dll
"??4istream_withassign@@QEAAAEAVistream@@PEAVstreambuf@@@Z" ; msvcirt.dll
"??4istrstream@@QEAAAEAV0@AEBV0@@Z" ; msvcirt.dll
"??4logic_error@@QEAAAEAV0@AEBV0@@Z" ; msvcirt.dll
"??4ofstream@@QEAAAEAV0@AEBV0@@Z" ; msvcirt.dll
"??4ostream@@IEAAAEAV0@AEBV0@@Z" ; msvcirt.dll
"??4ostream@@IEAAAEAV0@PEAVstreambuf@@@Z" ; msvcirt.dll
"??4ostream_withassign@@QEAAAEAV0@AEBV0@@Z" ; msvcirt.dll
"??4ostream_withassign@@QEAAAEAVostream@@AEBV1@@Z" ; msvcirt.dll
"??4ostream_withassign@@QEAAAEAVostream@@PEAVstreambuf@@@Z" ; msvcirt.dll
"??4ostrstream@@QEAAAEAV0@AEBV0@@Z" ; msvcirt.dll
"??4stdiobuf@@QEAAAEAV0@AEBV0@@Z" ; msvcirt.dll
"??4stdiostream@@QEAAAEAV0@AEAV0@@Z" ; msvcirt.dll
"??4streambuf@@QEAAAEAV0@AEBV0@@Z" ; msvcirt.dll
"??4strstream@@QEAAAEAV0@AEAV0@@Z" ; msvcirt.dll
"??4strstreambuf@@QEAAAEAV0@AEBV0@@Z" ; msvcirt.dll
"??5istream@@QEAAAEAV0@AEAC@Z" ; msvcirt.dll
"??5istream@@QEAAAEAV0@AEAD@Z" ; msvcirt.dll
"??5istream@@QEAAAEAV0@AEAE@Z" ; msvcirt.dll
"??5istream@@QEAAAEAV0@AEAF@Z" ; msvcirt.dll
"??5istream@@QEAAAEAV0@AEAG@Z" ; msvcirt.dll
"??5istream@@QEAAAEAV0@AEAH@Z" ; msvcirt.dll
"??5istream@@QEAAAEAV0@AEAI@Z" ; msvcirt.dll
"??5istream@@QEAAAEAV0@AEAJ@Z" ; msvcirt.dll
"??5istream@@QEAAAEAV0@AEAK@Z" ; msvcirt.dll
"??5istream@@QEAAAEAV0@AEAM@Z" ; msvcirt.dll
"??5istream@@QEAAAEAV0@AEAN@Z" ; msvcirt.dll
"??5istream@@QEAAAEAV0@AEAO@Z" ; msvcirt.dll
"??5istream@@QEAAAEAV0@P6AAEAV0@AEAV0@@Z@Z" ; msvcirt.dll
"??5istream@@QEAAAEAV0@P6AAEAVios@@AEAV1@@Z@Z" ; msvcirt.dll
"??5istream@@QEAAAEAV0@PEAC@Z" ; msvcirt.dll
"??5istream@@QEAAAEAV0@PEAD@Z" ; msvcirt.dll
"??5istream@@QEAAAEAV0@PEAE@Z" ; msvcirt.dll
"??5istream@@QEAAAEAV0@PEAVstreambuf@@@Z" ; msvcirt.dll
"??6ostream@@QEAAAEAV0@C@Z" ; msvcirt.dll
"??6ostream@@QEAAAEAV0@D@Z" ; msvcirt.dll
"??6ostream@@QEAAAEAV0@E@Z" ; msvcirt.dll
"??6ostream@@QEAAAEAV0@F@Z" ; msvcirt.dll
"??6ostream@@QEAAAEAV0@G@Z" ; msvcirt.dll
"??6ostream@@QEAAAEAV0@H@Z" ; msvcirt.dll
"??6ostream@@QEAAAEAV0@I@Z" ; msvcirt.dll
"??6ostream@@QEAAAEAV0@J@Z" ; msvcirt.dll
"??6ostream@@QEAAAEAV0@K@Z" ; msvcirt.dll
"??6ostream@@QEAAAEAV0@M@Z" ; msvcirt.dll
"??6ostream@@QEAAAEAV0@N@Z" ; msvcirt.dll
"??6ostream@@QEAAAEAV0@O@Z" ; msvcirt.dll
"??6ostream@@QEAAAEAV0@P6AAEAV0@AEAV0@@Z@Z" ; msvcirt.dll
"??6ostream@@QEAAAEAV0@P6AAEAVios@@AEAV1@@Z@Z" ; msvcirt.dll
"??6ostream@@QEAAAEAV0@PEAVstreambuf@@@Z" ; msvcirt.dll
"??6ostream@@QEAAAEAV0@PEBC@Z" ; msvcirt.dll
"??6ostream@@QEAAAEAV0@PEBD@Z" ; msvcirt.dll
"??6ostream@@QEAAAEAV0@PEBE@Z" ; msvcirt.dll
"??6ostream@@QEAAAEAV0@PEBX@Z" ; msvcirt.dll
"??7ios@@QEBAHXZ" ; msvcirt.dll
"??Bios@@QEBAPEAXXZ" ; msvcirt.dll
"??_7exception@@6B@" ; msvcirt.dll
"??_7filebuf@@6B@" ; msvcirt.dll
"??_7fstream@@6B@" ; msvcirt.dll
"??_7ifstream@@6B@" ; msvcirt.dll
"??_7ios@@6B@" ; msvcirt.dll
"??_7iostream@@6B@" ; msvcirt.dll
"??_7istream@@6B@" ; msvcirt.dll
"??_7istream_withassign@@6B@" ; msvcirt.dll
"??_7istrstream@@6B@" ; msvcirt.dll
"??_7logic_error@@6B@" ; msvcirt.dll
"??_7ofstream@@6B@" ; msvcirt.dll
"??_7ostream@@6B@" ; msvcirt.dll
"??_7ostream_withassign@@6B@" ; msvcirt.dll
"??_7ostrstream@@6B@" ; msvcirt.dll
"??_7stdiobuf@@6B@" ; msvcirt.dll
"??_7stdiostream@@6B@" ; msvcirt.dll
"??_7streambuf@@6B@" ; msvcirt.dll
"??_7strstream@@6B@" ; msvcirt.dll
"??_7strstreambuf@@6B@" ; msvcirt.dll
"??_8fstream@@7Bistream@@@" ; msvcirt.dll
"??_8fstream@@7Bostream@@@" ; msvcirt.dll
"??_8ifstream@@7B@" ; msvcirt.dll
"??_8iostream@@7Bistream@@@" ; msvcirt.dll
"??_8iostream@@7Bostream@@@" ; msvcirt.dll
"??_8istream@@7B@" ; msvcirt.dll
"??_8istream_withassign@@7B@" ; msvcirt.dll
"??_8istrstream@@7B@" ; msvcirt.dll
"??_8ofstream@@7B@" ; msvcirt.dll
"??_8ostream@@7B@" ; msvcirt.dll
"??_8ostream_withassign@@7B@" ; msvcirt.dll
"??_8ostrstream@@7B@" ; msvcirt.dll
"??_8stdiostream@@7Bistream@@@" ; msvcirt.dll
"??_8stdiostream@@7Bostream@@@" ; msvcirt.dll
"??_8strstream@@7Bistream@@@" ; msvcirt.dll
"??_8strstream@@7Bostream@@@" ; msvcirt.dll
"??_Dfstream@@QEAAXXZ" ; msvcirt.dll
"??_Difstream@@QEAAXXZ" ; msvcirt.dll
"??_Diostream@@QEAAXXZ" ; msvcirt.dll
"??_Distream@@QEAAXXZ" ; msvcirt.dll
"??_Distream_withassign@@QEAAXXZ" ; msvcirt.dll
"??_Distrstream@@QEAAXXZ" ; msvcirt.dll
"??_Dofstream@@QEAAXXZ" ; msvcirt.dll
"??_Dostream@@QEAAXXZ" ; msvcirt.dll
"??_Dostream_withassign@@QEAAXXZ" ; msvcirt.dll
"??_Dostrstream@@QEAAXXZ" ; msvcirt.dll
"??_Dstdiostream@@QEAAXXZ" ; msvcirt.dll
"??_Dstrstream@@QEAAXXZ" ; msvcirt.dll
"?adjustfield@ios@@2JB" ; msvcirt.dll
"?allocate@streambuf@@IEAAHXZ" ; msvcirt.dll
"?attach@filebuf@@QEAAPEAV1@H@Z" ; msvcirt.dll
"?attach@fstream@@QEAAXH@Z" ; msvcirt.dll
"?attach@ifstream@@QEAAXH@Z" ; msvcirt.dll
"?attach@ofstream@@QEAAXH@Z" ; msvcirt.dll
"?bad@ios@@QEBAHXZ" ; msvcirt.dll
"?base@streambuf@@IEBAPEADXZ" ; msvcirt.dll
"?basefield@ios@@2JB" ; msvcirt.dll
"?binary@filebuf@@2HB" ; msvcirt.dll
"?bitalloc@ios@@SAJXZ" ; msvcirt.dll
"?blen@streambuf@@IEBAHXZ" ; msvcirt.dll
"?cerr@@3Vostream_withassign@@A" ; msvcirt.dll
"?cin@@3Vistream_withassign@@A" ; msvcirt.dll
"?clear@ios@@QEAAXH@Z" ; msvcirt.dll
"?clog@@3Vostream_withassign@@A" ; msvcirt.dll
"?close@filebuf@@QEAAPEAV1@XZ" ; msvcirt.dll
"?close@fstream@@QEAAXXZ" ; msvcirt.dll
"?close@ifstream@@QEAAXXZ" ; msvcirt.dll
"?close@ofstream@@QEAAXXZ" ; msvcirt.dll
"?clrlock@ios@@QEAAXXZ" ; msvcirt.dll
"?clrlock@streambuf@@QEAAXXZ" ; msvcirt.dll
"?cout@@3Vostream_withassign@@A" ; msvcirt.dll
"?dbp@streambuf@@QEAAXXZ" ; msvcirt.dll
"?dec@@YAAEAVios@@AEAV1@@Z" ; msvcirt.dll
"?delbuf@ios@@QEAAXH@Z" ; msvcirt.dll
"?delbuf@ios@@QEBAHXZ" ; msvcirt.dll
"?doallocate@streambuf@@MEAAHXZ" ; msvcirt.dll
"?doallocate@strstreambuf@@MEAAHXZ" ; msvcirt.dll
"?eatwhite@istream@@QEAAXXZ" ; msvcirt.dll
"?eback@streambuf@@IEBAPEADXZ" ; msvcirt.dll
"?ebuf@streambuf@@IEBAPEADXZ" ; msvcirt.dll
"?egptr@streambuf@@IEBAPEADXZ" ; msvcirt.dll
"?endl@@YAAEAVostream@@AEAV1@@Z" ; msvcirt.dll
"?ends@@YAAEAVostream@@AEAV1@@Z" ; msvcirt.dll
"?eof@ios@@QEBAHXZ" ; msvcirt.dll
"?epptr@streambuf@@IEBAPEADXZ" ; msvcirt.dll
"?fLockcInit@ios@@0HA" ; msvcirt.dll
"?fail@ios@@QEBAHXZ" ; msvcirt.dll
"?fd@filebuf@@QEBAHXZ" ; msvcirt.dll
"?fd@fstream@@QEBAHXZ" ; msvcirt.dll
"?fd@ifstream@@QEBAHXZ" ; msvcirt.dll
"?fd@ofstream@@QEBAHXZ" ; msvcirt.dll
"?fill@ios@@QEAADD@Z" ; msvcirt.dll
"?fill@ios@@QEBADXZ" ; msvcirt.dll
"?flags@ios@@QEAAJJ@Z" ; msvcirt.dll
"?flags@ios@@QEBAJXZ" ; msvcirt.dll
"?floatfield@ios@@2JB" ; msvcirt.dll
"?flush@@YAAEAVostream@@AEAV1@@Z" ; msvcirt.dll
"?flush@ostream@@QEAAAEAV1@XZ" ; msvcirt.dll
"?freeze@strstreambuf@@QEAAXH@Z" ; msvcirt.dll
"?gbump@streambuf@@IEAAXH@Z" ; msvcirt.dll
"?gcount@istream@@QEBAHXZ" ; msvcirt.dll
"?get@istream@@IEAAAEAV1@PEADHH@Z" ; msvcirt.dll
"?get@istream@@QEAAAEAV1@AEAC@Z" ; msvcirt.dll
"?get@istream@@QEAAAEAV1@AEAD@Z" ; msvcirt.dll
"?get@istream@@QEAAAEAV1@AEAE@Z" ; msvcirt.dll
"?get@istream@@QEAAAEAV1@AEAVstreambuf@@D@Z" ; msvcirt.dll
"?get@istream@@QEAAAEAV1@PEACHD@Z" ; msvcirt.dll
"?get@istream@@QEAAAEAV1@PEADHD@Z" ; msvcirt.dll
"?get@istream@@QEAAAEAV1@PEAEHD@Z" ; msvcirt.dll
"?get@istream@@QEAAHXZ" ; msvcirt.dll
"?getdouble@istream@@AEAAHPEADH@Z" ; msvcirt.dll
"?getint@istream@@AEAAHPEAD@Z" ; msvcirt.dll
"?getline@istream@@QEAAAEAV1@PEACHD@Z" ; msvcirt.dll
"?getline@istream@@QEAAAEAV1@PEADHD@Z" ; msvcirt.dll
"?getline@istream@@QEAAAEAV1@PEAEHD@Z" ; msvcirt.dll
"?good@ios@@QEBAHXZ" ; msvcirt.dll
"?gptr@streambuf@@IEBAPEADXZ" ; msvcirt.dll
"?hex@@YAAEAVios@@AEAV1@@Z" ; msvcirt.dll
"?ignore@istream@@QEAAAEAV1@HH@Z" ; msvcirt.dll
"?in_avail@streambuf@@QEBAHXZ" ; msvcirt.dll
"?init@ios@@IEAAXPEAVstreambuf@@@Z" ; msvcirt.dll
"?ipfx@istream@@QEAAHH@Z" ; msvcirt.dll
"?is_open@filebuf@@QEBAHXZ" ; msvcirt.dll
"?is_open@fstream@@QEBAHXZ" ; msvcirt.dll
"?is_open@ifstream@@QEBAHXZ" ; msvcirt.dll
"?is_open@ofstream@@QEBAHXZ" ; msvcirt.dll
"?isfx@istream@@QEAAXXZ" ; msvcirt.dll
"?iword@ios@@QEBAAEAJH@Z" ; msvcirt.dll
"?lock@ios@@QEAAXXZ" ; msvcirt.dll
"?lock@streambuf@@QEAAXXZ" ; msvcirt.dll
"?lockbuf@ios@@QEAAXXZ" ; msvcirt.dll
"?lockc@ios@@KAXXZ" ; msvcirt.dll
"?lockptr@ios@@IEAAPEAU_CRT_CRITICAL_SECTION@@XZ" ; msvcirt.dll
"?lockptr@streambuf@@IEAAPEAU_CRT_CRITICAL_SECTION@@XZ" ; msvcirt.dll
"?oct@@YAAEAVios@@AEAV1@@Z" ; msvcirt.dll
"?open@filebuf@@QEAAPEAV1@PEBDHH@Z" ; msvcirt.dll
"?open@fstream@@QEAAXPEBDHH@Z" ; msvcirt.dll
"?open@ifstream@@QEAAXPEBDHH@Z" ; msvcirt.dll
"?open@ofstream@@QEAAXPEBDHH@Z" ; msvcirt.dll
"?openprot@filebuf@@2HB" ; msvcirt.dll
"?opfx@ostream@@QEAAHXZ" ; msvcirt.dll
"?osfx@ostream@@QEAAXXZ" ; msvcirt.dll
"?out_waiting@streambuf@@QEBAHXZ" ; msvcirt.dll
"?overflow@filebuf@@UEAAHH@Z" ; msvcirt.dll
"?overflow@stdiobuf@@UEAAHH@Z" ; msvcirt.dll
"?overflow@strstreambuf@@UEAAHH@Z" ; msvcirt.dll
"?pbackfail@stdiobuf@@UEAAHH@Z" ; msvcirt.dll
"?pbackfail@streambuf@@UEAAHH@Z" ; msvcirt.dll
"?pbase@streambuf@@IEBAPEADXZ" ; msvcirt.dll
"?pbump@streambuf@@IEAAXH@Z" ; msvcirt.dll
"?pcount@ostrstream@@QEBAHXZ" ; msvcirt.dll
"?pcount@strstream@@QEBAHXZ" ; msvcirt.dll
"?peek@istream@@QEAAHXZ" ; msvcirt.dll
"?pptr@streambuf@@IEBAPEADXZ" ; msvcirt.dll
"?precision@ios@@QEAAHH@Z" ; msvcirt.dll
"?precision@ios@@QEBAHXZ" ; msvcirt.dll
"?put@ostream@@QEAAAEAV1@C@Z" ; msvcirt.dll
"?put@ostream@@QEAAAEAV1@D@Z" ; msvcirt.dll
"?put@ostream@@QEAAAEAV1@E@Z" ; msvcirt.dll
"?putback@istream@@QEAAAEAV1@D@Z" ; msvcirt.dll
"?pword@ios@@QEBAAEAPEAXH@Z" ; msvcirt.dll
"?rdbuf@fstream@@QEBAPEAVfilebuf@@XZ" ; msvcirt.dll
"?rdbuf@ifstream@@QEBAPEAVfilebuf@@XZ" ; msvcirt.dll
"?rdbuf@ios@@QEBAPEAVstreambuf@@XZ" ; msvcirt.dll
"?rdbuf@istrstream@@QEBAPEAVstrstreambuf@@XZ" ; msvcirt.dll
"?rdbuf@ofstream@@QEBAPEAVfilebuf@@XZ" ; msvcirt.dll
"?rdbuf@ostrstream@@QEBAPEAVstrstreambuf@@XZ" ; msvcirt.dll
"?rdbuf@stdiostream@@QEBAPEAVstdiobuf@@XZ" ; msvcirt.dll
"?rdbuf@strstream@@QEBAPEAVstrstreambuf@@XZ" ; msvcirt.dll
"?rdstate@ios@@QEBAHXZ" ; msvcirt.dll
"?read@istream@@QEAAAEAV1@PEACH@Z" ; msvcirt.dll
"?read@istream@@QEAAAEAV1@PEADH@Z" ; msvcirt.dll
"?read@istream@@QEAAAEAV1@PEAEH@Z" ; msvcirt.dll
"?sbumpc@streambuf@@QEAAHXZ" ; msvcirt.dll
"?seekg@istream@@QEAAAEAV1@J@Z" ; msvcirt.dll
"?seekg@istream@@QEAAAEAV1@JW4seek_dir@ios@@@Z" ; msvcirt.dll
"?seekoff@filebuf@@UEAAJJW4seek_dir@ios@@H@Z" ; msvcirt.dll
"?seekoff@stdiobuf@@UEAAJJW4seek_dir@ios@@H@Z" ; msvcirt.dll
"?seekoff@streambuf@@UEAAJJW4seek_dir@ios@@H@Z" ; msvcirt.dll
"?seekoff@strstreambuf@@UEAAJJW4seek_dir@ios@@H@Z" ; msvcirt.dll
"?seekp@ostream@@QEAAAEAV1@J@Z" ; msvcirt.dll
"?seekp@ostream@@QEAAAEAV1@JW4seek_dir@ios@@@Z" ; msvcirt.dll
"?seekpos@streambuf@@UEAAJJH@Z" ; msvcirt.dll
"?setb@streambuf@@IEAAXPEAD0H@Z" ; msvcirt.dll
"?setbuf@filebuf@@UEAAPEAVstreambuf@@PEADH@Z" ; msvcirt.dll
"?setbuf@fstream@@QEAAPEAVstreambuf@@PEADH@Z" ; msvcirt.dll
"?setbuf@ifstream@@QEAAPEAVstreambuf@@PEADH@Z" ; msvcirt.dll
"?setbuf@ofstream@@QEAAPEAVstreambuf@@PEADH@Z" ; msvcirt.dll
"?setbuf@streambuf@@UEAAPEAV1@PEADH@Z" ; msvcirt.dll
"?setbuf@strstreambuf@@UEAAPEAVstreambuf@@PEADH@Z" ; msvcirt.dll
"?setf@ios@@QEAAJJ@Z" ; msvcirt.dll
"?setf@ios@@QEAAJJJ@Z" ; msvcirt.dll
"?setg@streambuf@@IEAAXPEAD00@Z" ; msvcirt.dll
"?setlock@ios@@QEAAXXZ" ; msvcirt.dll
"?setlock@streambuf@@QEAAXXZ" ; msvcirt.dll
"?setmode@filebuf@@QEAAHH@Z" ; msvcirt.dll
"?setmode@fstream@@QEAAHH@Z" ; msvcirt.dll
"?setmode@ifstream@@QEAAHH@Z" ; msvcirt.dll
"?setmode@ofstream@@QEAAHH@Z" ; msvcirt.dll
"?setp@streambuf@@IEAAXPEAD0@Z" ; msvcirt.dll
"?setrwbuf@stdiobuf@@QEAAHHH@Z" ; msvcirt.dll
"?sgetc@streambuf@@QEAAHXZ" ; msvcirt.dll
"?sgetn@streambuf@@QEAAHPEADH@Z" ; msvcirt.dll
"?sh_none@filebuf@@2HB" ; msvcirt.dll
"?sh_read@filebuf@@2HB" ; msvcirt.dll
"?sh_write@filebuf@@2HB" ; msvcirt.dll
"?snextc@streambuf@@QEAAHXZ" ; msvcirt.dll
"?sputbackc@streambuf@@QEAAHD@Z" ; msvcirt.dll
"?sputc@streambuf@@QEAAHH@Z" ; msvcirt.dll
"?sputn@streambuf@@QEAAHPEBDH@Z" ; msvcirt.dll
"?stdiofile@stdiobuf@@QEAAPEAU_iobuf@@XZ" ; msvcirt.dll
"?stossc@streambuf@@QEAAXXZ" ; msvcirt.dll
"?str@istrstream@@QEAAPEADXZ" ; msvcirt.dll
"?str@ostrstream@@QEAAPEADXZ" ; msvcirt.dll
"?str@strstream@@QEAAPEADXZ" ; msvcirt.dll
"?str@strstreambuf@@QEAAPEADXZ" ; msvcirt.dll
"?sunk_with_stdio@ios@@0HA" ; msvcirt.dll
"?sync@filebuf@@UEAAHXZ" ; msvcirt.dll
"?sync@istream@@QEAAHXZ" ; msvcirt.dll
"?sync@stdiobuf@@UEAAHXZ" ; msvcirt.dll
"?sync@streambuf@@UEAAHXZ" ; msvcirt.dll
"?sync@strstreambuf@@UEAAHXZ" ; msvcirt.dll
"?sync_with_stdio@ios@@SAXXZ" ; msvcirt.dll
"?tellg@istream@@QEAAJXZ" ; msvcirt.dll
"?tellp@ostream@@QEAAJXZ" ; msvcirt.dll
"?text@filebuf@@2HB" ; msvcirt.dll
"?tie@ios@@QEAAPEAVostream@@PEAV2@@Z" ; msvcirt.dll
"?tie@ios@@QEBAPEAVostream@@XZ" ; msvcirt.dll
"?unbuffered@streambuf@@IEAAXH@Z" ; msvcirt.dll
"?unbuffered@streambuf@@IEBAHXZ" ; msvcirt.dll
"?underflow@filebuf@@UEAAHXZ" ; msvcirt.dll
"?underflow@stdiobuf@@UEAAHXZ" ; msvcirt.dll
"?underflow@strstreambuf@@UEAAHXZ" ; msvcirt.dll
"?unlock@ios@@QEAAXXZ" ; msvcirt.dll
"?unlock@streambuf@@QEAAXXZ" ; msvcirt.dll
"?unlockbuf@ios@@QEAAXXZ" ; msvcirt.dll
"?unlockc@ios@@KAXXZ" ; msvcirt.dll
"?unsetf@ios@@QEAAJJ@Z" ; msvcirt.dll
"?what@exception@@UEBAPEBDXZ" ; msvcirt.dll
"?width@ios@@QEAAHH@Z" ; msvcirt.dll
"?width@ios@@QEBAHXZ" ; msvcirt.dll
"?write@ostream@@QEAAAEAV1@PEBCH@Z" ; msvcirt.dll
"?write@ostream@@QEAAAEAV1@PEBDH@Z" ; msvcirt.dll
"?write@ostream@@QEAAAEAV1@PEBEH@Z" ; msvcirt.dll
"?writepad@ostream@@AEAAAEAV1@PEBD0@Z" ; msvcirt.dll
"?ws@@YAAEAVistream@@AEAV1@@Z" ; msvcirt.dll
"?x_curindex@ios@@0HA" ; msvcirt.dll
"?x_lockc@ios@@0U_CRT_CRITICAL_SECTION@@A" ; msvcirt.dll
"?x_maxbit@ios@@0JA" ; msvcirt.dll
"?x_statebuf@ios@@0PAJA" ; msvcirt.dll
"?xalloc@ios@@SAHXZ" ; msvcirt.dll
"?xsgetn@streambuf@@UEAAHPEADH@Z" ; msvcirt.dll
"?xsputn@streambuf@@UEAAHPEBDH@Z" ; msvcirt.dll
"__dummy_export" ; msvcirt.dll
"_mtlock" ; msvcirt.dll
"_mtunlock" ; msvcirt.dll
