LIBRARY "netui2.dll"
EXPORTS
"??0ACCELTABLE@@QEAA@AEBVIDRESOURCE@@@Z" ; netui2.dll
"??0ACCOUNT_NAMES_MLE@@QEAA@PEAVOWNER_WINDOW@@IPEBGPEAVNT_USER_BROWSER_DIALOG@@HKW4FontType@@@Z" ; netui2.dll
"??0ACTIVATION_EVENT@@QEAA@I_K_J@Z" ; netui2.dll
"??0ALIAS_STR@@QEAA@PEBG@Z" ; netui2.dll
"??0ALLOC_STR@@QEAA@PEAGI@Z" ; netui2.dll
"??0APPLICATION@@IEAA@PEAUHINSTANCE__@@HIIII@Z" ; netui2.dll
"??0APP_WINDOW@@IEAA@AEBVNLS_STR@@AEBVIDRESOURCE@@1@Z" ; netui2.dll
"??0APP_WINDOW@@IEAA@VXYPOINT@@VXYDIMENSION@@AEBVNLS_STR@@AEBVIDRESOURCE@@3@Z" ; netui2.dll
"??0ARRAY_CONTROLVAL_CID_PAIR@@QEAA@I@Z" ; netui2.dll
"??0ARRAY_CONTROLVAL_CID_PAIR@@QEAA@PEAVCONTROLVAL_CID_PAIR@@IH@Z" ; netui2.dll
"??0ARRAY_LIST_CONTROLVAL_CID_PAIR@@QEAA@I@Z" ; netui2.dll
"??0ARROW_BUTTON@@QEAA@PEAVOWNER_WINDOW@@IIII@Z" ; netui2.dll
"??0ARROW_BUTTON@@QEAA@PEAVOWNER_WINDOW@@IIIIVXYPOINT@@VXYDIMENSION@@K@Z" ; netui2.dll
"??0ASSOCHCFILE@@QEAA@PEAUHINSTANCE__@@JKK@Z" ; netui2.dll
"??0ASSOCHWNDDISP@@QEAA@PEAUHWND__@@PEBVDISPATCHER@@@Z" ; netui2.dll
"??0ASSOCHWNDPDLG@@QEAA@PEAUHWND__@@PEBVDIALOG_WINDOW@@@Z" ; netui2.dll
"??0ASSOCHWNDPWND@@QEAA@PEAUHWND__@@PEBVCLIENT_WINDOW@@@Z" ; netui2.dll
"??0ASSOCHWNDTHIS@@QEAA@PEAUHWND__@@PEBX@Z" ; netui2.dll
"??0ATOM_BASE@@IEAA@G@Z" ; netui2.dll
"??0ATOM_BASE@@IEAA@XZ" ; netui2.dll
"??0AUDIT_CHECKBOXES@@QEAA@PEAVOWNER_WINDOW@@IIIAEBVNLS_STR@@AEBVBITFIELD@@@Z" ; netui2.dll
"??0AUTO_CURSOR@@QEAA@PEBG@Z" ; netui2.dll
"??0BASE@@IEAA@XZ" ; netui2.dll
"??0BASE@@QEAA@AEBV0@@Z" ; netui2.dll
"??0BASE_ELLIPSIS@@IEAA@W4ELLIPSIS_STYLE@@@Z" ; netui2.dll
"??0BASE_PASSWORD_DIALOG@@QEAA@PEAUHWND__@@PEBGIIK1II1I1@Z" ; netui2.dll
"??0BASE_SET_FOCUS_DLG@@QEAA@QEAUHWND__@@W4SELECTION_TYPE@@KPEBGK2K@Z" ; netui2.dll
"??0BIT_MAP@@QEAA@AEBVIDRESOURCE@@@Z" ; netui2.dll
"??0BIT_MAP@@QEAA@PEAUHBITMAP__@@@Z" ; netui2.dll
"??0BLT_BACKGROUND_EDIT@@QEAA@PEAVOWNER_WINDOW@@I@Z" ; netui2.dll
"??0BLT_COMBOBOX@@QEAA@PEAVOWNER_WINDOW@@IHW4FontType@@@Z" ; netui2.dll
"??0BLT_COMBOBOX@@QEAA@PEAVOWNER_WINDOW@@IVXYPOINT@@VXYDIMENSION@@KHW4FontType@@@Z" ; netui2.dll
"??0BLT_DATE_SPIN_GROUP@@QEAA@PEAVOWNER_WINDOW@@AEBVINTL_PROFILE@@IIIIIIIII@Z" ; netui2.dll
"??0BLT_LISTBOX@@QEAA@PEAVOWNER_WINDOW@@IHW4FontType@@H@Z" ; netui2.dll
"??0BLT_LISTBOX@@QEAA@PEAVOWNER_WINDOW@@IVXYPOINT@@VXYDIMENSION@@KHW4FontType@@H@Z" ; netui2.dll
"??0BLT_LISTBOX_HAW@@QEAA@PEAVOWNER_WINDOW@@IHW4FontType@@H@Z" ; netui2.dll
"??0BLT_LISTBOX_HAW@@QEAA@PEAVOWNER_WINDOW@@IVXYPOINT@@VXYDIMENSION@@KHW4FontType@@H@Z" ; netui2.dll
"??0BLT_MASTER_TIMER@@QEAA@XZ" ; netui2.dll
"??0BLT_SCRATCH@@QEAA@I@Z" ; netui2.dll
"??0BLT_TIME_SPIN_GROUP@@QEAA@PEAVOWNER_WINDOW@@AEBVINTL_PROFILE@@IIIIIIIIII@Z" ; netui2.dll
"??0BROWSER_DOMAIN@@QEAA@PEBGPEAXHH@Z" ; netui2.dll
"??0BROWSER_DOMAIN_CB@@QEAA@PEAVOWNER_WINDOW@@I@Z" ; netui2.dll
"??0BROWSER_DOMAIN_LB@@QEAA@PEAVOWNER_WINDOW@@IPEAVBROWSER_DOMAIN_CB@@@Z" ; netui2.dll
"??0BROWSER_DOMAIN_LBI@@QEAA@PEAVBROWSER_DOMAIN@@@Z" ; netui2.dll
"??0BROWSER_DOMAIN_LBI_PB@@QEAA@PEAVBROWSER_DOMAIN_LBI@@@Z" ; netui2.dll
"??0BROWSER_SUBJECT@@QEAA@XZ" ; netui2.dll
"??0BROWSER_SUBJECT_ITER@@QEAA@PEAVNT_USER_BROWSER_DIALOG@@@Z" ; netui2.dll
"??0BUTTON_CONTROL@@IEAA@PEAVOWNER_WINDOW@@I@Z" ; netui2.dll
"??0BUTTON_CONTROL@@IEAA@PEAVOWNER_WINDOW@@IVXYPOINT@@VXYDIMENSION@@K@Z" ; netui2.dll
"??0CANCEL_TASK_DIALOG@@QEAA@IPEAUHWND__@@PEBG_KJW4ELLIPSIS_STYLE@@@Z" ; netui2.dll
"??0CHANGEABLE_SPIN_ITEM@@QEAA@PEAVCONTROL_WINDOW@@KKKH@Z" ; netui2.dll
"??0CHECKBOX@@QEAA@PEAVOWNER_WINDOW@@I@Z" ; netui2.dll
"??0CLIENT_WINDOW@@IEAA@KPEBVWINDOW@@PEBG@Z" ; netui2.dll
"??0CLIENT_WINDOW@@IEAA@XZ" ; netui2.dll
"??0COMBOBOX@@QEAA@PEAVOWNER_WINDOW@@II@Z" ; netui2.dll
"??0COMBOBOX@@QEAA@PEAVOWNER_WINDOW@@IIVXYPOINT@@VXYDIMENSION@@KPEBG@Z" ; netui2.dll
"??0CONSOLE_ELLIPSIS@@QEAA@W4ELLIPSIS_STYLE@@H@Z" ; netui2.dll
"??0CONTROLVAL_CID_PAIR@@QEAA@IPEAVCONTROL_VALUE@@@Z" ; netui2.dll
"??0CONTROLVAL_CID_PAIR@@QEAA@XZ" ; netui2.dll
"??0CONTROL_ENTRY@@AEAA@PEAVCONTROL_WINDOW@@@Z" ; netui2.dll
"??0CONTROL_EVENT@@QEAA@II@Z" ; netui2.dll
"??0CONTROL_EVENT@@QEAA@I_K_J@Z" ; netui2.dll
"??0CONTROL_GROUP@@QEAA@PEAV0@@Z" ; netui2.dll
"??0CONTROL_TABLE@@QEAA@XZ" ; netui2.dll
"??0CONTROL_VALUE@@QEAA@PEAVCONTROL_GROUP@@@Z" ; netui2.dll
"??0CONTROL_WINDOW@@QEAA@PEAVOWNER_WINDOW@@I@Z" ; netui2.dll
"??0CONTROL_WINDOW@@QEAA@PEAVOWNER_WINDOW@@IVXYPOINT@@VXYDIMENSION@@KPEBG@Z" ; netui2.dll
"??0CUSTOM_CONTROL@@QEAA@PEAVCONTROL_WINDOW@@@Z" ; netui2.dll
"??0DEC_SLT@@QEAA@PEAVOWNER_WINDOW@@II@Z" ; netui2.dll
"??0DEC_SLT@@QEAA@PEAVOWNER_WINDOW@@IVXYPOINT@@VXYDIMENSION@@KPEBGI@Z" ; netui2.dll
"??0DEVICE_COMBO@@QEAA@PEAVOWNER_WINDOW@@IW4LMO_DEVICE@@W4LMO_DEV_USAGE@@@Z" ; netui2.dll
"??0DEVICE_CONTEXT@@QEAA@PEAUHDC__@@@Z" ; netui2.dll
"??0DIALOG_WINDOW@@IEAA@PEBEIPEAUHWND__@@H@Z" ; netui2.dll
"??0DIALOG_WINDOW@@QEAA@AEBVIDRESOURCE@@AEBVPWND2HWND@@H@Z" ; netui2.dll
"??0DISK_SPACE_SUBCLASS@@QEAA@PEAVOWNER_WINDOW@@IIIIIJJJJJH@Z" ; netui2.dll
"??0DISPATCHER@@IEAA@PEAVWINDOW@@@Z" ; netui2.dll
"??0DISPLAY_CONTEXT@@QEAA@PEAUHWND__@@@Z" ; netui2.dll
"??0DISPLAY_CONTEXT@@QEAA@PEAVWINDOW@@@Z" ; netui2.dll
"??0DISPLAY_CONTEXT@@QEAA@PEAVWINDOW@@PEAUHDC__@@@Z" ; netui2.dll
"??0DISPLAY_MAP@@QEAA@I@Z" ; netui2.dll
"??0DISPLAY_TABLE@@QEAA@IPEBI@Z" ; netui2.dll
"??0DLGLOAD@@QEAA@AEBVIDRESOURCE@@PEAUHWND__@@P6A_J1I_K_J@ZH@Z" ; netui2.dll
"??0DLGLOAD@@QEAA@PEBEIPEAUHWND__@@P6A_J1I_K_J@ZH@Z" ; netui2.dll
"??0DLIST_OF_SPIN_ITEM@@QEAA@H@Z" ; netui2.dll
"??0DMID_DTE@@QEAA@I@Z" ; netui2.dll
"??0DM_DTE@@IEAA@XZ" ; netui2.dll
"??0DM_DTE@@QEAA@PEAVDISPLAY_MAP@@@Z" ; netui2.dll
"??0DOMAIN_COMBO@@QEAA@PEAVOWNER_WINDOW@@III@Z" ; netui2.dll
"??0DOMAIN_FILL_THREAD@@QEAA@PEAVNT_USER_BROWSER_DIALOG@@PEAVBROWSER_DOMAIN@@PEBVADMIN_AUTHORITY@@@Z" ; netui2.dll
"??0DTE@@IEAA@XZ" ; netui2.dll
"??0EDIT_CONTROL@@QEAA@PEAVOWNER_WINDOW@@II@Z" ; netui2.dll
"??0EDIT_CONTROL@@QEAA@PEAVOWNER_WINDOW@@IVXYPOINT@@VXYDIMENSION@@KPEBGI@Z" ; netui2.dll
"??0ELAPSED_TIME_CONTROL@@QEAA@PEAVOWNER_WINDOW@@IIIIIIAEAVSLT@@JJJ11JJJJH@Z" ; netui2.dll
"??0EVENT@@QEAA@I_K_J@Z" ; netui2.dll
"??0EXPANDABLE_DIALOG@@QEAA@PEBGPEAUHWND__@@IIH@Z" ; netui2.dll
"??0FOCUSDLG_DATA_THREAD@@QEAA@PEAUHWND__@@KW4SELECTION_TYPE@@PEBGK@Z" ; netui2.dll
"??0FOCUS_CHECKBOX@@QEAA@PEAVOWNER_WINDOW@@I@Z" ; netui2.dll
"??0FONT@@QEAA@AEBUtagLOGFONTW@@@Z" ; netui2.dll
"??0FONT@@QEAA@PEBGEHW4FontAttributes@@@Z" ; netui2.dll
"??0FONT@@QEAA@W4FontType@@@Z" ; netui2.dll
"??0FORWARDING_BASE@@IEAA@PEAVBASE@@@Z" ; netui2.dll
"??0GET_FNAME_BASE_DLG@@IEAA@PEAVOWNER_WINDOW@@PEBGK@Z" ; netui2.dll
"??0GET_OPEN_FILENAME_DLG@@QEAA@PEAVOWNER_WINDOW@@PEBGK@Z" ; netui2.dll
"??0GET_SAVE_FILENAME_DLG@@QEAA@PEAVOWNER_WINDOW@@PEBGK@Z" ; netui2.dll
"??0GLOBAL_ATOM@@QEAA@PEBG@Z" ; netui2.dll
"??0GRAPHICAL_BUTTON@@QEAA@PEAVOWNER_WINDOW@@IPEBG11@Z" ; netui2.dll
"??0GRAPHICAL_BUTTON@@QEAA@PEAVOWNER_WINDOW@@IPEBG1VXYPOINT@@VXYDIMENSION@@K1@Z" ; netui2.dll
"??0GRAPHICAL_BUTTON_WITH_DISABLE@@QEAA@PEAVOWNER_WINDOW@@IIII@Z" ; netui2.dll
"??0GRAPHICAL_BUTTON_WITH_DISABLE@@QEAA@PEAVOWNER_WINDOW@@IIIIVXYPOINT@@VXYDIMENSION@@K@Z" ; netui2.dll
"??0HAS_MESSAGE_PUMP@@QEAA@XZ" ; netui2.dll
"??0HAW_FOR_HAWAII_INFO@@QEAA@XZ" ; netui2.dll
"??0HIDDEN_CONTROL@@QEAA@PEAVOWNER_WINDOW@@I@Z" ; netui2.dll
"??0HIER_LBI@@QEAA@H@Z" ; netui2.dll
"??0HIER_LBI_ITERATOR@@QEAA@PEAVHIER_LBI@@H@Z" ; netui2.dll
"??0HIER_LISTBOX@@QEAA@PEAVOWNER_WINDOW@@IHW4FontType@@H@Z" ; netui2.dll
"??0HIER_LISTBOX@@QEAA@PEAVOWNER_WINDOW@@IVXYPOINT@@VXYDIMENSION@@KHW4FontType@@H@Z" ; netui2.dll
"??0H_SPLITTER_BAR@@QEAA@PEAVOWNER_WINDOW@@I@Z" ; netui2.dll
"??0H_SPLITTER_BAR@@QEAA@PEAVOWNER_WINDOW@@IVXYPOINT@@VXYDIMENSION@@K@Z" ; netui2.dll
"??0ICANON_SLE@@QEAA@PEAVOWNER_WINDOW@@IIH@Z" ; netui2.dll
"??0ICANON_SLE@@QEAA@PEAVOWNER_WINDOW@@IVXYPOINT@@VXYDIMENSION@@KPEBGIH@Z" ; netui2.dll
"??0ICON_CONTROL@@QEAA@PEAVOWNER_WINDOW@@I@Z" ; netui2.dll
"??0ICON_CONTROL@@QEAA@PEAVOWNER_WINDOW@@IAEBVIDRESOURCE@@@Z" ; netui2.dll
"??0ICON_CONTROL@@QEAA@PEAVOWNER_WINDOW@@IVXYPOINT@@VXYDIMENSION@@AEBVIDRESOURCE@@KPEBG@Z" ; netui2.dll
"??0ICON_CONTROL@@QEAA@PEAVOWNER_WINDOW@@IVXYPOINT@@VXYDIMENSION@@KPEBG@Z" ; netui2.dll
"??0IDRESOURCE@@QEAA@I@Z" ; netui2.dll
"??0IDRESOURCE@@QEAA@PEBG@Z" ; netui2.dll
"??0ITER_CTRL@@QEAA@PEBVOWNER_WINDOW@@@Z" ; netui2.dll
"??0ITER_DL_SPIN_ITEM@@QEAA@AEAVDLIST@@@Z" ; netui2.dll
"??0ITER_SL_ASSOCHCFILE@@QEAA@AEAVSLIST@@@Z" ; netui2.dll
"??0ITER_SL_CLIENTDATA@@QEAA@AEAVSLIST@@@Z" ; netui2.dll
"??0ITER_SL_STRING_BITSET_PAIR@@QEAA@AEAVSLIST@@@Z" ; netui2.dll
"??0ITER_SL_TIMER_BASE@@QEAA@AEAVSLIST@@@Z" ; netui2.dll
"??0ITER_SL_UI_EXT@@QEAA@AEAVSLIST@@@Z" ; netui2.dll
"??0ITER_SL_USER_BROWSER_LBI@@QEAA@AEAVSLIST@@@Z" ; netui2.dll
"??0LAZY_LISTBOX@@QEAA@PEAVOWNER_WINDOW@@IHW4FontType@@@Z" ; netui2.dll
"??0LAZY_LISTBOX@@QEAA@PEAVOWNER_WINDOW@@IVXYPOINT@@VXYDIMENSION@@KHW4FontType@@@Z" ; netui2.dll
"??0LBI@@QEAA@XZ" ; netui2.dll
"??0LBITREE@@QEAA@XZ" ; netui2.dll
"??0LBI_HEAP@@QEAA@HH@Z" ; netui2.dll
"??0LB_COLUMN_HEADER@@QEAA@PEAVOWNER_WINDOW@@IVXYPOINT@@VXYDIMENSION@@@Z" ; netui2.dll
"??0LB_COL_WIDTHS@@QEAA@PEAUHWND__@@PEAUHINSTANCE__@@AEBVIDRESOURCE@@II@Z" ; netui2.dll
"??0LISTBOX@@QEAA@PEAVOWNER_WINDOW@@IHW4FontType@@H@Z" ; netui2.dll
"??0LISTBOX@@QEAA@PEAVOWNER_WINDOW@@IVXYPOINT@@VXYDIMENSION@@KHW4FontType@@H@Z" ; netui2.dll
"??0LIST_CONTROL@@IEAA@PEAVOWNER_WINDOW@@IH@Z" ; netui2.dll
"??0LIST_CONTROL@@IEAA@PEAVOWNER_WINDOW@@IHVXYPOINT@@VXYDIMENSION@@KPEBG@Z" ; netui2.dll
"??0LM_OLLB@@QEAA@PEAVOWNER_WINDOW@@IW4SELECTION_TYPE@@K@Z" ; netui2.dll
"??0LM_OLLB@@QEAA@PEAVOWNER_WINDOW@@IW4SELECTION_TYPE@@PEBGKK@Z" ; netui2.dll
"??0LOCAL_ATOM@@QEAA@PEBG@Z" ; netui2.dll
"??0LOGON_HOURS_CONTROL@@QEAA@PEAVOWNER_WINDOW@@I@Z" ; netui2.dll
"??0LOGON_HOURS_CONTROL@@QEAA@PEAVOWNER_WINDOW@@IVXYPOINT@@VXYDIMENSION@@@Z" ; netui2.dll
"??0MAGIC_GROUP@@QEAA@PEAVOWNER_WINDOW@@IHIPEAVCONTROL_GROUP@@@Z" ; netui2.dll
"??0MASK_MAP@@QEAA@XZ" ; netui2.dll
"??0MEMORY_DC@@QEAA@AEAVDEVICE_CONTEXT@@@Z" ; netui2.dll
"??0MENUITEM@@IEAA@PEAUHMENU__@@I@Z" ; netui2.dll
"??0MENUITEM@@QEAA@PEAVAPP_WINDOW@@I@Z" ; netui2.dll
"??0MENU_BASE@@IEAA@PEAUHMENU__@@@Z" ; netui2.dll
"??0METER@@QEAA@PEAVOWNER_WINDOW@@IK@Z" ; netui2.dll
"??0METER@@QEAA@PEAVOWNER_WINDOW@@IVXYPOINT@@VXYDIMENSION@@KK@Z" ; netui2.dll
"??0MLE@@QEAA@PEAVOWNER_WINDOW@@II@Z" ; netui2.dll
"??0MLE@@QEAA@PEAVOWNER_WINDOW@@IVXYPOINT@@VXYDIMENSION@@KPEBGI@Z" ; netui2.dll
"??0MLE_FONT@@QEAA@PEAVOWNER_WINDOW@@IW4FontType@@@Z" ; netui2.dll
"??0MLT@@QEAA@PEAVOWNER_WINDOW@@I@Z" ; netui2.dll
"??0MLT@@QEAA@PEAVOWNER_WINDOW@@IVXYPOINT@@VXYDIMENSION@@KPEBG@Z" ; netui2.dll
"??0MLT_FONT@@QEAA@PEAVOWNER_WINDOW@@IW4FontType@@@Z" ; netui2.dll
"??0MOUSE_EVENT@@QEAA@I_K_J@Z" ; netui2.dll
"??0MSGPOPUP_DIALOG@@QEAA@PEAUHWND__@@AEBVNLS_STR@@JW4MSG_SEVERITY@@KIIJK@Z" ; netui2.dll
"??0MSG_DIALOG_BASE@@IEAA@PEAUHWND__@@PEBGI@Z" ; netui2.dll
"??0NT_FIND_ACCOUNT_DIALOG@@QEAA@PEAUHWND__@@PEAVNT_USER_BROWSER_DIALOG@@PEAVBROWSER_DOMAIN_CB@@PEBGK@Z" ; netui2.dll
"??0NT_GLOBALGROUP_BROWSER_DIALOG@@QEAA@PEAUHWND__@@PEAVNT_USER_BROWSER_DIALOG@@PEBG2PEBVOS_SID@@PEBVSAM_DOMAIN@@PEAVLSA_POLICY@@2@Z" ; netui2.dll
"??0NT_GROUP_BROWSER_DIALOG@@QEAA@PEBGPEAUHWND__@@PEAVNT_USER_BROWSER_DIALOG@@00@Z" ; netui2.dll
"??0NT_GROUP_BROWSER_LB@@QEAA@PEAVOWNER_WINDOW@@I@Z" ; netui2.dll
"??0NT_LOCALGROUP_BROWSER_DIALOG@@QEAA@PEAUHWND__@@PEAVNT_USER_BROWSER_DIALOG@@PEBG2PEBVOS_SID@@PEBVSAM_DOMAIN@@4PEAVLSA_POLICY@@2@Z" ; netui2.dll
"??0NT_USER_BROWSER_DIALOG@@QEAA@PEBGPEAUHWND__@@0KK0KKKPEBVADMIN_AUTHORITY@@@Z" ; netui2.dll
"??0OLLB_ENTRY@@QEAA@W4OUTLINE_LB_LEVEL@@HPEBG11@Z" ; netui2.dll
"??0OPEN_DIALOG_BASE@@QEAA@PEAUHWND__@@IIIIIPEBG1PEAVOPEN_LBOX_BASE@@@Z" ; netui2.dll
"??0OPEN_LBI_BASE@@QEAA@PEBG0KKK@Z" ; netui2.dll
"??0OPEN_LBOX_BASE@@QEAA@PEAVOWNER_WINDOW@@IAEBVNLS_STR@@1@Z" ; netui2.dll
"??0ORDER_GROUP@@QEAA@PEAVSTRING_LISTBOX@@PEAVBUTTON_CONTROL@@1PEAVCONTROL_GROUP@@@Z" ; netui2.dll
"??0OUTLINE_LISTBOX@@QEAA@PEAVOWNER_WINDOW@@IH@Z" ; netui2.dll
"??0OWNER_WINDOW@@QEAA@PEBGKPEBVWINDOW@@@Z" ; netui2.dll
"??0OWNER_WINDOW@@QEAA@XZ" ; netui2.dll
"??0OWNINGWND@@QEAA@PEAUHWND__@@@Z" ; netui2.dll
"??0OWNINGWND@@QEAA@PEBVOWNER_WINDOW@@@Z" ; netui2.dll
"??0PAINT_DISPLAY_CONTEXT@@QEAA@PEAVWINDOW@@@Z" ; netui2.dll
"??0PASSWORD_CONTROL@@QEAA@PEAVOWNER_WINDOW@@II@Z" ; netui2.dll
"??0PASSWORD_CONTROL@@QEAA@PEAVOWNER_WINDOW@@IVXYPOINT@@VXYDIMENSION@@KPEBGI@Z" ; netui2.dll
"??0POPUP@@QEAA@PEAUHWND__@@JW4MSG_SEVERITY@@IIH@Z" ; netui2.dll
"??0POPUP@@QEAA@PEAUHWND__@@JW4MSG_SEVERITY@@KIPEAPEBVNLS_STR@@I@Z" ; netui2.dll
"??0POPUP_MENU@@QEAA@AEAVIDRESOURCE@@@Z" ; netui2.dll
"??0POPUP_MENU@@QEAA@AEBVPWND2HWND@@@Z" ; netui2.dll
"??0POPUP_MENU@@QEAA@PEAUHMENU__@@@Z" ; netui2.dll
"??0POPUP_MENU@@QEAA@XZ" ; netui2.dll
"??0PROC_INSTANCE@@QEAA@_K@Z" ; netui2.dll
"??0PROC_TIMER@@QEAA@PEAUHWND__@@_KKH@Z" ; netui2.dll
"??0PROGRESS_CONTROL@@QEAA@PEAVOWNER_WINDOW@@III@Z" ; netui2.dll
"??0PROMPT_AND_CONNECT@@QEAA@PEAUHWND__@@PEBGKI1@Z" ; netui2.dll
"??0PROMPT_FOR_ANY_DC_DLG@@QEAA@AEAVPWND2HWND@@KPEBVNLS_STR@@PEAV2@@Z" ; netui2.dll
"??0PUSH_BUTTON@@QEAA@PEAVOWNER_WINDOW@@I@Z" ; netui2.dll
"??0PUSH_BUTTON@@QEAA@PEAVOWNER_WINDOW@@IVXYPOINT@@VXYDIMENSION@@K@Z" ; netui2.dll
"??0PWND2HWND@@QEAA@PEAUHWND__@@@Z" ; netui2.dll
"??0RADIO_BUTTON@@QEAA@PEAVOWNER_WINDOW@@I@Z" ; netui2.dll
"??0RADIO_GROUP@@QEAA@PEAVOWNER_WINDOW@@IHIPEAVCONTROL_GROUP@@@Z" ; netui2.dll
"??0RESOURCE_PASSWORD_DIALOG@@QEAA@PEAUHWND__@@PEBGIK@Z" ; netui2.dll
"??0RESOURCE_STR@@QEAA@J@Z" ; netui2.dll
"??0RITER_DL_SPIN_ITEM@@QEAA@AEAVDLIST@@@Z" ; netui2.dll
"??0SCREEN_DC@@QEAA@XZ" ; netui2.dll
"??0SCROLLBAR@@QEAA@PEAVOWNER_WINDOW@@IVXYPOINT@@VXYDIMENSION@@K@Z" ; netui2.dll
"??0SCROLL_EVENT@@QEAA@I_K_J@Z" ; netui2.dll
"??0SET_CONTROL@@QEAA@PEAVOWNER_WINDOW@@IIPEAUHICON__@@1PEAVLISTBOX@@2I@Z" ; netui2.dll
"??0SET_OF_AUDIT_CATEGORIES@@QEAA@PEAVOWNER_WINDOW@@IIIPEAVMASK_MAP@@PEAVBITFIELD@@2H@Z" ; netui2.dll
"??0SLE@@QEAA@PEAVOWNER_WINDOW@@II@Z" ; netui2.dll
"??0SLE@@QEAA@PEAVOWNER_WINDOW@@IVXYPOINT@@VXYDIMENSION@@KPEBGI@Z" ; netui2.dll
"??0SLE_FONT@@QEAA@PEAVOWNER_WINDOW@@IW4FontType@@@Z" ; netui2.dll
"??0SLE_STRIP@@QEAA@PEAVOWNER_WINDOW@@IIH@Z" ; netui2.dll
"??0SLE_STRIP@@QEAA@PEAVOWNER_WINDOW@@IVXYPOINT@@VXYDIMENSION@@KPEBGIH@Z" ; netui2.dll
"??0SLE_STRLB_GROUP@@QEAA@PEAVOWNER_WINDOW@@PEAVSLE@@PEAVSTRING_LISTBOX@@PEAVPUSH_BUTTON@@3@Z" ; netui2.dll
"??0SLIST_OF_ASSOCHCFILE@@QEAA@H@Z" ; netui2.dll
"??0SLIST_OF_CLIENTDATA@@QEAA@H@Z" ; netui2.dll
"??0SLIST_OF_OS_SID@@QEAA@H@Z" ; netui2.dll
"??0SLIST_OF_STRING_BITSET_PAIR@@QEAA@H@Z" ; netui2.dll
"??0SLIST_OF_TIMER_BASE@@QEAA@H@Z" ; netui2.dll
"??0SLIST_OF_UI_EXT@@QEAA@H@Z" ; netui2.dll
"??0SLIST_OF_ULC_API_BUFFER@@QEAA@H@Z" ; netui2.dll
"??0SLIST_OF_USER_BROWSER_LBI@@QEAA@H@Z" ; netui2.dll
"??0SLT@@QEAA@PEAVOWNER_WINDOW@@I@Z" ; netui2.dll
"??0SLT@@QEAA@PEAVOWNER_WINDOW@@IVXYPOINT@@VXYDIMENSION@@KPEBG@Z" ; netui2.dll
"??0SLT_ELLIPSIS@@QEAA@PEAVOWNER_WINDOW@@IVXYPOINT@@VXYDIMENSION@@KPEBGW4ELLIPSIS_STYLE@@@Z" ; netui2.dll
"??0SLT_ELLIPSIS@@QEAA@PEAVOWNER_WINDOW@@IW4ELLIPSIS_STYLE@@@Z" ; netui2.dll
"??0SLT_FONT@@QEAA@PEAVOWNER_WINDOW@@IW4FontType@@@Z" ; netui2.dll
"??0SOLID_BRUSH@@QEAA@H@Z" ; netui2.dll
"??0SPIN_GROUP@@QEAA@PEAVOWNER_WINDOW@@IIIH@Z" ; netui2.dll
"??0SPIN_GROUP@@QEAA@PEAVOWNER_WINDOW@@IIIVXYPOINT@@VXYDIMENSION@@KH@Z" ; netui2.dll
"??0SPIN_ITEM@@QEAA@PEAVCONTROL_WINDOW@@@Z" ; netui2.dll
"??0SPIN_SLE_NUM@@QEAA@PEAVOWNER_WINDOW@@IKKKHI@Z" ; netui2.dll
"??0SPIN_SLE_NUM@@QEAA@PEAVOWNER_WINDOW@@IVXYPOINT@@VXYDIMENSION@@KKKKHI@Z" ; netui2.dll
"??0SPIN_SLE_NUM_VALID@@QEAA@PEAVOWNER_WINDOW@@IKKKH@Z" ; netui2.dll
"??0SPIN_SLE_NUM_VALID@@QEAA@PEAVOWNER_WINDOW@@IVXYPOINT@@VXYDIMENSION@@KKKKH@Z" ; netui2.dll
"??0SPIN_SLE_STR@@QEAA@PEAVOWNER_WINDOW@@IJJHI@Z" ; netui2.dll
"??0SPIN_SLE_STR@@QEAA@PEAVOWNER_WINDOW@@IJJVXYPOINT@@VXYDIMENSION@@KHI@Z" ; netui2.dll
"??0SPIN_SLE_STR@@QEAA@PEAVOWNER_WINDOW@@IQEAPEBGJHI@Z" ; netui2.dll
"??0SPIN_SLE_STR@@QEAA@PEAVOWNER_WINDOW@@IQEAPEBGJVXYPOINT@@VXYDIMENSION@@KHI@Z" ; netui2.dll
"??0SPIN_SLE_VALID_SECOND@@QEAA@PEAVOWNER_WINDOW@@IJJJJH@Z" ; netui2.dll
"??0SPIN_SLT_SEPARATOR@@QEAA@PEAVOWNER_WINDOW@@I@Z" ; netui2.dll
"??0SPIN_SLT_SEPARATOR@@QEAA@PEAVOWNER_WINDOW@@IPEBGVXYPOINT@@VXYDIMENSION@@K@Z" ; netui2.dll
"??0STANDALONE_SET_FOCUS_DLG@@QEAA@PEAUHWND__@@PEAVNLS_STR@@KW4SELECTION_TYPE@@KPEBG3K@Z" ; netui2.dll
"??0STATE2_BUTTON_CONTROL@@IEAA@PEAVOWNER_WINDOW@@I@Z" ; netui2.dll
"??0STATELB@@QEAA@QEAHPEAVOWNER_WINDOW@@IHHW4FontType@@@Z" ; netui2.dll
"??0STATELBGRP@@QEAA@PEAVSTATELB@@@Z" ; netui2.dll
"??0STATELBGRP@@QEAA@QEAHPEAVOWNER_WINDOW@@IHHW4FontType@@@Z" ; netui2.dll
"??0STATE_BUTTON_CONTROL@@IEAA@PEAVOWNER_WINDOW@@I@Z" ; netui2.dll
"??0STATE_BUTTON_CONTROL@@IEAA@PEAVOWNER_WINDOW@@IVXYPOINT@@VXYDIMENSION@@K@Z" ; netui2.dll
"??0STATIC_SPIN_ITEM@@QEAA@PEAVCONTROL_WINDOW@@@Z" ; netui2.dll
"??0STATIC_TEXT_CONTROL@@QEAA@PEAVOWNER_WINDOW@@I@Z" ; netui2.dll
"??0STATIC_TEXT_CONTROL@@QEAA@PEAVOWNER_WINDOW@@IVXYPOINT@@VXYDIMENSION@@KPEBG@Z" ; netui2.dll
"??0STLBITEM@@QEAA@PEAVSTATELBGRP@@@Z" ; netui2.dll
"??0STRING_BITSET_PAIR@@QEAA@AEBVNLS_STR@@AEBVBITFIELD@@H@Z" ; netui2.dll
"??0STRING_LISTBOX@@QEAA@PEAVOWNER_WINDOW@@IVXYPOINT@@VXYDIMENSION@@KPEBGW4FontType@@@Z" ; netui2.dll
"??0STRING_LISTBOX@@QEAA@PEAVOWNER_WINDOW@@IW4FontType@@@Z" ; netui2.dll
"??0STRING_LIST_CONTROL@@IEAA@PEAVOWNER_WINDOW@@IH@Z" ; netui2.dll
"??0STRING_LIST_CONTROL@@IEAA@PEAVOWNER_WINDOW@@IHVXYPOINT@@VXYDIMENSION@@KPEBG@Z" ; netui2.dll
"??0STR_DTE@@QEAA@PEBG@Z" ; netui2.dll
"??0STR_DTE_ELLIPSIS@@QEAA@PEBGPEAVLISTBOX@@W4ELLIPSIS_STYLE@@@Z" ; netui2.dll
"??0SUBJECT_BITMAP_BLOCK@@QEAA@XZ" ; netui2.dll
"??0SYSMENUITEM@@QEAA@PEAVOWNER_WINDOW@@I@Z" ; netui2.dll
"??0SYSTEM_MENU@@QEAA@AEBVPWND2HWND@@@Z" ; netui2.dll
"??0TEXT_CONTROL@@QEAA@PEAVOWNER_WINDOW@@I@Z" ; netui2.dll
"??0TEXT_CONTROL@@QEAA@PEAVOWNER_WINDOW@@IVXYPOINT@@VXYDIMENSION@@KPEBG@Z" ; netui2.dll
"??0TIMER@@QEAA@PEAVTIMER_CALLOUT@@KH@Z" ; netui2.dll
"??0TIMER_BASE@@QEAA@KH@Z" ; netui2.dll
"??0TIMER_EVENT@@QEAA@I_K_J@Z" ; netui2.dll
"??0TIMER_WINDOW@@QEAA@PEAVBLT_MASTER_TIMER@@@Z" ; netui2.dll
"??0UI_DOMAIN@@QEAA@AEAVPWND2HWND@@KPEBGH@Z" ; netui2.dll
"??0UI_EXT@@IEAA@PEBGK@Z" ; netui2.dll
"??0UI_EXT_MGR@@QEAA@PEAVUI_EXT_MGR_IF@@KK@Z" ; netui2.dll
"??0UI_EXT_MGR_IF@@IEAA@XZ" ; netui2.dll
"??0UI_MENU_EXT@@IEAA@PEBGK@Z" ; netui2.dll
"??0UI_MENU_EXT_MGR@@QEAA@PEAVUI_EXT_MGR_IF@@KK@Z" ; netui2.dll
"??0ULC_API_BUFFER@@QEAA@PEAU_DOMAIN_DISPLAY_USER@@K@Z" ; netui2.dll
"??0USER_BROWSER_LB@@QEAA@PEAVOWNER_WINDOW@@I@Z" ; netui2.dll
"??0USER_BROWSER_LBI@@QEAA@PEBG0000QEAXW4UI_SystemSid@@W4_SID_NAME_USE@@K@Z" ; netui2.dll
"??0USER_BROWSER_LBI_CACHE@@QEAA@XZ" ; netui2.dll
"??0USER_LBI_CACHE@@QEAA@H@Z" ; netui2.dll
"??0USRLB_NT_GROUP_ENUM@@QEAA@PEBVSAM_DOMAIN@@@Z" ; netui2.dll
"??0WIN32_EVENT@@QEAA@PEBGHH@Z" ; netui2.dll
"??0WIN32_HANDLE@@QEAA@PEAX@Z" ; netui2.dll
"??0WIN32_MUTEX@@QEAA@PEBGH@Z" ; netui2.dll
"??0WIN32_SEMAPHORE@@QEAA@PEBGJJ@Z" ; netui2.dll
"??0WIN32_SYNC_BASE@@IEAA@PEAX@Z" ; netui2.dll
"??0WIN32_THREAD@@QEAA@HIPEBG@Z" ; netui2.dll
"??0WINDOW@@QEAA@AEBV0@@Z" ; netui2.dll
"??0WINDOW@@QEAA@PEAUHWND__@@@Z" ; netui2.dll
"??0WINDOW@@QEAA@PEBGKPEBV0@I@Z" ; netui2.dll
"??0WINDOW@@QEAA@XZ" ; netui2.dll
"??0WINDOW_TIMER@@QEAA@PEAUHWND__@@KHH@Z" ; netui2.dll
"??0WIN_ELLIPSIS@@QEAA@PEAVWINDOW@@PEAUHDC__@@PEBUtagRECT@@W4ELLIPSIS_STYLE@@@Z" ; netui2.dll
"??0WIN_ELLIPSIS@@QEAA@PEAVWINDOW@@W4ELLIPSIS_STYLE@@@Z" ; netui2.dll
"??0XYDIMENSION@@QEAA@AEBUtagSIZE@@@Z" ; netui2.dll
"??0XYDIMENSION@@QEAA@II@Z" ; netui2.dll
"??0XYPOINT@@QEAA@AEBUtagPOINT@@@Z" ; netui2.dll
"??0XYPOINT@@QEAA@HH@Z" ; netui2.dll
"??0XYPOINT@@QEAA@_J@Z" ; netui2.dll
"??0XYRECT@@QEAA@AEBUtagRECT@@@Z" ; netui2.dll
"??0XYRECT@@QEAA@AEBV0@@Z" ; netui2.dll
"??0XYRECT@@QEAA@HHHH@Z" ; netui2.dll
"??0XYRECT@@QEAA@PEAUHWND__@@H@Z" ; netui2.dll
"??0XYRECT@@QEAA@PEBVWINDOW@@H@Z" ; netui2.dll
"??0XYRECT@@QEAA@VXYPOINT@@0@Z" ; netui2.dll
"??0XYRECT@@QEAA@VXYPOINT@@VXYDIMENSION@@@Z" ; netui2.dll
"??0XYRECT@@QEAA@XZ" ; netui2.dll
"??1ACCELTABLE@@QEAA@XZ" ; netui2.dll
"??1ACCOUNT_NAMES_MLE@@QEAA@XZ" ; netui2.dll
"??1ALIAS_STR@@QEAA@XZ" ; netui2.dll
"??1ALLOC_STR@@QEAA@XZ" ; netui2.dll
"??1APPLICATION@@IEAA@XZ" ; netui2.dll
"??1APP_WINDOW@@IEAA@XZ" ; netui2.dll
"??1ARRAY_CONTROLVAL_CID_PAIR@@QEAA@XZ" ; netui2.dll
"??1ARRAY_LIST_CONTROLVAL_CID_PAIR@@QEAA@XZ" ; netui2.dll
"??1ARROW_BUTTON@@QEAA@XZ" ; netui2.dll
"??1ASSOCHCFILE@@QEAA@XZ" ; netui2.dll
"??1ASSOCHWNDDISP@@QEAA@XZ" ; netui2.dll
"??1ASSOCHWNDPDLG@@QEAA@XZ" ; netui2.dll
"??1ASSOCHWNDPWND@@QEAA@XZ" ; netui2.dll
"??1ASSOCHWNDTHIS@@QEAA@XZ" ; netui2.dll
"??1ATOM_BASE@@IEAA@XZ" ; netui2.dll
"??1AUDIT_CHECKBOXES@@QEAA@XZ" ; netui2.dll
"??1AUTO_CURSOR@@QEAA@XZ" ; netui2.dll
"??1BASE_ELLIPSIS@@QEAA@XZ" ; netui2.dll
"??1BASE_PASSWORD_DIALOG@@QEAA@XZ" ; netui2.dll
"??1BASE_SET_FOCUS_DLG@@QEAA@XZ" ; netui2.dll
"??1BIT_MAP@@QEAA@XZ" ; netui2.dll
"??1BLT_BACKGROUND_EDIT@@QEAA@XZ" ; netui2.dll
"??1BLT_COMBOBOX@@QEAA@XZ" ; netui2.dll
"??1BLT_DATE_SPIN_GROUP@@QEAA@XZ" ; netui2.dll
"??1BLT_LISTBOX@@QEAA@XZ" ; netui2.dll
"??1BLT_MASTER_TIMER@@QEAA@XZ" ; netui2.dll
"??1BLT_SCRATCH@@QEAA@XZ" ; netui2.dll
"??1BLT_TIME_SPIN_GROUP@@QEAA@XZ" ; netui2.dll
"??1BROWSER_DOMAIN@@QEAA@XZ" ; netui2.dll
"??1BROWSER_DOMAIN_CB@@QEAA@XZ" ; netui2.dll
"??1BROWSER_DOMAIN_LB@@QEAA@XZ" ; netui2.dll
"??1BROWSER_DOMAIN_LBI@@UEAA@XZ" ; netui2.dll
"??1BROWSER_DOMAIN_LBI_PB@@UEAA@XZ" ; netui2.dll
"??1BROWSER_SUBJECT@@QEAA@XZ" ; netui2.dll
"??1BROWSER_SUBJECT_ITER@@QEAA@XZ" ; netui2.dll
"??1BUTTON_CONTROL@@QEAA@XZ" ; netui2.dll
"??1CANCEL_TASK_DIALOG@@QEAA@XZ" ; netui2.dll
"??1CHANGEABLE_SPIN_ITEM@@QEAA@XZ" ; netui2.dll
"??1CHECKBOX@@QEAA@XZ" ; netui2.dll
"??1CLIENT_WINDOW@@QEAA@XZ" ; netui2.dll
"??1COMBOBOX@@QEAA@XZ" ; netui2.dll
"??1CONTROL_TABLE@@QEAA@XZ" ; netui2.dll
"??1CONTROL_WINDOW@@QEAA@XZ" ; netui2.dll
"??1CUSTOM_CONTROL@@QEAA@XZ" ; netui2.dll
"??1DEC_SLT@@QEAA@XZ" ; netui2.dll
"??1DEC_STR@@QEAA@XZ" ; netui2.dll
"??1DIALOG_WINDOW@@QEAA@XZ" ; netui2.dll
"??1DISPATCHER@@IEAA@XZ" ; netui2.dll
"??1DISPLAY_CONTEXT@@QEAA@XZ" ; netui2.dll
"??1DISPLAY_MAP@@QEAA@XZ" ; netui2.dll
"??1DLGLOAD@@QEAA@XZ" ; netui2.dll
"??1DLIST_OF_SPIN_ITEM@@QEAA@XZ" ; netui2.dll
"??1DMID_DTE@@QEAA@XZ" ; netui2.dll
"??1DOMAIN_FILL_THREAD@@UEAA@XZ" ; netui2.dll
"??1EDIT_CONTROL@@QEAA@XZ" ; netui2.dll
"??1ENUM_OBJ_BASE@@IEAA@XZ" ; netui2.dll
"??1EXPANDABLE_DIALOG@@QEAA@XZ" ; netui2.dll
"??1FILE3_ENUM@@QEAA@XZ" ; netui2.dll
"??1FILE3_ENUM_ITER@@QEAA@XZ" ; netui2.dll
"??1FILE3_ENUM_OBJ@@QEAA@XZ" ; netui2.dll
"??1FOCUSDLG_DATA_THREAD@@UEAA@XZ" ; netui2.dll
"??1FOCUS_CHECKBOX@@QEAA@XZ" ; netui2.dll
"??1FONT@@QEAA@XZ" ; netui2.dll
"??1GET_FNAME_BASE_DLG@@IEAA@XZ" ; netui2.dll
"??1GLOBAL_ATOM@@QEAA@XZ" ; netui2.dll
"??1GRAPHICAL_BUTTON@@QEAA@XZ" ; netui2.dll
"??1GRAPHICAL_BUTTON_WITH_DISABLE@@QEAA@XZ" ; netui2.dll
"??1HAW_FOR_HAWAII_INFO@@QEAA@XZ" ; netui2.dll
"??1HEX_STR@@QEAA@XZ" ; netui2.dll
"??1HIER_LBI@@UEAA@XZ" ; netui2.dll
"??1HIER_LBI_ITERATOR@@QEAA@XZ" ; netui2.dll
"??1HIER_LISTBOX@@QEAA@XZ" ; netui2.dll
"??1H_SPLITTER_BAR@@QEAA@XZ" ; netui2.dll
"??1ICANON_SLE@@QEAA@XZ" ; netui2.dll
"??1ICON_CONTROL@@QEAA@XZ" ; netui2.dll
"??1ITER_DL_SPIN_ITEM@@QEAA@XZ" ; netui2.dll
"??1ITER_SL_ASSOCHCFILE@@QEAA@XZ" ; netui2.dll
"??1ITER_SL_CLIENTDATA@@QEAA@XZ" ; netui2.dll
"??1ITER_SL_STRING_BITSET_PAIR@@QEAA@XZ" ; netui2.dll
"??1ITER_SL_TIMER_BASE@@QEAA@XZ" ; netui2.dll
"??1ITER_SL_UI_EXT@@QEAA@XZ" ; netui2.dll
"??1ITER_SL_USER_BROWSER_LBI@@QEAA@XZ" ; netui2.dll
"??1LAZY_LISTBOX@@QEAA@XZ" ; netui2.dll
"??1LBI@@UEAA@XZ" ; netui2.dll
"??1LBITREE@@QEAA@XZ" ; netui2.dll
"??1LBI_HEAP@@QEAA@XZ" ; netui2.dll
"??1LB_COL_WIDTHS@@QEAA@XZ" ; netui2.dll
"??1LISTBOX@@QEAA@XZ" ; netui2.dll
"??1LIST_CONTROL@@IEAA@XZ" ; netui2.dll
"??1LM_FILE_2@@QEAA@XZ" ; netui2.dll
"??1LM_MESSAGE@@QEAA@XZ" ; netui2.dll
"??1LM_OLLB@@QEAA@XZ" ; netui2.dll
"??1LOCAL_ATOM@@QEAA@XZ" ; netui2.dll
"??1LOC_LM_OBJ@@QEAA@XZ" ; netui2.dll
"??1LOGON_HOURS_CONTROL@@QEAA@XZ" ; netui2.dll
"??1MAGIC_GROUP@@QEAA@XZ" ; netui2.dll
"??1MASK_MAP@@QEAA@XZ" ; netui2.dll
"??1MEMORY_DC@@QEAA@XZ" ; netui2.dll
"??1MENU_BASE@@QEAA@XZ" ; netui2.dll
"??1MLE@@QEAA@XZ" ; netui2.dll
"??1MLE_FONT@@QEAA@XZ" ; netui2.dll
"??1MLT@@QEAA@XZ" ; netui2.dll
"??1MSGPOPUP_DIALOG@@QEAA@XZ" ; netui2.dll
"??1MSG_DIALOG_BASE@@IEAA@XZ" ; netui2.dll
"??1NT_FIND_ACCOUNT_DIALOG@@QEAA@XZ" ; netui2.dll
"??1NT_GLOBALGROUP_BROWSER_DIALOG@@UEAA@XZ" ; netui2.dll
"??1NT_GROUP_BROWSER_DIALOG@@UEAA@XZ" ; netui2.dll
"??1NT_GROUP_BROWSER_LB@@QEAA@XZ" ; netui2.dll
"??1NT_GROUP_ENUM_ITER@@QEAA@XZ" ; netui2.dll
"??1NT_GROUP_ENUM_OBJ@@QEAA@XZ" ; netui2.dll
"??1NT_LOCALGROUP_BROWSER_DIALOG@@UEAA@XZ" ; netui2.dll
"??1NT_USER_BROWSER_DIALOG@@QEAA@XZ" ; netui2.dll
"??1OLLB_ENTRY@@UEAA@XZ" ; netui2.dll
"??1OPEN_DIALOG_BASE@@QEAA@XZ" ; netui2.dll
"??1OPEN_LBI_BASE@@UEAA@XZ" ; netui2.dll
"??1OPEN_LBOX_BASE@@QEAA@XZ" ; netui2.dll
"??1OUTLINE_LISTBOX@@QEAA@XZ" ; netui2.dll
"??1OWNER_WINDOW@@QEAA@XZ" ; netui2.dll
"??1PAINT_DISPLAY_CONTEXT@@QEAA@XZ" ; netui2.dll
"??1PASSWORD_CONTROL@@QEAA@XZ" ; netui2.dll
"??1POPUP@@QEAA@XZ" ; netui2.dll
"??1POPUP_MENU@@QEAA@XZ" ; netui2.dll
"??1PROC_INSTANCE@@QEAA@XZ" ; netui2.dll
"??1PROGRESS_CONTROL@@QEAA@XZ" ; netui2.dll
"??1PROMPT_AND_CONNECT@@QEAA@XZ" ; netui2.dll
"??1PROMPT_FOR_ANY_DC_DLG@@QEAA@XZ" ; netui2.dll
"??1PUSH_BUTTON@@QEAA@XZ" ; netui2.dll
"??1RADIO_BUTTON@@QEAA@XZ" ; netui2.dll
"??1RADIO_GROUP@@QEAA@XZ" ; netui2.dll
"??1RESOURCE_PASSWORD_DIALOG@@QEAA@XZ" ; netui2.dll
"??1RESOURCE_STR@@QEAA@XZ" ; netui2.dll
"??1RITER_DL_SPIN_ITEM@@QEAA@XZ" ; netui2.dll
"??1SCREEN_DC@@QEAA@XZ" ; netui2.dll
"??1SERVER1_ENUM@@QEAA@XZ" ; netui2.dll
"??1SERVER1_ENUM_ITER@@QEAA@XZ" ; netui2.dll
"??1SERVER1_ENUM_OBJ@@QEAA@XZ" ; netui2.dll
"??1SERVER_ENUM@@QEAA@XZ" ; netui2.dll
"??1SET_CONTROL@@QEAA@XZ" ; netui2.dll
"??1SET_OF_AUDIT_CATEGORIES@@QEAA@XZ" ; netui2.dll
"??1SLE@@QEAA@XZ" ; netui2.dll
"??1SLE_FONT@@QEAA@XZ" ; netui2.dll
"??1SLE_STRLB_GROUP@@QEAA@XZ" ; netui2.dll
"??1SLIST_OF_ASSOCHCFILE@@QEAA@XZ" ; netui2.dll
"??1SLIST_OF_CLIENTDATA@@QEAA@XZ" ; netui2.dll
"??1SLIST_OF_OS_SID@@QEAA@XZ" ; netui2.dll
"??1SLIST_OF_STRING_BITSET_PAIR@@QEAA@XZ" ; netui2.dll
"??1SLIST_OF_TIMER_BASE@@QEAA@XZ" ; netui2.dll
"??1SLIST_OF_UI_EXT@@QEAA@XZ" ; netui2.dll
"??1SLIST_OF_ULC_API_BUFFER@@QEAA@XZ" ; netui2.dll
"??1SLIST_OF_USER_BROWSER_LBI@@QEAA@XZ" ; netui2.dll
"??1SLT@@QEAA@XZ" ; netui2.dll
"??1SLT_ELLIPSIS@@QEAA@XZ" ; netui2.dll
"??1SOLID_BRUSH@@QEAA@XZ" ; netui2.dll
"??1SPIN_GROUP@@QEAA@XZ" ; netui2.dll
"??1SPIN_ITEM@@QEAA@XZ" ; netui2.dll
"??1SPIN_SLE_NUM@@QEAA@XZ" ; netui2.dll
"??1SPIN_SLE_NUM_VALID@@QEAA@XZ" ; netui2.dll
"??1SPIN_SLE_STR@@QEAA@XZ" ; netui2.dll
"??1SPIN_SLE_VALID_SECOND@@QEAA@XZ" ; netui2.dll
"??1SPIN_SLT_SEPARATOR@@QEAA@XZ" ; netui2.dll
"??1STATE2_BUTTON_CONTROL@@QEAA@XZ" ; netui2.dll
"??1STATELB@@QEAA@XZ" ; netui2.dll
"??1STATELBGRP@@QEAA@XZ" ; netui2.dll
"??1STATE_BUTTON_CONTROL@@QEAA@XZ" ; netui2.dll
"??1STATIC_SPIN_ITEM@@QEAA@XZ" ; netui2.dll
"??1STATIC_TEXT_CONTROL@@QEAA@XZ" ; netui2.dll
"??1STLBITEM@@UEAA@XZ" ; netui2.dll
"??1STRING_BITSET_PAIR@@QEAA@XZ" ; netui2.dll
"??1STRING_LIST_CONTROL@@QEAA@XZ" ; netui2.dll
"??1SUBJECT_BITMAP_BLOCK@@QEAA@XZ" ; netui2.dll
"??1SYSTEM_MENU@@QEAA@XZ" ; netui2.dll
"??1TEXT_CONTROL@@QEAA@XZ" ; netui2.dll
"??1TIMER_BASE@@QEAA@XZ" ; netui2.dll
"??1TIMER_WINDOW@@QEAA@XZ" ; netui2.dll
"??1UI_DOMAIN@@QEAA@XZ" ; netui2.dll
"??1UI_EXT@@UEAA@XZ" ; netui2.dll
"??1UI_EXT_MGR@@QEAA@XZ" ; netui2.dll
"??1UI_EXT_MGR_IF@@QEAA@XZ" ; netui2.dll
"??1UI_MENU_EXT@@UEAA@XZ" ; netui2.dll
"??1UI_MENU_EXT_MGR@@UEAA@XZ" ; netui2.dll
"??1ULC_API_BUFFER@@QEAA@XZ" ; netui2.dll
"??1USER_BROWSER_LB@@QEAA@XZ" ; netui2.dll
"??1USER_BROWSER_LBI@@UEAA@XZ" ; netui2.dll
"??1USER_BROWSER_LBI_CACHE@@UEAA@XZ" ; netui2.dll
"??1USER_LBI_CACHE@@UEAA@XZ" ; netui2.dll
"??1USRLB_NT_GROUP_ENUM@@QEAA@XZ" ; netui2.dll
"??1WIN32_EVENT@@QEAA@XZ" ; netui2.dll
"??1WIN32_HANDLE@@QEAA@XZ" ; netui2.dll
"??1WIN32_MUTEX@@QEAA@XZ" ; netui2.dll
"??1WIN32_SEMAPHORE@@QEAA@XZ" ; netui2.dll
"??1WIN32_SYNC_BASE@@QEAA@XZ" ; netui2.dll
"??1WIN32_THREAD@@UEAA@XZ" ; netui2.dll
"??1WINDOW@@QEAA@XZ" ; netui2.dll
"??1WIN_ELLIPSIS@@QEAA@XZ" ; netui2.dll
"??4ARRAY_CONTROLVAL_CID_PAIR@@QEAAAEAV0@AEAV0@@Z" ; netui2.dll
"??4GLOBAL_ATOM@@UEAAPEBGPEBG@Z" ; netui2.dll
"??4LOCAL_ATOM@@UEAAPEBGPEBG@Z" ; netui2.dll
"??4XYRECT@@QEAAAEAV0@AEBV0@@Z" ; netui2.dll
"??7ASSOCHWNDDISP@@QEBAHXZ" ; netui2.dll
"??7ASSOCHWNDPWND@@QEBAHXZ" ; netui2.dll
"??7BASE@@QEBAHXZ" ; netui2.dll
"??7CONTROL_WINDOW@@QEBAHXZ" ; netui2.dll
"??8XYRECT@@QEBAHAEBV0@@Z" ; netui2.dll
"??AARRAY_CONTROLVAL_CID_PAIR@@QEBAAEAVCONTROLVAL_CID_PAIR@@I@Z" ; netui2.dll
"??ADISPLAY_TABLE@@QEAAAEAPEAVDTE@@I@Z" ; netui2.dll
"??ARADIO_GROUP@@QEAAPEAVRADIO_BUTTON@@I@Z" ; netui2.dll
"??BNLS_STR@@QEBAPEBGXZ" ; netui2.dll
"??BOS_SID@@QEBAPEAXXZ" ; netui2.dll
"??BXYRECT@@QEBAPEBUtagRECT@@XZ" ; netui2.dll
"??RFILE3_ENUM_ITER@@QEAAPEBVFILE3_ENUM_OBJ@@PEAJH@Z" ; netui2.dll
"??RHIER_LBI_ITERATOR@@QEAAPEAVHIER_LBI@@XZ" ; netui2.dll
"??RITER_CTRL@@QEAAPEAVCONTROL_WINDOW@@XZ" ; netui2.dll
"??RITER_DEVICE@@QEAAPEBGXZ" ; netui2.dll
"??RITER_SL_NLS_STR@@QEAAPEAVNLS_STR@@XZ" ; netui2.dll
"??RNT_GROUP_ENUM_ITER@@QEAAPEBVNT_GROUP_ENUM_OBJ@@PEAJH@Z" ; netui2.dll
"??YCHANGEABLE_SPIN_ITEM@@UEAAXK@Z" ; netui2.dll
"??YXYRECT@@QEAAAEAV0@AEBV0@@Z" ; netui2.dll
"??ZCHANGEABLE_SPIN_ITEM@@UEAAXK@Z" ; netui2.dll
"??_H@YAXPEAX_KHP6APEAX0@Z@Z" ; netui2.dll
"??_I@YAXPEAX_KHP6AX0@Z@Z" ; netui2.dll
"??_J@YAXPEAX_KHP6APEAX0@Z@Z" ; netui2.dll
"?Abandon@HIER_LBI@@AEAAXXZ" ; netui2.dll
"?AbandonAllChildren@HIER_LBI@@AEAAXXZ" ; netui2.dll
"?ActionOnError@MSG_DIALOG_BASE@@MEAAHJ@Z" ; netui2.dll
"?ActivateAssocControls@MAGIC_GROUP@@AEAAXIIPEAVCONTROL_VALUE@@@Z" ; netui2.dll
"?ActivateExtension@UI_EXT_MGR@@UEAAXPEAUHWND__@@K@Z" ; netui2.dll
"?Add@ARRAY_LIST_CONTROLVAL_CID_PAIR@@QEAAHAEBVCONTROLVAL_CID_PAIR@@@Z" ; netui2.dll
"?Add@HWND_DLGPTR_CACHE@@SAXPEAUHWND__@@PEAVDIALOG_WINDOW@@@Z" ; netui2.dll
"?Add@MASK_MAP@@QEAAJAEBVBITFIELD@@AEBVNLS_STR@@H@Z" ; netui2.dll
"?Add@MASK_MAP@@QEAAJQEAUUS_IDS_PAIRS@@G@Z" ; netui2.dll
"?Add@SLIST_OF_ASSOCHCFILE@@QEAAJPEBVASSOCHCFILE@@@Z" ; netui2.dll
"?Add@SLIST_OF_CLIENTDATA@@QEAAJPEBUCLIENTDATA@@@Z" ; netui2.dll
"?Add@SLIST_OF_NLS_STR@@QEAAJPEBVNLS_STR@@@Z" ; netui2.dll
"?Add@SLIST_OF_OS_SID@@QEAAJPEBVOS_SID@@@Z" ; netui2.dll
"?Add@SLIST_OF_TIMER_BASE@@QEAAJPEBVTIMER_BASE@@@Z" ; netui2.dll
"?Add@SLIST_OF_USER_BROWSER_LBI@@QEAAJPEBVUSER_BROWSER_LBI@@@Z" ; netui2.dll
"?AddAliases@USER_BROWSER_LBI_CACHE@@IEAAJPEAVADMIN_AUTHORITY@@PEBGPEAH@Z" ; netui2.dll
"?AddAliases@USER_BROWSER_LBI_CACHE@@IEAAJPEAVSAM_DOMAIN@@PEBGPEAH@Z" ; netui2.dll
"?AddAssociation@MAGIC_GROUP@@QEAAJIPEAVCONTROL_VALUE@@@Z" ; netui2.dll
"?AddAssociation@SPIN_GROUP@@QEAAJPEAVSPIN_ITEM@@@Z" ; netui2.dll
"?AddChildren@HIER_LISTBOX@@MEAAJPEAVHIER_LBI@@@Z" ; netui2.dll
"?AddClient@BLTIMP@@SAJPEAUHINSTANCE__@@IIII@Z" ; netui2.dll
"?AddControl@CONTROL_TABLE@@QEAAHPEAVCONTROL_WINDOW@@@Z" ; netui2.dll
"?AddControl@OWNER_WINDOW@@AEAAHPEAVCONTROL_WINDOW@@@Z" ; netui2.dll
"?AddDomain@OUTLINE_LISTBOX@@QEAAHPEBG0H@Z" ; netui2.dll
"?AddGroups@USER_BROWSER_LBI_CACHE@@IEAAJPEAVADMIN_AUTHORITY@@PEBGPEAH@Z" ; netui2.dll
"?AddHelpAssoc@BLTIMP@@SAJPEAUHINSTANCE__@@JKK@Z" ; netui2.dll
"?AddIdemp@ARRAY_LIST_CONTROLVAL_CID_PAIR@@QEAAHAEBVCONTROLVAL_CID_PAIR@@@Z" ; netui2.dll
"?AddItem@BLT_LISTBOX@@QEAAHPEAVLBI@@@Z" ; netui2.dll
"?AddItem@BROWSER_DOMAIN_CB@@QEAAJPEAVBROWSER_DOMAIN@@@Z" ; netui2.dll
"?AddItem@HIER_LISTBOX@@QEAAHPEAVHIER_LBI@@0H@Z" ; netui2.dll
"?AddItem@LBI_HEAP@@QEAAJPEAVLBI@@@Z" ; netui2.dll
"?AddItem@OUTLINE_LISTBOX@@IEAAHW4OUTLINE_LB_LEVEL@@HPEBG11@Z" ; netui2.dll
"?AddItem@STRING_LIST_CONTROL@@QEAAHPEBG@Z" ; netui2.dll
"?AddItem@USER_BROWSER_LB@@QEAAHPEAVLBI@@@Z" ; netui2.dll
"?AddItem@USER_BROWSER_LBI_CACHE@@UEAAHPEAVLBI@@@Z" ; netui2.dll
"?AddItem@USER_LBI_CACHE@@UEAAHPEAVLBI@@@Z" ; netui2.dll
"?AddItemData@LIST_CONTROL@@IEAAHPEAX@Z" ; netui2.dll
"?AddItemIdemp@BLT_LISTBOX@@QEAAHPEAVLBI@@@Z" ; netui2.dll
"?AddItemIdemp@STRING_LIST_CONTROL@@QEAAHAEBVNLS_STR@@@Z" ; netui2.dll
"?AddItemIdemp@STRING_LIST_CONTROL@@QEAAHPEBG@Z" ; netui2.dll
"?AddNode@LBITREE@@QEAAHPEAVHIER_LBI@@0H@Z" ; netui2.dll
"?AddSelectedUserBrowserLBIs@NT_USER_BROWSER_DIALOG@@QEAAJPEAVUSER_BROWSER_LB@@HH@Z" ; netui2.dll
"?AddServer@OUTLINE_LISTBOX@@QEAAHPEBG00@Z" ; netui2.dll
"?AddSortedItems@HIER_LISTBOX@@QEAAXPEAPEAVHIER_LBI@@HPEAV2@H@Z" ; netui2.dll
"?AddUsers@USER_BROWSER_LBI_CACHE@@QEAAJPEAVADMIN_AUTHORITY@@PEBGHPEAH@Z" ; netui2.dll
"?AddWellKnownSids@USER_BROWSER_LBI_CACHE@@IEAAJPEAVADMIN_AUTHORITY@@KPEAH@Z" ; netui2.dll
"?Adjust@LBI_HEAP@@QEAAXXZ" ; netui2.dll
"?AdjustBottom@XYRECT@@QEAAAEAV1@H@Z" ; netui2.dll
"?AdjustDescendantCount@HIER_LBI@@AEAAXH@Z" ; netui2.dll
"?AdjustDownwards@LBI_HEAP@@AEAAXH@Z" ; netui2.dll
"?AdjustLeft@XYRECT@@QEAAAEAV1@H@Z" ; netui2.dll
"?AdjustRight@XYRECT@@QEAAAEAV1@H@Z" ; netui2.dll
"?AdjustTop@XYRECT@@QEAAAEAV1@H@Z" ; netui2.dll
"?AdjustUpwards@LBI_HEAP@@AEAAXH@Z" ; netui2.dll
"?Adopt@HIER_LBI@@AEAAXPEAV1@H@Z" ; netui2.dll
"?Advance@PROGRESS_CONTROL@@QEAAXH@Z" ; netui2.dll
"?AfterGroupActions@CONTROL_GROUP@@MEAAXXZ" ; netui2.dll
"?AliasUnicodeStrToDisplayName@USER_BROWSER_LBI@@QEAAXPEAU_UNICODE_STRING@@@Z" ; netui2.dll
"?Append@DLIST_OF_SPIN_ITEM@@QEAAJQEAVSPIN_ITEM@@@Z" ; netui2.dll
"?Append@MENU_BASE@@QEBAJPEBGII@Z" ; netui2.dll
"?Append@MENU_BASE@@QEBAJPEBGPEAUHMENU__@@I@Z" ; netui2.dll
"?Append@SLIST_OF_NLS_STR@@QEAAJPEBVNLS_STR@@@Z" ; netui2.dll
"?Append@SLIST_OF_STRING_BITSET_PAIR@@QEAAJPEBVSTRING_BITSET_PAIR@@@Z" ; netui2.dll
"?Append@SLIST_OF_UI_EXT@@QEAAJPEBVUI_EXT@@@Z" ; netui2.dll
"?Append@SLIST_OF_ULC_API_BUFFER@@QEAAJPEBVULC_API_BUFFER@@@Z" ; netui2.dll
"?Append@SLIST_OF_USER_BROWSER_LBI@@QEAAJPEBVUSER_BROWSER_LBI@@@Z" ; netui2.dll
"?AppendDataTo@DM_DTE@@UEBAJPEAVNLS_STR@@@Z" ; netui2.dll
"?AppendDataTo@STR_DTE@@UEBAJPEAVNLS_STR@@@Z" ; netui2.dll
"?AppendSeparator@MENU_BASE@@QEBAJXZ" ; netui2.dll
"?ApplyPermissionsToCheckBoxes@SET_OF_AUDIT_CATEGORIES@@QEAAJPEAVBITFIELD@@0@Z" ; netui2.dll
"?AreUsersShown@NT_USER_BROWSER_DIALOG@@QEBAHXZ" ; netui2.dll
"?AssignAux@ATOM_BASE@@IEAAPEBGPEBG@Z" ; netui2.dll
"?Attach@POPUP_MENU@@QEAAJAEBVPWND2HWND@@@Z" ; netui2.dll
"?BLTDoubleChar@@YAJPEAVNLS_STR@@G@Z" ; netui2.dll
"?BLTMoveItems@SET_CONTROL@@MEAAJPEAVBLT_LISTBOX@@0@Z" ; netui2.dll
"?BLTPoints2LogUnits@@YAHH@Z" ; netui2.dll
"?Beep@LOGON_HOURS_CONTROL@@AEBAXXZ" ; netui2.dll
"?BiasMenuIds@UI_MENU_EXT@@IEAAJK@Z" ; netui2.dll
"?BinarySearch@USER_LBI_CACHE@@QEAAHPEAU_DOMAIN_DISPLAY_USER@@@Z" ; netui2.dll
"?BinarySearch@USER_LBI_CACHE@@QEAAHPEAVLBI@@@Z" ; netui2.dll
"?BitBlt@DEVICE_CONTEXT@@QEAAHAEBVXYPOINT@@VXYDIMENSION@@AEBV1@0K@Z" ; netui2.dll
"?BitBlt@DEVICE_CONTEXT@@QEAAHHHHHAEBV1@HHK@Z" ; netui2.dll
"?BitsToString@MASK_MAP@@QEAAJAEBVBITFIELD@@PEAVNLS_STR@@HPEAI@Z" ; netui2.dll
"?BuildAndAddLBI@USER_BROWSER_LBI_CACHE@@IEAAJPEBG0000QEAXW4UI_SystemSid@@W4_SID_NAME_USE@@K@Z" ; netui2.dll
"?BuildNameListFromStrList@ACCOUNT_NAMES_MLE@@IEAAJPEAVNLS_STR@@PEAVSTRLIST@@@Z" ; netui2.dll
"?CBSubclassProc@BLT_COMBOBOX@@KA_JPEAUHWND__@@I_K_J@Z" ; netui2.dll
"?CD_Char@BLT_LISTBOX@@MEAAHGG@Z" ; netui2.dll
"?CD_Char@BLT_LISTBOX_HAW@@MEAAHGG@Z" ; netui2.dll
"?CD_Char@CONTROL_WINDOW@@MEAAHGG@Z" ; netui2.dll
"?CD_Char@LM_OLLB@@MEAAHGG@Z" ; netui2.dll
"?CD_Char@OUTLINE_LISTBOX@@MEAAHGG@Z" ; netui2.dll
"?CD_Char@STATELB@@MEAAHGG@Z" ; netui2.dll
"?CD_Char@USER_BROWSER_LB@@MEAAHGG@Z" ; netui2.dll
"?CD_Char_HAWforHawaii@BLT_LISTBOX@@IEAAHGGPEAVHAW_FOR_HAWAII_INFO@@@Z" ; netui2.dll
"?CD_Char_HAWforHawaii@USER_BROWSER_LB@@IEAAHGGPEAVHAW_FOR_HAWAII_INFO@@@Z" ; netui2.dll
"?CD_Draw@CONTROL_WINDOW@@MEAAHPEAUtagDRAWITEMSTRUCT@@@Z" ; netui2.dll
"?CD_Draw@GRAPHICAL_BUTTON@@MEAAHPEAUtagDRAWITEMSTRUCT@@@Z" ; netui2.dll
"?CD_Draw@GRAPHICAL_BUTTON_WITH_DISABLE@@MEAAHPEAUtagDRAWITEMSTRUCT@@@Z" ; netui2.dll
"?CD_Draw@LISTBOX@@MEAAHPEAUtagDRAWITEMSTRUCT@@@Z" ; netui2.dll
"?CD_Guiltt@BLT_LISTBOX@@MEAAJHPEAVNLS_STR@@@Z" ; netui2.dll
"?CD_Guiltt@CONTROL_WINDOW@@MEAAJHPEAVNLS_STR@@@Z" ; netui2.dll
"?CD_Guiltt@LAZY_LISTBOX@@MEAAJHPEAVNLS_STR@@@Z" ; netui2.dll
"?CD_Measure@BLT_LISTBOX@@MEAAHPEAUtagMEASUREITEMSTRUCT@@@Z" ; netui2.dll
"?CD_Measure@CONTROL_WINDOW@@MEAAHPEAUtagMEASUREITEMSTRUCT@@@Z" ; netui2.dll
"?CD_VKey@CONTROL_WINDOW@@MEAAHGG@Z" ; netui2.dll
"?CD_VKey@LISTBOX@@MEAAHGG@Z" ; netui2.dll
"?CD_VKey@STATELB@@MEAAHGG@Z" ; netui2.dll
"?CD_VKey@USER_BROWSER_LB@@MEAAHGG@Z" ; netui2.dll
"?CVRestoreValue@CONTROL_GROUP@@IEAAXPEAVCONTROL_VALUE@@H@Z" ; netui2.dll
"?CVRestoreValue@CUSTOM_CONTROL@@QEAAXH@Z" ; netui2.dll
"?CVSaveValue@CONTROL_GROUP@@IEAAXPEAVCONTROL_VALUE@@H@Z" ; netui2.dll
"?CVSaveValue@CUSTOM_CONTROL@@QEAAXH@Z" ; netui2.dll
"?CalcAppropriateCursor@SET_CONTROL@@AEBAPEAUHICON__@@PEAVLISTBOX@@0AEBVXYPOINT@@@Z" ; netui2.dll
"?CalcBottomTextMargin@METALLIC_STR_DTE@@CAIXZ" ; netui2.dll
"?CalcButtonFromPoint@LOGON_HOURS_CONTROL@@AEBAHVXYPOINT@@@Z" ; netui2.dll
"?CalcColumnWidths@DISPLAY_TABLE@@SAJPEAIIPEAVOWNER_WINDOW@@IH@Z" ; netui2.dll
"?CalcDefButton@POPUP@@CAHII@Z" ; netui2.dll
"?CalcFixedCDMeasure@OWNER_WINDOW@@KAHPEAUHWND__@@PEAUtagMEASUREITEMSTRUCT@@@Z" ; netui2.dll
"?CalcFixedHeight@WINDOW@@KAHPEAUHWND__@@PEAI@Z" ; netui2.dll
"?CalcGridRect@LOGON_HOURS_CONTROL@@AEBAXPEAVXYRECT@@@Z" ; netui2.dll
"?CalcHeight@LBI@@UEAAII@Z" ; netui2.dll
"?CalcHeight@XYRECT@@QEBAHXZ" ; netui2.dll
"?CalcHelpFileHC@BLT@@SAPEBGK@Z" ; netui2.dll
"?CalcHmodRsrc@BLT@@SAPEAUHINSTANCE__@@AEBVIDRESOURCE@@@Z" ; netui2.dll
"?CalcHmodString@BLT@@SAPEAUHINSTANCE__@@J@Z" ; netui2.dll
"?CalcIntersect@XYRECT@@QEAAAEAV1@AEBV1@0@Z" ; netui2.dll
"?CalcRectForCell@LOGON_HOURS_CONTROL@@AEBAXPEAVXYRECT@@H@Z" ; netui2.dll
"?CalcRectForCorner@LOGON_HOURS_CONTROL@@AEBAXPEAVXYRECT@@@Z" ; netui2.dll
"?CalcRectForDay@LOGON_HOURS_CONTROL@@AEBAXPEAVXYRECT@@H@Z" ; netui2.dll
"?CalcRectForHour@LOGON_HOURS_CONTROL@@AEBAXPEAVXYRECT@@H@Z" ; netui2.dll
"?CalcSingleLineHeight@BLT_LISTBOX@@QEAAJXZ" ; netui2.dll
"?CalcSizes@LOGON_HOURS_CONTROL@@AEAAJVXYDIMENSION@@@Z" ; netui2.dll
"?CalcTopTextMargin@METALLIC_STR_DTE@@CAIXZ" ; netui2.dll
"?CalcUnion@XYRECT@@QEAAAEAV1@AEBV1@0@Z" ; netui2.dll
"?CalcWidth@XYRECT@@QEBAHXZ" ; netui2.dll
"?CanonicalizeNames@ACCOUNT_NAMES_MLE@@QEAAJPEBGPEAVSTRLIST@@@Z" ; netui2.dll
"?CaptureMouse@CLIENT_WINDOW@@QEAAXXZ" ; netui2.dll
"?CaptureMouse@DISPATCHER@@QEAAXXZ" ; netui2.dll
"?Center@WINDOW@@QEAAXPEAUHWND__@@@Z" ; netui2.dll
"?ChangeFieldValue@SPIN_GROUP@@QEAAHGH@Z" ; netui2.dll
"?CheckFailed@AUDIT_CHECKBOXES@@QEAAXH@Z" ; netui2.dll
"?CheckItem@MENU_BASE@@QEBAIIHI@Z" ; netui2.dll
"?CheckLookedUpNames@ACCOUNT_NAMES_MLE@@IEAAJPEAPEAGPEAVLSA_TRANSLATED_SID_MEM@@PEAVSTRLIST@@PEAVNLS_STR@@PEBGPEAJ@Z" ; netui2.dll
"?CheckNameType@ACCOUNT_NAMES_MLE@@SAJW4_SID_NAME_USE@@K@Z" ; netui2.dll
"?CheckRange@CHANGEABLE_SPIN_ITEM@@QEBAHK@Z" ; netui2.dll
"?CheckSuccess@AUDIT_CHECKBOXES@@QEAAXH@Z" ; netui2.dll
"?CheckValid@CHANGEABLE_SPIN_ITEM@@UEAAHXZ" ; netui2.dll
"?CheckValid@SPIN_SLE_NUM_VALID@@UEAAHXZ" ; netui2.dll
"?CidToCtrlPtr@CONTROL_TABLE@@QEBAPEAVCONTROL_WINDOW@@I@Z" ; netui2.dll
"?CidToCtrlPtr@OWNER_WINDOW@@IEBAPEAVCONTROL_WINDOW@@I@Z" ; netui2.dll
"?ClaimFocus@CONTROL_WINDOW@@QEAAXXZ" ; netui2.dll
"?Clear@ARRAY_LIST_CONTROLVAL_CID_PAIR@@QEAAXXZ" ; netui2.dll
"?Clear@DLIST_OF_SPIN_ITEM@@QEAAXXZ" ; netui2.dll
"?Clear@SLIST_OF_ASSOCHCFILE@@QEAAXXZ" ; netui2.dll
"?Clear@SLIST_OF_CLIENTDATA@@QEAAXXZ" ; netui2.dll
"?Clear@SLIST_OF_OS_SID@@QEAAXXZ" ; netui2.dll
"?Clear@SLIST_OF_STRING_BITSET_PAIR@@QEAAXXZ" ; netui2.dll
"?Clear@SLIST_OF_TIMER_BASE@@QEAAXXZ" ; netui2.dll
"?Clear@SLIST_OF_UI_EXT@@QEAAXXZ" ; netui2.dll
"?Clear@SLIST_OF_ULC_API_BUFFER@@QEAAXXZ" ; netui2.dll
"?Clear@SLIST_OF_USER_BROWSER_LBI@@QEAAXXZ" ; netui2.dll
"?ClearDragBar@H_SPLITTER_BAR@@AEAAXXZ" ; netui2.dll
"?ClearMasterTimerHotkey@BLT_MASTER_TIMER@@SAKXZ" ; netui2.dll
"?ClearText@SLT_ELLIPSIS@@QEAAXXZ" ; netui2.dll
"?ClearText@WINDOW@@QEAAXXZ" ; netui2.dll
"?ClientToScreen@XYPOINT@@QEAAXPEAUHWND__@@@Z" ; netui2.dll
"?Close@APP_WINDOW@@QEAAXXZ" ; netui2.dll
"?Close@WIN32_HANDLE@@QEAAJXZ" ; netui2.dll
"?CloseFile@OPEN_DIALOG_BASE@@IEAAXPEAVOPEN_LBI_BASE@@@Z" ; netui2.dll
"?CmpUniStrs@USER_LBI_CACHE@@KAHPEBU_UNICODE_STRING@@0@Z" ; netui2.dll
"?CollapseDomain@LM_OLLB@@QEAAJH@Z" ; netui2.dll
"?CollapseDomain@LM_OLLB@@QEAAJXZ" ; netui2.dll
"?CollapseItem@HIER_LISTBOX@@QEAAXHH@Z" ; netui2.dll
"?CollapseItem@HIER_LISTBOX@@QEAAXPEAVHIER_LBI@@H@Z" ; netui2.dll
"?CommDlgHookProc@@YAHPEAUHWND__@@G_K_J@Z" ; netui2.dll
"?Command@WINDOW@@QEBA_KI_K_J@Z" ; netui2.dll
"?Compare@BROWSER_DOMAIN_LBI@@UEBAHPEBVLBI@@@Z" ; netui2.dll
"?Compare@BROWSER_DOMAIN_LBI_PB@@UEBAHPEBVLBI@@@Z" ; netui2.dll
"?Compare@CONTROLVAL_CID_PAIR@@QEBAHPEBV1@@Z" ; netui2.dll
"?Compare@LBI@@UEBAHPEBV1@@Z" ; netui2.dll
"?Compare@OLLB_ENTRY@@UEBAHPEBVLBI@@@Z" ; netui2.dll
"?Compare@STLBITEM@@MEBAHPEBVLBI@@@Z" ; netui2.dll
"?Compare@USER_BROWSER_LBI@@UEBAHPEBVLBI@@@Z" ; netui2.dll
"?Compare@USER_BROWSER_LBI_CACHE@@MEBAHPEBVLBI@@0@Z" ; netui2.dll
"?Compare@USER_BROWSER_LBI_CACHE@@MEBAHPEBVLBI@@PEBU_DOMAIN_DISPLAY_USER@@@Z" ; netui2.dll
"?CompareAux@USER_BROWSER_LBI@@QEBAHPEBVLBI@@@Z" ; netui2.dll
"?CompareCacheLBIs@USER_BROWSER_LBI_CACHE@@KAHPEBU_ULC_ENTRY_BASE@@0@Z" ; netui2.dll
"?CompareLogonNames@USER_LBI_CACHE@@KAHPEBX0@Z" ; netui2.dll
"?Compare_HAWforHawaii@LBI@@UEBAHAEBVNLS_STR@@@Z" ; netui2.dll
"?Compare_HAWforHawaii@USER_BROWSER_LBI@@UEBAHAEBVNLS_STR@@@Z" ; netui2.dll
"?ComparepLBIs@@YAHPEBQEAVUSER_BROWSER_LBI@@0@Z" ; netui2.dll
"?Connect@PROMPT_AND_CONNECT@@QEAAJXZ" ; netui2.dll
"?ContainsXY@XYRECT@@QEBAHVXYPOINT@@@Z" ; netui2.dll
"?ConvertAndSetStr@SLT_ELLIPSIS@@IEAAJXZ" ; netui2.dll
"?ConvertClientToScreen@XYRECT@@QEAAXPEAUHWND__@@@Z" ; netui2.dll
"?ConvertScreenToClient@XYRECT@@QEAAXPEAUHWND__@@@Z" ; netui2.dll
"?CreateLBI@USER_BROWSER_LBI_CACHE@@MEAAPEAVLBI@@PEBU_DOMAIN_DISPLAY_USER@@@Z" ; netui2.dll
"?CreateLBIListFromNames@ACCOUNT_NAMES_MLE@@QEAAJPEBG0PEAVSLIST_OF_USER_BROWSER_LBI@@1PEAJPEAVNLS_STR@@@Z" ; netui2.dll
"?CreateLBIsFromSids@@YAJPEBQEAXKQEAXPEAVLSA_POLICY@@PEBGPEAVUSER_BROWSER_LB@@PEAVSLIST_OF_USER_BROWSER_LBI@@@Z" ; netui2.dll
"?CtAux@GRAPHICAL_BUTTON@@AEAAXPEBG00@Z" ; netui2.dll
"?CtAux@H_SPLITTER_BAR@@AEAAXXZ" ; netui2.dll
"?CtAux@POPUP_MENU@@AEAAJPEAUHMENU__@@@Z" ; netui2.dll
"?CtAux@PROGRESS_CONTROL@@AEAAXXZ" ; netui2.dll
"?Delete@MENU_BASE@@QEBAJII@Z" ; netui2.dll
"?DeleteAllItems@LIST_CONTROL@@QEAAXXZ" ; netui2.dll
"?DeleteAndExit@WIN32_THREAD@@IEAAXI@Z" ; netui2.dll
"?DeleteChildren@HIER_LISTBOX@@QEAAXPEAVHIER_LBI@@@Z" ; netui2.dll
"?DeleteCurrentDeviceName@DEVICE_COMBO@@QEAAXXZ" ; netui2.dll
"?DeleteItem@HIER_LISTBOX@@QEAAHHH@Z" ; netui2.dll
"?DeleteItem@LIST_CONTROL@@QEAAHH@Z" ; netui2.dll
"?DeregisterHelpFile@BLT@@SAXPEAUHINSTANCE__@@K@Z" ; netui2.dll
"?Destroy@POPUP_MENU@@QEAAJXZ" ; netui2.dll
"?Dismiss@DIALOG_WINDOW@@IEAAXI@Z" ; netui2.dll
"?DismissMsg@DIALOG_WINDOW@@IEAAXJI@Z" ; netui2.dll
"?Dispatch@DISPATCHER@@MEAAHAEBVEVENT@@PEAK@Z" ; netui2.dll
"?Dispatch@H_SPLITTER_BAR@@MEAAHAEBVEVENT@@PEAK@Z" ; netui2.dll
"?Dispatch@LB_COLUMN_HEADER@@MEAAHAEBVEVENT@@PEAK@Z" ; netui2.dll
"?DispatchMessageW@APP_WINDOW@@MEAA_JAEBVEVENT@@@Z" ; netui2.dll
"?DispatchMessageW@CLIENT_WINDOW@@MEAA_JAEBVEVENT@@@Z" ; netui2.dll
"?DispatchTimer@PROC_TIMER@@MEAAXXZ" ; netui2.dll
"?DispatchTimer@TIMER@@MEAAXXZ" ; netui2.dll
"?DispatchTimer@TIMER_BASE@@MEAAXXZ" ; netui2.dll
"?DispatchTimer@WINDOW_TIMER@@MEAAXXZ" ; netui2.dll
"?DisplayCtError@APPLICATION@@AEAAXJ@Z" ; netui2.dll
"?DisplayErrorMsg@SPIN_SLE_NUM_VALID@@MEAAXXZ" ; netui2.dll
"?DisplayGenericError@@YAIAEBVOWNINGWND@@JJPEBG1W4MSG_SEVERITY@@@Z" ; netui2.dll
"?DisplayGenericError@@YAIAEBVOWNINGWND@@JJPEBGW4MSG_SEVERITY@@@Z" ; netui2.dll
"?DisplayNum@SPIN_SLE_NUM@@AEAAXK@Z" ; netui2.dll
"?DlgProc@DIALOG_WINDOW@@SA_JPEAUHWND__@@I_K_J@Z" ; netui2.dll
"?DoAdd@SET_CONTROL@@UEAAJXZ" ; netui2.dll
"?DoAddOrRemove@SET_CONTROL@@AEAAJPEAVLISTBOX@@0@Z" ; netui2.dll
"?DoArrowCommand@SPIN_GROUP@@QEAAHIG@Z" ; netui2.dll
"?DoBanButton@LOGON_HOURS_CONTROL@@QEAAXXZ" ; netui2.dll
"?DoButtonClick@LOGON_HOURS_CONTROL@@AEAAXH@Z" ; netui2.dll
"?DoButtonDownVisuals@LOGON_HOURS_CONTROL@@AEAAXXZ" ; netui2.dll
"?DoButtonUpVisuals@LOGON_HOURS_CONTROL@@AEAAXH@Z" ; netui2.dll
"?DoChar@DISPATCHER@@QEAAHAEBVCHAR_EVENT@@@Z" ; netui2.dll
"?DoChar@SPIN_GROUP@@QEAAHAEBVCHAR_EVENT@@@Z" ; netui2.dll
"?DoNewFocus@SPIN_GROUP@@QEAAHPEAVSPIN_ITEM@@@Z" ; netui2.dll
"?DoOneItem@CANCEL_TASK_DIALOG@@MEAAJ_KPEAH1PEAJ@Z" ; netui2.dll
"?DoPermitButton@LOGON_HOURS_CONTROL@@QEAAXXZ" ; netui2.dll
"?DoRemove@SET_CONTROL@@UEAAJXZ" ; netui2.dll
"?DoSearch@NT_FIND_ACCOUNT_DIALOG@@IEAAJXZ" ; netui2.dll
"?DoUserMessage@DISPATCHER@@QEAAHAEBVEVENT@@@Z" ; netui2.dll
"?DrawAllButtons@LOGON_HOURS_CONTROL@@AEBAHAEAVPAINT_DISPLAY_CONTEXT@@@Z" ; netui2.dll
"?DrawBackground@LOGON_HOURS_CONTROL@@AEBAHAEAVPAINT_DISPLAY_CONTEXT@@@Z" ; netui2.dll
"?DrawCurrentSelection@LOGON_HOURS_CONTROL@@AEBAXAEBVDISPLAY_CONTEXT@@@Z" ; netui2.dll
"?DrawFocusOnCell@LOGON_HOURS_CONTROL@@AEBAXAEBVDISPLAY_CONTEXT@@H@Z" ; netui2.dll
"?DrawFocusOnCornerButton@LOGON_HOURS_CONTROL@@AEBAXAEBVDISPLAY_CONTEXT@@@Z" ; netui2.dll
"?DrawFocusOnDayButton@LOGON_HOURS_CONTROL@@AEBAXAEBVDISPLAY_CONTEXT@@H@Z" ; netui2.dll
"?DrawFocusOnHourButton@LOGON_HOURS_CONTROL@@AEBAXAEBVDISPLAY_CONTEXT@@H@Z" ; netui2.dll
"?DrawFocusRect@DEVICE_CONTEXT@@QEBAXPEBUtagRECT@@@Z" ; netui2.dll
"?DrawFocusRect@FOCUS_CHECKBOX@@IEAAXPEAVDEVICE_CONTEXT@@PEAUtagRECT@@H@Z" ; netui2.dll
"?DrawFocusSomewhere@LOGON_HOURS_CONTROL@@AEBAXAEBVDISPLAY_CONTEXT@@H@Z" ; netui2.dll
"?DrawGridSetting@LOGON_HOURS_CONTROL@@AEBAHAEAVPAINT_DISPLAY_CONTEXT@@@Z" ; netui2.dll
"?DrawGridWires@LOGON_HOURS_CONTROL@@AEBAHAEAVPAINT_DISPLAY_CONTEXT@@@Z" ; netui2.dll
"?DrawIcon@APP_WINDOW@@AEAAHXZ" ; netui2.dll
"?DrawMenuBar@APP_WINDOW@@QEBAJXZ" ; netui2.dll
"?DrawOneCornerButton@LOGON_HOURS_CONTROL@@AEBAXAEAVPAINT_DISPLAY_CONTEXT@@AEBVXYRECT@@HPEAUHBRUSH__@@PEAUHPEN__@@3@Z" ; netui2.dll
"?DrawOneDayBar@LOGON_HOURS_CONTROL@@AEBAHAEAVPAINT_DISPLAY_CONTEXT@@HHHPEAUHBRUSH__@@@Z" ; netui2.dll
"?DrawOneFlatButton@LOGON_HOURS_CONTROL@@AEBAXAEAVPAINT_DISPLAY_CONTEXT@@AEBVXYRECT@@HPEAUHBRUSH__@@PEAUHPEN__@@3@Z" ; netui2.dll
"?DrawRect@DEVICE_CONTEXT@@QEBAXPEBUtagRECT@@@Z" ; netui2.dll
"?DrawSelectionOnCell@LOGON_HOURS_CONTROL@@AEBAXAEBVDISPLAY_CONTEXT@@H@Z" ; netui2.dll
"?DrawSelectionOnCells@LOGON_HOURS_CONTROL@@AEBAXAEBVDISPLAY_CONTEXT@@HH@Z" ; netui2.dll
"?DrawTextW@DEVICE_CONTEXT@@QEAAHAEBVNLS_STR@@PEAUtagRECT@@I@Z" ; netui2.dll
"?Emergency@POPUP@@AEBAHXZ" ; netui2.dll
"?Enable@AUDIT_CHECKBOXES@@QEAAXHH@Z" ; netui2.dll
"?Enable@MAGIC_GROUP@@QEAAXH@Z" ; netui2.dll
"?Enable@MENUITEM@@QEAAXH@Z" ; netui2.dll
"?Enable@RADIO_GROUP@@QEAAXH@Z" ; netui2.dll
"?Enable@SET_OF_AUDIT_CATEGORIES@@QEAAXHH@Z" ; netui2.dll
"?Enable@TIMER_BASE@@QEAAXH@Z" ; netui2.dll
"?Enable@WINDOW@@QEAAXH@Z" ; netui2.dll
"?EnableBrowsing@NT_USER_BROWSER_DIALOG@@IEAAXH@Z" ; netui2.dll
"?EnableButtons@SET_CONTROL@@IEAAXXZ" ; netui2.dll
"?EnableItem@MENU_BASE@@QEBAIIHI@Z" ; netui2.dll
"?EnableMoves@SET_CONTROL@@QEAAXH@Z" ; netui2.dll
"?EnableThirdState@TRISTATE@@QEAAXH@Z" ; netui2.dll
"?EnterBLTCritSect@BLTIMP@@SAJXZ" ; netui2.dll
"?EnterResourceCritSect@BLTIMP@@SAJXZ" ; netui2.dll
"?EnumBits@MASK_MAP@@QEAAJPEAVBITFIELD@@PEAH1H@Z" ; netui2.dll
"?EnumStrings@MASK_MAP@@QEAAJPEAVNLS_STR@@PEAH1H@Z" ; netui2.dll
"?EraseFocusRect@FOCUS_CHECKBOX@@IEAAXPEAVDEVICE_CONTEXT@@PEAUtagRECT@@@Z" ; netui2.dll
"?EraseSelection@LOGON_HOURS_CONTROL@@AEAAXAEBVDISPLAY_CONTEXT@@@Z" ; netui2.dll
"?Exit@WIN32_THREAD@@IEAAXI@Z" ; netui2.dll
"?ExitThread@DOMAIN_FILL_THREAD@@QEAAJXZ" ; netui2.dll
"?ExitThread@FOCUSDLG_DATA_THREAD@@QEAAJXZ" ; netui2.dll
"?ExpandChildren@HIER_LISTBOX@@AEAAHHPEAVHIER_LBI@@@Z" ; netui2.dll
"?ExpandDomain@LM_OLLB@@QEAAJH@Z" ; netui2.dll
"?ExpandDomain@LM_OLLB@@QEAAJXZ" ; netui2.dll
"?ExpandItem@HIER_LISTBOX@@QEAAJH@Z" ; netui2.dll
"?ExpandItem@HIER_LISTBOX@@QEAAJPEAVHIER_LBI@@@Z" ; netui2.dll
"?ExtTextOutW@DEVICE_CONTEXT@@QEAAHHHIPEBUtagRECT@@AEBVNLS_STR@@PEAH@Z" ; netui2.dll
"?ExtTextOutW@DEVICE_CONTEXT@@QEAAHHHIPEBUtagRECT@@PEBGHPEAH@Z" ; netui2.dll
"?Fill@NT_GROUP_BROWSER_LB@@QEAAJPEBQEAXKPEBVSAM_DOMAIN@@PEAVLSA_POLICY@@PEBG@Z" ; netui2.dll
"?Fill@OPEN_LBOX_BASE@@QEAAJXZ" ; netui2.dll
"?Fill@USER_BROWSER_LBI_CACHE@@QEAAJPEAVADMIN_AUTHORITY@@PEBGKHHPEAH@Z" ; netui2.dll
"?FillAllInfo@LM_OLLB@@QEAAXPEAVBROWSE_DOMAIN_ENUM@@PEAVSERVER1_ENUM@@PEBG@Z" ; netui2.dll
"?FillButtonArray@MSGPOPUP_DIALOG@@AEAAXIPEAH0@Z" ; netui2.dll
"?FillDevices@DEVICE_COMBO@@AEAAJXZ" ; netui2.dll
"?FillDomains@LM_OLLB@@AEAAJKPEBG@Z" ; netui2.dll
"?FillGlobalGroupMembers@NT_GROUP_BROWSER_LB@@QEAAJPEBVOS_SID@@PEBVSAM_DOMAIN@@1PEAVLSA_POLICY@@PEBG@Z" ; netui2.dll
"?FillLocalGroupMembers@NT_GROUP_BROWSER_LB@@QEAAJPEBVOS_SID@@PEBVSAM_DOMAIN@@1PEAVLSA_POLICY@@PEBG@Z" ; netui2.dll
"?FillServers@LM_OLLB@@AEAAJPEBGPEAI@Z" ; netui2.dll
"?FilterMessage@DIALOG_WINDOW@@MEAAHPEAUtagMSG@@@Z" ; netui2.dll
"?FilterMessage@HAS_MESSAGE_PUMP@@MEAAHPEAUtagMSG@@@Z" ; netui2.dll
"?Find@ARRAY_LIST_CONTROLVAL_CID_PAIR@@QEBAHAEBVCONTROLVAL_CID_PAIR@@@Z" ; netui2.dll
"?Find@HWND_DLGPTR_CACHE@@SAPEAVDIALOG_WINDOW@@PEAUHWND__@@@Z" ; netui2.dll
"?FindAssocRadioButton@MAGIC_GROUP@@AEAAIPEAVCONTROL_VALUE@@@Z" ; netui2.dll
"?FindDomain@NT_USER_BROWSER_DIALOG@@QEAAPEAVBROWSER_DOMAIN@@PEBVOS_SID@@@Z" ; netui2.dll
"?FindExtensionByDelta@UI_EXT_MGR@@QEAAPEAVUI_EXT@@K@Z" ; netui2.dll
"?FindExtensionByName@UI_EXT_MGR@@QEAAPEAVUI_EXT@@PEBG@Z" ; netui2.dll
"?FindItem@BLT_LISTBOX@@QEBAHAEBVLBI@@@Z" ; netui2.dll
"?FindItem@OUTLINE_LISTBOX@@QEBAHPEBG0@Z" ; netui2.dll
"?FindItem@STRING_LIST_CONTROL@@QEBAHPEBG@Z" ; netui2.dll
"?FindItem@STRING_LIST_CONTROL@@QEBAHPEBGH@Z" ; netui2.dll
"?FindItemExact@STRING_LIST_CONTROL@@QEBAHPEBG@Z" ; netui2.dll
"?FindItemExact@STRING_LIST_CONTROL@@QEBAHPEBGH@Z" ; netui2.dll
"?FrameRect@DEVICE_CONTEXT@@QEBAXPEBUtagRECT@@PEAUHBRUSH__@@@Z" ; netui2.dll
"?GetAccKey@SPIN_SLE_STR@@EEAAJPEAVNLS_STR@@@Z" ; netui2.dll
"?GetAccKey@SPIN_SLT_SEPARATOR@@MEAAJPEAVNLS_STR@@@Z" ; netui2.dll
"?GetAndSendText@MSG_DIALOG_BASE@@AEAAJXZ" ; netui2.dll
"?GetBkColor@DEVICE_CONTEXT@@QEBAKXZ" ; netui2.dll
"?GetDomainInfo@BROWSER_DOMAIN@@QEAAJPEAVNT_USER_BROWSER_DIALOG@@PEBVADMIN_AUTHORITY@@@Z" ; netui2.dll
"?GetInfo@UI_DOMAIN@@QEAAJXZ" ; netui2.dll
"?GetPlacement@APP_WINDOW@@QEBAJPEAUtagWINDOWPLACEMENT@@@Z" ; netui2.dll
"?GetQualifiedDomainName@BROWSER_DOMAIN@@QEAAJPEAVNLS_STR@@@Z" ; netui2.dll
"?GetQualifiedDomainName@BROWSER_DOMAIN_LBI_PB@@QEAAJPEAVNLS_STR@@@Z" ; netui2.dll
"?GetTextColor@DEVICE_CONTEXT@@QEBAKXZ" ; netui2.dll
"?GetTransColorIndex@DISPLAY_MAP@@AEBAHPEAKH@Z" ; netui2.dll
"?GetTrustedDomainList@NT_USER_BROWSER_DIALOG@@IEAAJPEBGPEAPEAVBROWSER_DOMAIN@@PEAVBROWSER_DOMAIN_CB@@PEBVADMIN_AUTHORITY@@@Z" ; netui2.dll
"?HandleOnLMouseButtonDown@SET_CONTROL@@QEAAHPEAVLISTBOX@@PEAVCUSTOM_CONTROL@@AEBVMOUSE_EVENT@@@Z" ; netui2.dll
"?HandleOnLMouseButtonUp@SET_CONTROL@@QEAAHPEAVLISTBOX@@PEAVCUSTOM_CONTROL@@AEBVMOUSE_EVENT@@@Z" ; netui2.dll
"?HandleOnMouseMove@SET_CONTROL@@QEAAHPEAVLISTBOX@@AEBVMOUSE_EVENT@@@Z" ; netui2.dll
"?HasChildren@HIER_LBI@@QEAAHXZ" ; netui2.dll
"?HasFocus@WINDOW@@QEBAHXZ" ; netui2.dll
"?HwndToPdispatch@ASSOCHWNDDISP@@SAPEAVDISPATCHER@@PEAUHWND__@@@Z" ; netui2.dll
"?HwndToPdlg@ASSOCHWNDPDLG@@SAPEAVDIALOG_WINDOW@@PEAUHWND__@@@Z" ; netui2.dll
"?HwndToPwnd@ASSOCHWNDPWND@@SAPEAVCLIENT_WINDOW@@PEAUHWND__@@@Z" ; netui2.dll
"?HwndToPwnd@CLIENT_WINDOW@@CAPEAV1@PEAUHWND__@@@Z" ; netui2.dll
"?HwndToPwnd@DIALOG_WINDOW@@CAPEAV1@PEAUHWND__@@@Z" ; netui2.dll
"?HwndToPwnd@DISPATCHER@@KAPEAV1@PEAUHWND__@@@Z" ; netui2.dll
"?HwndToThis@ASSOCHWNDTHIS@@SAPEAXPEAUHWND__@@@Z" ; netui2.dll
"?InRasMode@BASE_SET_FOCUS_DLG@@QEBAHXZ" ; netui2.dll
"?InRect@XYPOINT@@QEBAHAEBVXYRECT@@@Z" ; netui2.dll
"?IndicateError@CONTROL_WINDOW@@UEAAXJ@Z" ; netui2.dll
"?IndicateError@SLE@@UEAAXJ@Z" ; netui2.dll
"?Inflate@XYRECT@@QEAAAEAV1@HH@Z" ; netui2.dll
"?Inflate@XYRECT@@QEAAAEAV1@VXYDIMENSION@@@Z" ; netui2.dll
"?Init@BASE_ELLIPSIS@@SAJXZ" ; netui2.dll
"?Init@BLT@@SAJPEAUHINSTANCE__@@IIII@Z" ; netui2.dll
"?Init@BLTIMP@@SAJXZ" ; netui2.dll
"?Init@BLT_MASTER_TIMER@@SAJXZ" ; netui2.dll
"?Init@CLIENT_WINDOW@@SAJXZ" ; netui2.dll
"?Init@POPUP@@SAJXZ" ; netui2.dll
"?Init@SLE_STRLB_GROUP@@QEAAJPEAVSTRLIST@@@Z" ; netui2.dll
"?InitCHOOSEFONT@WIN32_FONT_PICKER@@SAXPEAUtagCHOOSEFONTW@@PEAUtagLOGFONTW@@PEAUHWND__@@@Z" ; netui2.dll
"?InitDLL@BLT@@SAJXZ" ; netui2.dll
"?InitialOFN@GET_FNAME_BASE_DLG@@IEAAXXZ" ; netui2.dll
"?Initialize@SPIN_SLE_STR@@AEAAJJPEAVOWNER_WINDOW@@I@Z" ; netui2.dll
"?Initialize@SPIN_SLE_STR@@AEAAJQEAPEBGPEAVOWNER_WINDOW@@I@Z" ; netui2.dll
"?Initialize@SPIN_SLT_SEPARATOR@@AEAAJXZ" ; netui2.dll
"?Insert@MENU_BASE@@QEBAJPEBGIII@Z" ; netui2.dll
"?Insert@MENU_BASE@@QEBAJPEBGIPEAUHMENU__@@I@Z" ; netui2.dll
"?InsertItem@BLT_LISTBOX@@QEAAHHPEAVLBI@@@Z" ; netui2.dll
"?InsertItem@STRING_LIST_CONTROL@@QEAAHHAEBVNLS_STR@@@Z" ; netui2.dll
"?InsertItem@STRING_LIST_CONTROL@@QEAAHHPEBG@Z" ; netui2.dll
"?InsertItemData@LIST_CONTROL@@IEAAHHPEAX@Z" ; netui2.dll
"?InsertParams@NLS_STR@@QEAAJAEBV1@@Z" ; netui2.dll
"?InsertSeparator@MENU_BASE@@QEBAJII@Z" ; netui2.dll
"?InsertTimer@BLT_MASTER_TIMER@@QEAAJPEAVTIMER_BASE@@@Z" ; netui2.dll
"?Invalidate@WINDOW@@QEAAXAEBVXYRECT@@@Z" ; netui2.dll
"?Invalidate@WINDOW@@QEAAXH@Z" ; netui2.dll
"?InvalidateButton@LOGON_HOURS_CONTROL@@AEAAXH@Z" ; netui2.dll
"?InvalidateItem@LISTBOX@@QEAAXHH@Z" ; netui2.dll
"?InvertDragBar@H_SPLITTER_BAR@@AEAAXAEBVXYPOINT@@@Z" ; netui2.dll
"?InvertRect@DEVICE_CONTEXT@@QEBAXPEBUtagRECT@@@Z" ; netui2.dll
"?Is24Hour@INTL_PROFILE@@QEBAHXZ" ; netui2.dll
"?IsActivating@ACTIVATION_EVENT@@QEBAHXZ" ; netui2.dll
"?IsActive@SPIN_GROUP@@QEBAHXZ" ; netui2.dll
"?IsAssociatedHC@ASSOCHCFILE@@QEBAHK@Z" ; netui2.dll
"?IsAutoReadjusting@HEAP_BASE@@IEBAHXZ" ; netui2.dll
"?IsBrowsingEnabled@NT_USER_BROWSER_DIALOG@@IEBAHXZ" ; netui2.dll
"?IsButtonACell@LOGON_HOURS_CONTROL@@AEBAHH@Z" ; netui2.dll
"?IsChecked@MENUITEM@@QEBAHXZ" ; netui2.dll
"?IsChild@WINDOW@@QEBAHXZ" ; netui2.dll
"?IsClientGeneratedMessage@WINDOW@@SAHXZ" ; netui2.dll
"?IsCombo@LIST_CONTROL@@QEBAHXZ" ; netui2.dll
"?IsConnected@PROMPT_AND_CONNECT@@QEAAHXZ" ; netui2.dll
"?IsConstructionFail@BLT_DATE_SPIN_GROUP@@AEAAHPEAVCONTROL_WINDOW@@@Z" ; netui2.dll
"?IsConstructionFail@BLT_TIME_SPIN_GROUP@@AEAAHPEAVCONTROL_WINDOW@@@Z" ; netui2.dll
"?IsDayLZero@INTL_PROFILE@@QEBAHXZ" ; netui2.dll
"?IsDestroyable@HIER_LBI@@EEAAHXZ" ; netui2.dll
"?IsDestroyable@LBI@@MEAAHXZ" ; netui2.dll
"?IsDomainComboDropped@NT_USER_BROWSER_DIALOG@@IEBAHXZ" ; netui2.dll
"?IsDropDown@COMBOBOX@@QEBAHXZ" ; netui2.dll
"?IsDropDownList@COMBOBOX@@QEBAHXZ" ; netui2.dll
"?IsDropped@BLT_COMBOBOX@@QEBAHXZ" ; netui2.dll
"?IsEmpty@XYRECT@@QEBAHXZ" ; netui2.dll
"?IsEnabled@MENUITEM@@QEBAHXZ" ; netui2.dll
"?IsEnabled@TIMER_BASE@@QEBAHXZ" ; netui2.dll
"?IsEnabled@WINDOW@@QEBAHXZ" ; netui2.dll
"?IsExpanded@BASE_SET_FOCUS_DLG@@IEBAHXZ" ; netui2.dll
"?IsExpanded@OLLB_ENTRY@@QEBAHXZ" ; netui2.dll
"?IsFailedChecked@AUDIT_CHECKBOXES@@QEAAHXZ" ; netui2.dll
"?IsFinished@CANCEL_TASK_DIALOG@@IEBAHXZ" ; netui2.dll
"?IsHelpActive@GET_FNAME_BASE_DLG@@QEAAHXZ" ; netui2.dll
"?IsHourLZero@INTL_PROFILE@@QEBAHXZ" ; netui2.dll
"?IsInTimer@CANCEL_TASK_DIALOG@@IEBAHXZ" ; netui2.dll
"?IsInitialized@BROWSER_DOMAIN@@QEBAHXZ" ; netui2.dll
"?IsItemAvailable@USER_LBI_CACHE@@UEAAHH@Z" ; netui2.dll
"?IsItemSelected@LIST_CONTROL@@QEBAHI@Z" ; netui2.dll
"?IsMember@RADIO_GROUP@@QEAAHI@Z" ; netui2.dll
"?IsMinimized@CLIENT_WINDOW@@QEBAHXZ" ; netui2.dll
"?IsModified@SPIN_GROUP@@QEBAHXZ" ; netui2.dll
"?IsMonthLZero@INTL_PROFILE@@QEBAHXZ" ; netui2.dll
"?IsMultSel@LIST_CONTROL@@QEBAHXZ" ; netui2.dll
"?IsOnDragStart@SET_CONTROL@@AEBAHPEAVLISTBOX@@0AEBVXYPOINT@@@Z" ; netui2.dll
"?IsOnSelectedItem@SET_CONTROL@@AEBAHPEAVLISTBOX@@0AEBVXYPOINT@@@Z" ; netui2.dll
"?IsOverTarget@SET_CONTROL@@AEBAHPEAVLISTBOX@@0AEBVXYPOINT@@@Z" ; netui2.dll
"?IsParent@HIER_LBI@@AEAAHPEAV1@@Z" ; netui2.dll
"?IsPopup@MENU_BASE@@QEBAHH@Z" ; netui2.dll
"?IsPresent@MASK_MAP@@QEAAHPEAVBITFIELD@@@Z" ; netui2.dll
"?IsPumpFinished@DIALOG_WINDOW@@MEAAHXZ" ; netui2.dll
"?IsPumpFinished@HAS_MESSAGE_PUMP@@MEAAHXZ" ; netui2.dll
"?IsReadOnly@LISTBOX@@QEBAHXZ" ; netui2.dll
"?IsRoot@HEAP_BASE@@IEBAHH@Z" ; netui2.dll
"?IsRunnable@WIN32_THREAD@@QEBAHXZ" ; netui2.dll
"?IsSelectionExpandableGroup@USER_BROWSER_LB@@IEBAHPEBVUSER_BROWSER_LBI@@H@Z" ; netui2.dll
"?IsSelectionExpandableGroup@USER_BROWSER_LB@@QEBAHXZ" ; netui2.dll
"?IsSeparator@MENU_BASE@@QEBAHH@Z" ; netui2.dll
"?IsShowUsersButtonUsed@NT_USER_BROWSER_DIALOG@@IEBAHXZ" ; netui2.dll
"?IsSimple@COMBOBOX@@QEBAHXZ" ; netui2.dll
"?IsSingleSelect@ACCOUNT_NAMES_MLE@@QEBAHXZ" ; netui2.dll
"?IsSingleSelection@NT_USER_BROWSER_DIALOG@@QEBAHXZ" ; netui2.dll
"?IsStatic@CHANGEABLE_SPIN_ITEM@@UEBAHXZ" ; netui2.dll
"?IsStatic@STATIC_SPIN_ITEM@@UEBAHXZ" ; netui2.dll
"?IsSuccessChecked@AUDIT_CHECKBOXES@@QEAAHXZ" ; netui2.dll
"?IsSystemInitialized@APPLICATION@@SAHXZ" ; netui2.dll
"?IsTargetDomain@BROWSER_DOMAIN@@QEBAHXZ" ; netui2.dll
"?IsTargetDomain@BROWSER_DOMAIN_LBI@@QEBAHXZ" ; netui2.dll
"?IsTargetDomain@BROWSER_DOMAIN_LBI_PB@@QEBAHXZ" ; netui2.dll
"?IsTimePrefix@INTL_PROFILE@@QEBAHXZ" ; netui2.dll
"?IsUserEdittable@COMBOBOX@@QEBAHXZ" ; netui2.dll
"?IsValid@BLT_DATE_SPIN_GROUP@@QEAAHXZ" ; netui2.dll
"?IsValid@BLT_TIME_SPIN_GROUP@@QEAAHXZ" ; netui2.dll
"?IsValid@DIALOG_WINDOW@@MEAAHXZ" ; netui2.dll
"?IsValid@SPIN_SLE_NUM_VALID@@MEAAHXZ" ; netui2.dll
"?IsValidField@SPIN_GROUP@@IEAAHXZ" ; netui2.dll
"?IsValidStyle@BASE_ELLIPSIS@@IEBAHW4ELLIPSIS_STYLE@@@Z" ; netui2.dll
"?IsWellKnownAccount@ACCOUNT_NAMES_MLE@@IEAAHAEBVNLS_STR@@@Z" ; netui2.dll
"?IsWinNTMachine@BROWSER_DOMAIN@@QEBAHXZ" ; netui2.dll
"?IsWithinHitZone@H_SPLITTER_BAR@@IEAAHAEBVXYPOINT@@@Z" ; netui2.dll
"?IsWithinHitZone@SET_CONTROL@@AEBAHPEAVLISTBOX@@0AEBVXYPOINT@@@Z" ; netui2.dll
"?IsYrCentury@INTL_PROFILE@@QEBAHXZ" ; netui2.dll
"?ItemExists@MENUITEM@@SAHPEAUHMENU__@@I@Z" ; netui2.dll
"?ItemExists@MENUITEM@@SAHPEAVAPP_WINDOW@@I@Z" ; netui2.dll
"?JumpNextField@SPIN_GROUP@@QEAAHXZ" ; netui2.dll
"?JumpPrevField@SPIN_GROUP@@QEAAHXZ" ; netui2.dll
"?LaunchHelp@DIALOG_WINDOW@@AEAAXXZ" ; netui2.dll
"?LeaveBLTCritSect@BLTIMP@@SAXXZ" ; netui2.dll
"?LeaveResourceCritSect@BLTIMP@@SAXXZ" ; netui2.dll
"?LineTo@DEVICE_CONTEXT@@QEBAXHH@Z" ; netui2.dll
"?Load@CURSOR@@SAPEAUHICON__@@AEBVIDRESOURCE@@@Z" ; netui2.dll
"?Load@NLS_STR@@QEAAJJ@Z" ; netui2.dll
"?LoadExtensions@UI_EXT_MGR@@UEAAIXZ" ; netui2.dll
"?LoadLabels@LOGON_HOURS_CONTROL@@AEAAJJ@Z" ; netui2.dll
"?LoadMessage@POPUP@@AEAAPEAVNLS_STR@@JH@Z" ; netui2.dll
"?LoadSystem@CURSOR@@SAPEAUHICON__@@AEBVIDRESOURCE@@@Z" ; netui2.dll
"?LoadSystem@NLS_STR@@QEAAJJ@Z" ; netui2.dll
"?LockCache@USER_LBI_CACHE@@MEAAXXZ" ; netui2.dll
"?MLTextPaint@@YAXPEAUHDC__@@PEBGPEBUtagRECT@@@Z" ; netui2.dll
"?Main@DOMAIN_FILL_THREAD@@MEAAJXZ" ; netui2.dll
"?Main@FOCUSDLG_DATA_THREAD@@MEAAJXZ" ; netui2.dll
"?Main@WIN32_THREAD@@MEAAJXZ" ; netui2.dll
"?MakeDefault@PUSH_BUTTON@@QEAAXXZ" ; netui2.dll
"?MapButton@POPUP@@CAHI@Z" ; netui2.dll
"?MapLastError@BLT@@SAJJ@Z" ; netui2.dll
"?MapMessage@POPUP@@SAJJ@Z" ; netui2.dll
"?MayRestore@APP_WINDOW@@MEAAHXZ" ; netui2.dll
"?MayRun@CANCEL_TASK_DIALOG@@MEAAHXZ" ; netui2.dll
"?MayRun@DIALOG_WINDOW@@MEAAHXZ" ; netui2.dll
"?MayShutdown@APP_WINDOW@@MEAAHXZ" ; netui2.dll
"?MenuInitExtensions@UI_MENU_EXT_MGR@@UEAAXXZ" ; netui2.dll
"?Modify@MENU_BASE@@QEBAJPEBGIII@Z" ; netui2.dll
"?Modify@MENU_BASE@@QEBAJPEBGIPEAUHMENU__@@I@Z" ; netui2.dll
"?MoveFocusDown@LOGON_HOURS_CONTROL@@AEAAXXZ" ; netui2.dll
"?MoveFocusLeft@LOGON_HOURS_CONTROL@@AEAAXXZ" ; netui2.dll
"?MoveFocusRight@LOGON_HOURS_CONTROL@@AEAAXXZ" ; netui2.dll
"?MoveFocusTo@LOGON_HOURS_CONTROL@@AEAAXH@Z" ; netui2.dll
"?MoveFocusUp@LOGON_HOURS_CONTROL@@AEAAXXZ" ; netui2.dll
"?MoveItems@BLT_SET_CONTROL@@MEAAJPEAVLISTBOX@@0@Z" ; netui2.dll
"?MoveTo@DEVICE_CONTEXT@@QEBAXHH@Z" ; netui2.dll
"?Msg2HC@MSGPOPUP_DIALOG@@CAHJPEAK@Z" ; netui2.dll
"?MsgPopup@@YAHAEBVOWNINGWND@@JJW4MSG_SEVERITY@@KIQEAPEAVNLS_STR@@I@Z" ; netui2.dll
"?MsgPopup@@YAHAEBVOWNINGWND@@JW4MSG_SEVERITY@@@Z" ; netui2.dll
"?MsgPopup@@YAHAEBVOWNINGWND@@JW4MSG_SEVERITY@@II@Z" ; netui2.dll
"?MsgPopup@@YAHAEBVOWNINGWND@@JW4MSG_SEVERITY@@IPEBG2I@Z" ; netui2.dll
"?MsgPopup@@YAHAEBVOWNINGWND@@JW4MSG_SEVERITY@@IPEBGI@Z" ; netui2.dll
"?MsgPopup@@YAHAEBVOWNINGWND@@JW4MSG_SEVERITY@@KIQEAPEAVNLS_STR@@I@Z" ; netui2.dll
"?Next@BROWSER_SUBJECT_ITER@@QEAAJPEAPEAVBROWSER_SUBJECT@@@Z" ; netui2.dll
"?Next@BROWSE_DOMAIN_ENUM@@QEAAPEBVBROWSE_DOMAIN_INFO@@XZ" ; netui2.dll
"?Next@ITER_CTRL@@QEAAPEAVCONTROL_WINDOW@@XZ" ; netui2.dll
"?Next@ITER_DL_SPIN_ITEM@@QEAAPEAVSPIN_ITEM@@XZ" ; netui2.dll
"?Next@ITER_SL_ASSOCHCFILE@@QEAAPEAVASSOCHCFILE@@XZ" ; netui2.dll
"?Next@ITER_SL_BROWSE_DOMAIN_INFO@@QEAAPEAVBROWSE_DOMAIN_INFO@@XZ" ; netui2.dll
"?Next@ITER_SL_CLIENTDATA@@QEAAPEAUCLIENTDATA@@XZ" ; netui2.dll
"?Next@ITER_SL_NLS_STR@@QEAAPEAVNLS_STR@@XZ" ; netui2.dll
"?Next@ITER_SL_STRING_BITSET_PAIR@@QEAAPEAVSTRING_BITSET_PAIR@@XZ" ; netui2.dll
"?Next@ITER_SL_TIMER_BASE@@QEAAPEAVTIMER_BASE@@XZ" ; netui2.dll
"?Next@ITER_SL_UI_EXT@@QEAAPEAVUI_EXT@@XZ" ; netui2.dll
"?Next@ITER_SL_USER_BROWSER_LBI@@QEAAPEAVUSER_BROWSER_LBI@@XZ" ; netui2.dll
"?Next@RITER_DL_SPIN_ITEM@@QEAAPEAVSPIN_ITEM@@XZ" ; netui2.dll
"?NextState@STLBITEM@@QEAAHXZ" ; netui2.dll
"?NextTimer@BLT_MASTER_TIMER@@QEAAPEAVTIMER_BASE@@XZ" ; netui2.dll
"?NotifyGroups@CONTROL_WINDOW@@QEAAJAEBVCONTROL_EVENT@@@Z" ; netui2.dll
"?Offset@XYRECT@@QEAAAEAV1@HH@Z" ; netui2.dll
"?Offset@XYRECT@@QEAAAEAV1@VXYDIMENSION@@@Z" ; netui2.dll
"?OnActivation@CLIENT_WINDOW@@MEAAHAEBVACTIVATION_EVENT@@@Z" ; netui2.dll
"?OnActivation@DISPATCHER@@MEAAHAEBVACTIVATION_EVENT@@@Z" ; netui2.dll
"?OnAdd@NT_USER_BROWSER_DIALOG@@IEAAJXZ" ; netui2.dll
"?OnAdd@SLE_STRLB_GROUP@@IEAAJXZ" ; netui2.dll
"?OnCDMessages@OWNER_WINDOW@@IEAAHI_K_J@Z" ; netui2.dll
"?OnCancel@DIALOG_WINDOW@@MEAAHXZ" ; netui2.dll
"?OnCancel@MSGPOPUP_DIALOG@@MEAAHXZ" ; netui2.dll
"?OnChange@CLIENT_WINDOW@@MEAAHAEBVCONTROL_EVENT@@@Z" ; netui2.dll
"?OnChar@CLIENT_WINDOW@@MEAAHAEBVCHAR_EVENT@@@Z" ; netui2.dll
"?OnChar@DISPATCHER@@MEAAHAEBVCHAR_EVENT@@@Z" ; netui2.dll
"?OnChar@SPIN_ITEM@@MEAAHAEBVCHAR_EVENT@@@Z" ; netui2.dll
"?OnChar@SPIN_SLE_NUM@@MEAAHAEBVCHAR_EVENT@@@Z" ; netui2.dll
"?OnChar@SPIN_SLE_STR@@MEAAHAEBVCHAR_EVENT@@@Z" ; netui2.dll
"?OnClick@CLIENT_WINDOW@@MEAAHAEBVCONTROL_EVENT@@@Z" ; netui2.dll
"?OnCloseReq@APP_WINDOW@@MEAAHXZ" ; netui2.dll
"?OnCloseReq@CLIENT_WINDOW@@MEAAHXZ" ; netui2.dll
"?OnCloseReq@DISPATCHER@@MEAAHXZ" ; netui2.dll
"?OnCommand@BASE_SET_FOCUS_DLG@@MEAAHAEBVCONTROL_EVENT@@@Z" ; netui2.dll
"?OnCommand@CLIENT_WINDOW@@MEAAHAEBVCONTROL_EVENT@@@Z" ; netui2.dll
"?OnCommand@DIALOG_WINDOW@@MEAAHAEBVCONTROL_EVENT@@@Z" ; netui2.dll
"?OnCommand@DISPATCHER@@MEAAHAEBVCONTROL_EVENT@@@Z" ; netui2.dll
"?OnCommand@EXPANDABLE_DIALOG@@MEAAHAEBVCONTROL_EVENT@@@Z" ; netui2.dll
"?OnCommand@MSGPOPUP_DIALOG@@MEAAHAEBVCONTROL_EVENT@@@Z" ; netui2.dll
"?OnCommand@NT_FIND_ACCOUNT_DIALOG@@MEAAHAEBVCONTROL_EVENT@@@Z" ; netui2.dll
"?OnCommand@NT_GROUP_BROWSER_DIALOG@@MEAAHAEBVCONTROL_EVENT@@@Z" ; netui2.dll
"?OnCommand@NT_LOCALGROUP_BROWSER_DIALOG@@MEAAHAEBVCONTROL_EVENT@@@Z" ; netui2.dll
"?OnCommand@NT_USER_BROWSER_DIALOG@@MEAAHAEBVCONTROL_EVENT@@@Z" ; netui2.dll
"?OnCommand@OPEN_DIALOG_BASE@@MEAAHAEBVCONTROL_EVENT@@@Z" ; netui2.dll
"?OnCompareItem@LBI@@SAH_K_J@Z" ; netui2.dll
"?OnControlError@DIALOG_WINDOW@@MEAAXIJ@Z" ; netui2.dll
"?OnCtlColor@BLT_BACKGROUND_EDIT@@UEAAPEAUHBRUSH__@@PEAUHDC__@@PEAUHWND__@@PEAI@Z" ; netui2.dll
"?OnCtlColor@CONTROL_WINDOW@@UEAAPEAUHBRUSH__@@PEAUHDC__@@PEAUHWND__@@PEAI@Z" ; netui2.dll
"?OnCtlColor@DIALOG_WINDOW@@MEAAPEAUHBRUSH__@@PEAUHDC__@@PEAUHWND__@@PEAI@Z" ; netui2.dll
"?OnCtlColor@SPIN_SLT_SEPARATOR@@UEAAPEAUHBRUSH__@@PEAUHDC__@@PEAUHWND__@@PEAI@Z" ; netui2.dll
"?OnDblClick@CLIENT_WINDOW@@MEAAHAEBVCONTROL_EVENT@@@Z" ; netui2.dll
"?OnDeactivation@CLIENT_WINDOW@@MEAAHAEBVACTIVATION_EVENT@@@Z" ; netui2.dll
"?OnDeactivation@DISPATCHER@@MEAAHAEBVACTIVATION_EVENT@@@Z" ; netui2.dll
"?OnDefocus@CLIENT_WINDOW@@MEAAHAEBVFOCUS_EVENT@@@Z" ; netui2.dll
"?OnDefocus@DISPATCHER@@MEAAHAEBVFOCUS_EVENT@@@Z" ; netui2.dll
"?OnDefocus@FOCUS_CHECKBOX@@MEAAHAEBVFOCUS_EVENT@@@Z" ; netui2.dll
"?OnDefocus@LOGON_HOURS_CONTROL@@MEAAHAEBVFOCUS_EVENT@@@Z" ; netui2.dll
"?OnDefocus@SPIN_SLE_NUM@@MEAAHAEBVFOCUS_EVENT@@@Z" ; netui2.dll
"?OnDefocus@SPIN_SLE_NUM_VALID@@MEAAHAEBVFOCUS_EVENT@@@Z" ; netui2.dll
"?OnDeleteItem@LAZY_LISTBOX@@MEAAXPEAVLBI@@@Z" ; netui2.dll
"?OnDeleteItem@LBI@@SAX_K_J@Z" ; netui2.dll
"?OnDeleteItem@USER_BROWSER_LB@@MEAAXPEAVLBI@@@Z" ; netui2.dll
"?OnDestroy@CLIENT_WINDOW@@MEAAHXZ" ; netui2.dll
"?OnDestroy@DISPATCHER@@MEAAHXZ" ; netui2.dll
"?OnDlgActivation@DIALOG_WINDOW@@MEAAHAEBVACTIVATION_EVENT@@@Z" ; netui2.dll
"?OnDlgDeactivation@DIALOG_WINDOW@@MEAAHAEBVACTIVATION_EVENT@@@Z" ; netui2.dll
"?OnDlgDeactivation@NT_USER_BROWSER_DIALOG@@MEAAHAEBVACTIVATION_EVENT@@@Z" ; netui2.dll
"?OnDomainChange@NT_USER_BROWSER_DIALOG@@IEAAJPEAVBROWSER_DOMAIN@@PEBVADMIN_AUTHORITY@@@Z" ; netui2.dll
"?OnDomainLBChange@BASE_SET_FOCUS_DLG@@AEAAXXZ" ; netui2.dll
"?OnDoubleClick@HIER_LISTBOX@@QEAAXPEAVHIER_LBI@@@Z" ; netui2.dll
"?OnDragRelease@H_SPLITTER_BAR@@MEAAXAEBVXYPOINT@@@Z" ; netui2.dll
"?OnDropDown@CLIENT_WINDOW@@MEAAHAEBVCONTROL_EVENT@@@Z" ; netui2.dll
"?OnEnter@CLIENT_WINDOW@@MEAAHAEBVCONTROL_EVENT@@@Z" ; netui2.dll
"?OnEnter@SPIN_SLE_NUM@@MEAAHAEBVCONTROL_EVENT@@@Z" ; netui2.dll
"?OnEnter@SPIN_SLE_NUM_VALID@@MEAAHAEBVCONTROL_EVENT@@@Z" ; netui2.dll
"?OnExpand@EXPANDABLE_DIALOG@@MEAAXXZ" ; netui2.dll
"?OnFocus@CLIENT_WINDOW@@MEAAHAEBVFOCUS_EVENT@@@Z" ; netui2.dll
"?OnFocus@DISPATCHER@@MEAAHAEBVFOCUS_EVENT@@@Z" ; netui2.dll
"?OnFocus@FOCUS_CHECKBOX@@MEAAHAEBVFOCUS_EVENT@@@Z" ; netui2.dll
"?OnFocus@LOGON_HOURS_CONTROL@@MEAAHAEBVFOCUS_EVENT@@@Z" ; netui2.dll
"?OnFocus@SPIN_ITEM@@MEAAHAEBVFOCUS_EVENT@@@Z" ; netui2.dll
"?OnFocus@SPIN_SLE_NUM@@MEAAHAEBVFOCUS_EVENT@@@Z" ; netui2.dll
"?OnFocus@SPIN_SLE_STR@@MEAAHAEBVFOCUS_EVENT@@@Z" ; netui2.dll
"?OnFocus@STATIC_SPIN_ITEM@@MEAAHAEBVFOCUS_EVENT@@@Z" ; netui2.dll
"?OnGroupAction@CONTROL_GROUP@@MEAAJPEAV1@@Z" ; netui2.dll
"?OnGroupAction@MAGIC_GROUP@@MEAAJPEAVCONTROL_GROUP@@@Z" ; netui2.dll
"?OnHelp@DIALOG_WINDOW@@AEAAHXZ" ; netui2.dll
"?OnHelp@GET_FNAME_BASE_DLG@@QEAAXPEAUHWND__@@@Z" ; netui2.dll
"?OnKeyDown@CLIENT_WINDOW@@MEAAHAEBVVKEY_EVENT@@@Z" ; netui2.dll
"?OnKeyDown@DISPATCHER@@MEAAHAEBVVKEY_EVENT@@@Z" ; netui2.dll
"?OnKeyDown@LOGON_HOURS_CONTROL@@MEAAHAEBVVKEY_EVENT@@@Z" ; netui2.dll
"?OnKeyDown@SPIN_SLE_NUM@@MEAAHAEBVVKEY_EVENT@@@Z" ; netui2.dll
"?OnKeyDown@SPIN_SLE_STR@@MEAAHAEBVVKEY_EVENT@@@Z" ; netui2.dll
"?OnKeyUp@CLIENT_WINDOW@@MEAAHAEBVVKEY_EVENT@@@Z" ; netui2.dll
"?OnKeyUp@DISPATCHER@@MEAAHAEBVVKEY_EVENT@@@Z" ; netui2.dll
"?OnKeyUp@LOGON_HOURS_CONTROL@@MEAAHAEBVVKEY_EVENT@@@Z" ; netui2.dll
"?OnLBIMessages@OWNER_WINDOW@@KAHI_K_J@Z" ; netui2.dll
"?OnLMouseButtonDblClick@ARROW_BUTTON@@MEAAHAEBVMOUSE_EVENT@@@Z" ; netui2.dll
"?OnLMouseButtonDblClick@CLIENT_WINDOW@@MEAAHAEBVMOUSE_EVENT@@@Z" ; netui2.dll
"?OnLMouseButtonDblClick@DISPATCHER@@MEAAHAEBVMOUSE_EVENT@@@Z" ; netui2.dll
"?OnLMouseButtonDown@ARROW_BUTTON@@MEAAHAEBVMOUSE_EVENT@@@Z" ; netui2.dll
"?OnLMouseButtonDown@CLIENT_WINDOW@@MEAAHAEBVMOUSE_EVENT@@@Z" ; netui2.dll
"?OnLMouseButtonDown@DISPATCHER@@MEAAHAEBVMOUSE_EVENT@@@Z" ; netui2.dll
"?OnLMouseButtonDown@H_SPLITTER_BAR@@MEAAHAEBVMOUSE_EVENT@@@Z" ; netui2.dll
"?OnLMouseButtonDown@LOGON_HOURS_CONTROL@@MEAAHAEBVMOUSE_EVENT@@@Z" ; netui2.dll
"?OnLMouseButtonUp@ARROW_BUTTON@@MEAAHAEBVMOUSE_EVENT@@@Z" ; netui2.dll
"?OnLMouseButtonUp@CLIENT_WINDOW@@MEAAHAEBVMOUSE_EVENT@@@Z" ; netui2.dll
"?OnLMouseButtonUp@DISPATCHER@@MEAAHAEBVMOUSE_EVENT@@@Z" ; netui2.dll
"?OnLMouseButtonUp@H_SPLITTER_BAR@@MEAAHAEBVMOUSE_EVENT@@@Z" ; netui2.dll
"?OnLMouseButtonUp@LOGON_HOURS_CONTROL@@MEAAHAEBVMOUSE_EVENT@@@Z" ; netui2.dll
"?OnMembers@NT_LOCALGROUP_BROWSER_DIALOG@@IEAAJXZ" ; netui2.dll
"?OnMembers@NT_USER_BROWSER_DIALOG@@IEAAJXZ" ; netui2.dll
"?OnMenuCommand@APP_WINDOW@@MEAAHI@Z" ; netui2.dll
"?OnMenuInit@APP_WINDOW@@MEAAHAEBVMENU_EVENT@@@Z" ; netui2.dll
"?OnMenuSelect@APP_WINDOW@@MEAAHAEBVMENUITEM_EVENT@@@Z" ; netui2.dll
"?OnMouseMove@CLIENT_WINDOW@@MEAAHAEBVMOUSE_EVENT@@@Z" ; netui2.dll
"?OnMouseMove@DISPATCHER@@MEAAHAEBVMOUSE_EVENT@@@Z" ; netui2.dll
"?OnMouseMove@H_SPLITTER_BAR@@MEAAHAEBVMOUSE_EVENT@@@Z" ; netui2.dll
"?OnMouseMove@LOGON_HOURS_CONTROL@@MEAAHAEBVMOUSE_EVENT@@@Z" ; netui2.dll
"?OnMove@CLIENT_WINDOW@@MEAAHAEBVMOVE_EVENT@@@Z" ; netui2.dll
"?OnMove@DISPATCHER@@MEAAHAEBVMOVE_EVENT@@@Z" ; netui2.dll
"?OnNewItem@USER_BROWSER_LB@@MEAAPEAVLBI@@I@Z" ; netui2.dll
"?OnOK@BASE_SET_FOCUS_DLG@@MEAAHXZ" ; netui2.dll
"?OnOK@DIALOG_WINDOW@@MEAAHXZ" ; netui2.dll
"?OnOK@MSGPOPUP_DIALOG@@MEAAHXZ" ; netui2.dll
"?OnOK@MSG_DIALOG_BASE@@EEAAHXZ" ; netui2.dll
"?OnOK@NT_FIND_ACCOUNT_DIALOG@@MEAAHXZ" ; netui2.dll
"?OnOK@NT_USER_BROWSER_DIALOG@@MEAAHXZ" ; netui2.dll
"?OnOK@PROMPT_FOR_ANY_DC_DLG@@MEAAHXZ" ; netui2.dll
"?OnOther@CLIENT_WINDOW@@MEAAHAEBVEVENT@@@Z" ; netui2.dll
"?OnPaintReq@APP_WINDOW@@MEAAHXZ" ; netui2.dll
"?OnPaintReq@CLIENT_WINDOW@@MEAAHXZ" ; netui2.dll
"?OnPaintReq@DISPATCHER@@MEAAHXZ" ; netui2.dll
"?OnPaintReq@FOCUS_CHECKBOX@@MEAAHXZ" ; netui2.dll
"?OnPaintReq@H_SPLITTER_BAR@@MEAAHXZ" ; netui2.dll
"?OnPaintReq@LOGON_HOURS_CONTROL@@MEAAHXZ" ; netui2.dll
"?OnPaintReq@METER@@MEAAHXZ" ; netui2.dll
"?OnQDlgCode@DISPATCHER@@MEAAKXZ" ; netui2.dll
"?OnQDlgCode@LOGON_HOURS_CONTROL@@MEAAKXZ" ; netui2.dll
"?OnQHitTest@DISPATCHER@@MEAAKAEBVXYPOINT@@@Z" ; netui2.dll
"?OnQHitTest@H_SPLITTER_BAR@@MEAAKAEBVXYPOINT@@@Z" ; netui2.dll
"?OnQHitTest@LOGON_HOURS_CONTROL@@MEAAKAEBVXYPOINT@@@Z" ; netui2.dll
"?OnQMinMax@APP_WINDOW@@MEAAHAEAVQMINMAX_EVENT@@@Z" ; netui2.dll
"?OnQMouseActivate@DISPATCHER@@MEAAKAEBVQMOUSEACT_EVENT@@@Z" ; netui2.dll
"?OnQMouseActivate@LOGON_HOURS_CONTROL@@MEAAKAEBVQMOUSEACT_EVENT@@@Z" ; netui2.dll
"?OnQMouseCursor@DISPATCHER@@MEAAHAEBVQMOUSEACT_EVENT@@@Z" ; netui2.dll
"?OnQMouseCursor@H_SPLITTER_BAR@@MEAAHAEBVQMOUSEACT_EVENT@@@Z" ; netui2.dll
"?OnQMouseCursor@LOGON_HOURS_CONTROL@@MEAAHAEBVQMOUSEACT_EVENT@@@Z" ; netui2.dll
"?OnRemove@SLE_STRLB_GROUP@@IEAAJXZ" ; netui2.dll
"?OnResize@CLIENT_WINDOW@@MEAAHAEBVSIZE_EVENT@@@Z" ; netui2.dll
"?OnResize@DISPATCHER@@MEAAHAEBVSIZE_EVENT@@@Z" ; netui2.dll
"?OnResize@H_SPLITTER_BAR@@MEAAHAEBVSIZE_EVENT@@@Z" ; netui2.dll
"?OnScrollBar@DIALOG_WINDOW@@MEAAHAEBVSCROLL_EVENT@@@Z" ; netui2.dll
"?OnScrollBarThumb@DIALOG_WINDOW@@MEAAHAEBVSCROLL_THUMB_EVENT@@@Z" ; netui2.dll
"?OnSearch@NT_USER_BROWSER_DIALOG@@IEAAJXZ" ; netui2.dll
"?OnSelect@CLIENT_WINDOW@@MEAAHAEBVCONTROL_EVENT@@@Z" ; netui2.dll
"?OnShowUsers@NT_USER_BROWSER_DIALOG@@IEAAJXZ" ; netui2.dll
"?OnShutdown@APP_WINDOW@@MEAAXXZ" ; netui2.dll
"?OnSysColorChange@DIALOG_WINDOW@@MEAAXXZ" ; netui2.dll
"?OnSystemChange@APP_WINDOW@@MEAAHAEBVSYSCHANGE_EVENT@@@Z" ; netui2.dll
"?OnTimer@ARROW_BUTTON@@MEAAHAEBVTIMER_EVENT@@@Z" ; netui2.dll
"?OnTimer@CANCEL_TASK_DIALOG@@MEAAHAEBVTIMER_EVENT@@@Z" ; netui2.dll
"?OnTimer@CLIENT_WINDOW@@MEAAHAEBVTIMER_EVENT@@@Z" ; netui2.dll
"?OnTimer@DIALOG_WINDOW@@MEAAHAEBVTIMER_EVENT@@@Z" ; netui2.dll
"?OnTimer@DISPATCHER@@MEAAHAEBVTIMER_EVENT@@@Z" ; netui2.dll
"?OnTimer@TIMER_WINDOW@@MEAAHAEBVTIMER_EVENT@@@Z" ; netui2.dll
"?OnTimerNotification@TIMER_CALLOUT@@MEAAXI@Z" ; netui2.dll
"?OnUserAction@CONTROL_GROUP@@MEAAJPEAVCONTROL_WINDOW@@AEBVCONTROL_EVENT@@@Z" ; netui2.dll
"?OnUserAction@CONTROL_WINDOW@@MEAAJAEBVCONTROL_EVENT@@@Z" ; netui2.dll
"?OnUserAction@LM_OLLB@@MEAAJAEBVCONTROL_EVENT@@@Z" ; netui2.dll
"?OnUserAction@MAGIC_GROUP@@MEAAJPEAVCONTROL_WINDOW@@AEBVCONTROL_EVENT@@@Z" ; netui2.dll
"?OnUserAction@ORDER_GROUP@@MEAAJPEAVCONTROL_WINDOW@@AEBVCONTROL_EVENT@@@Z" ; netui2.dll
"?OnUserAction@RADIO_GROUP@@MEAAJPEAVCONTROL_WINDOW@@AEBVCONTROL_EVENT@@@Z" ; netui2.dll
"?OnUserAction@SET_CONTROL@@MEAAJPEAVCONTROL_WINDOW@@AEBVCONTROL_EVENT@@@Z" ; netui2.dll
"?OnUserAction@SLE_STRLB_GROUP@@MEAAJPEAVCONTROL_WINDOW@@AEBVCONTROL_EVENT@@@Z" ; netui2.dll
"?OnUserAction@SPIN_GROUP@@MEAAJPEAVCONTROL_WINDOW@@AEBVCONTROL_EVENT@@@Z" ; netui2.dll
"?OnUserAction@STATELBGRP@@MEAAJPEAVCONTROL_WINDOW@@AEBVCONTROL_EVENT@@@Z" ; netui2.dll
"?OnUserMessage@BASE_SET_FOCUS_DLG@@MEAAHAEBVEVENT@@@Z" ; netui2.dll
"?OnUserMessage@DISPATCHER@@MEAAHAEBVEVENT@@@Z" ; netui2.dll
"?OnUserMessage@NT_USER_BROWSER_DIALOG@@MEAAHAEBVEVENT@@@Z" ; netui2.dll
"?OnUserMessage@OWNER_WINDOW@@MEAAHAEBVEVENT@@@Z" ; netui2.dll
"?OnValidationError@DIALOG_WINDOW@@MEAAXIJ@Z" ; netui2.dll
"?OtherListbox@SET_CONTROL@@AEBAPEAVLISTBOX@@PEAV2@@Z" ; netui2.dll
"?Paint@BROWSER_DOMAIN_LBI@@UEBAXPEAVLISTBOX@@PEAUHDC__@@PEBUtagRECT@@PEAUGUILTT_INFO@@@Z" ; netui2.dll
"?Paint@BROWSER_DOMAIN_LBI_PB@@UEBAXPEAVLISTBOX@@PEAUHDC__@@PEBUtagRECT@@PEAUGUILTT_INFO@@@Z" ; netui2.dll
"?Paint@COUNTED_STR_DTE@@UEBAXPEAUHDC__@@PEBUtagRECT@@@Z" ; netui2.dll
"?Paint@DISPLAY_MAP@@QEBAHPEAUHDC__@@HH@Z" ; netui2.dll
"?Paint@DISPLAY_TABLE@@QEBAXPEAVLISTBOX@@PEAUHDC__@@PEBUtagRECT@@@Z" ; netui2.dll
"?Paint@DISPLAY_TABLE@@QEBAXPEAVLISTBOX@@PEAUHDC__@@PEBUtagRECT@@PEAUGUILTT_INFO@@@Z" ; netui2.dll
"?Paint@DM_DTE@@UEBAXPEAUHDC__@@PEBUtagRECT@@@Z" ; netui2.dll
"?Paint@LBI@@UEBAXPEAVLISTBOX@@PEAUHDC__@@PEBUtagRECT@@PEAUGUILTT_INFO@@@Z" ; netui2.dll
"?Paint@METALLIC_STR_DTE@@UEBAXPEAUHDC__@@PEBUtagRECT@@@Z" ; netui2.dll
"?Paint@MULTILINE_STR_DTE@@UEBAXPEAUHDC__@@PEBUtagRECT@@@Z" ; netui2.dll
"?Paint@OLLB_ENTRY@@UEBAXPEAVLISTBOX@@PEAUHDC__@@PEBUtagRECT@@PEAUGUILTT_INFO@@@Z" ; netui2.dll
"?Paint@OWNER_DRAW_DMID_DTE@@UEBAXPEAUHDC__@@PEBUtagRECT@@@Z" ; netui2.dll
"?Paint@OWNER_DRAW_MULTILINE_STR_DTE@@UEBAXPEAUHDC__@@PEBUtagRECT@@@Z" ; netui2.dll
"?Paint@OWNER_DRAW_STR_DTE@@UEBAXPEAUHDC__@@PEBUtagRECT@@@Z" ; netui2.dll
"?Paint@STLBITEM@@MEBAXPEAVLISTBOX@@PEAUHDC__@@PEBUtagRECT@@PEAUGUILTT_INFO@@@Z" ; netui2.dll
"?Paint@STR_DTE@@UEBAXPEAUHDC__@@PEBUtagRECT@@@Z" ; netui2.dll
"?Paint@STR_DTE_ELLIPSIS@@UEBAXPEAUHDC__@@PEBUtagRECT@@@Z" ; netui2.dll
"?Paint@USER_BROWSER_LBI@@UEBAXPEAVLISTBOX@@PEAUHDC__@@PEBUtagRECT@@PEAUGUILTT_INFO@@@Z" ; netui2.dll
"?ParseUserNameList@ACCOUNT_NAMES_MLE@@IEAAJPEAVSTRLIST@@PEBG@Z" ; netui2.dll
"?PlaceButtons@MSGPOPUP_DIALOG@@AEAAXXZ" ; netui2.dll
"?PlaceControl@BLT_DATE_SPIN_GROUP@@AEAAJHPEAVOWNER_WINDOW@@AEBVINTL_PROFILE@@AEBVXYPOINT@@AEBVXYDIMENSION@@2323@Z" ; netui2.dll
"?PostMain@DOMAIN_FILL_THREAD@@MEAAJXZ" ; netui2.dll
"?PostMain@FOCUSDLG_DATA_THREAD@@MEAAJXZ" ; netui2.dll
"?PostMain@WIN32_THREAD@@MEAAJXZ" ; netui2.dll
"?PreMain@WIN32_THREAD@@MEAAJXZ" ; netui2.dll
"?Process@BASE_SET_FOCUS_DLG@@QEAAJPEAH@Z" ; netui2.dll
"?Process@BASE_SET_FOCUS_DLG@@QEAAJPEAI@Z" ; netui2.dll
"?Process@DIALOG_WINDOW@@QEAAJPEAH@Z" ; netui2.dll
"?Process@DIALOG_WINDOW@@QEAAJPEAI@Z" ; netui2.dll
"?Process@EXPANDABLE_DIALOG@@QEAAJPEAH@Z" ; netui2.dll
"?Process@EXPANDABLE_DIALOG@@QEAAJPEAI@Z" ; netui2.dll
"?Process@GET_OPEN_FILENAME_DLG@@UEAAJPEAH@Z" ; netui2.dll
"?Process@GET_SAVE_FILENAME_DLG@@UEAAJPEAH@Z" ; netui2.dll
"?Process@WIN32_FONT_PICKER@@SAJPEAVOWNER_WINDOW@@PEAHPEAVFONT@@PEAUtagLOGFONTW@@PEAUtagCHOOSEFONTW@@@Z" ; netui2.dll
"?ProcessNetPath@BASE_SET_FOCUS_DLG@@AEAAJPEAVNLS_STR@@PEAJ@Z" ; netui2.dll
"?Pulse@WIN32_EVENT@@QEAAJXZ" ; netui2.dll
"?QualifyDisplayName@USER_BROWSER_LBI@@QEAAJXZ" ; netui2.dll
"?Query@CURSOR@@SAPEAUHICON__@@XZ" ; netui2.dll
"?QueryAccCharPos@SPIN_ITEM@@UEAAJG@Z" ; netui2.dll
"?QueryAccCharPos@SPIN_SLE_STR@@UEAAJG@Z" ; netui2.dll
"?QueryAccKey@SPIN_ITEM@@QEAAJPEAVNLS_STR@@@Z" ; netui2.dll
"?QueryAccessName@OPEN_LBI_BASE@@QEBAPEBGXZ" ; netui2.dll
"?QueryAccountDomain@BROWSER_DOMAIN@@QEBAPEAVSAM_DOMAIN@@XZ" ; netui2.dll
"?QueryAccountName@BROWSER_SUBJECT@@QEBAPEBGXZ" ; netui2.dll
"?QueryAccountName@USER_BROWSER_LBI@@QEBAPEBGXZ" ; netui2.dll
"?QueryActiveArea@H_SPLITTER_BAR@@MEAAHXZ" ; netui2.dll
"?QueryAddButton@SLE_STRLB_GROUP@@IEBAPEAVPUSH_BUTTON@@XZ" ; netui2.dll
"?QueryAdminAuthority@BROWSER_DOMAIN@@QEBAPEAVADMIN_AUTHORITY@@XZ" ; netui2.dll
"?QueryAdminAuthority@DOMAIN_FILL_THREAD@@QEBAPEAVADMIN_AUTHORITY@@XZ" ; netui2.dll
"?QueryAnyDC@UI_DOMAIN@@QEBAPEBGXZ" ; netui2.dll
"?QueryAttribute@OWNER_WINDOW@@QEAAHK@Z" ; netui2.dll
"?QueryAuditCheckBox@SET_OF_AUDIT_CATEGORIES@@QEAAPEAVAUDIT_CHECKBOXES@@H@Z" ; netui2.dll
"?QueryAveCharWidth@DEVICE_CONTEXT@@QEBAHXZ" ; netui2.dll
"?QueryBigDecValue@CHANGEABLE_SPIN_ITEM@@UEBAKXZ" ; netui2.dll
"?QueryBigDecValue@SPIN_SLE_VALID_SECOND@@UEBAKXZ" ; netui2.dll
"?QueryBigIncValue@CHANGEABLE_SPIN_ITEM@@UEBAKXZ" ; netui2.dll
"?QueryBigIncValue@SPIN_SLE_VALID_SECOND@@UEBAKXZ" ; netui2.dll
"?QueryBitfield@STRING_BITSET_PAIR@@QEAAPEAVBITFIELD@@XZ" ; netui2.dll
"?QueryBitmapHandle@DISPLAY_MAP@@QEBAPEAUHBITMAP__@@XZ" ; netui2.dll
"?QueryBits@MASK_MAP@@QEAAJIPEAVBITFIELD@@PEAVNLS_STR@@PEAH@Z" ; netui2.dll
"?QueryBottom@XYRECT@@QEBAHXZ" ; netui2.dll
"?QueryBrowserDomain@BROWSER_DOMAIN_LBI@@QEBAPEAVBROWSER_DOMAIN@@XZ" ; netui2.dll
"?QueryBrowserDomain@BROWSER_DOMAIN_LBI_PB@@QEBAPEAVBROWSER_DOMAIN@@XZ" ; netui2.dll
"?QueryBuffer@NT_MEMORY@@IEBAPEAXXZ" ; netui2.dll
"?QueryBufferPtr@ENUM_OBJ_BASE@@IEBAPEBEXZ" ; netui2.dll
"?QueryBufferPtr@NT_GROUP_ENUM_OBJ@@QEBAPEBU_DOMAIN_DISPLAY_GROUP@@XZ" ; netui2.dll
"?QueryBufferPtr@SERVER1_ENUM_OBJ@@QEBAPEBU_SERVER_INFO_101@@XZ" ; netui2.dll
"?QueryBuiltinDomain@BROWSER_DOMAIN@@QEBAPEAVSAM_DOMAIN@@XZ" ; netui2.dll
"?QueryButton@MSGPOPUP_DIALOG@@AEAAPEAVPUSH_BUTTON@@I@Z" ; netui2.dll
"?QueryCaretIndex@LIST_CONTROL@@QEBAHXZ" ; netui2.dll
"?QueryChar@CHAR_EVENT@@QEBAGXZ" ; netui2.dll
"?QueryCheck@STATE2_BUTTON_CONTROL@@QEBAHXZ" ; netui2.dll
"?QueryCid@CONTROL_ENTRY@@QEBAIXZ" ; netui2.dll
"?QueryCid@CONTROL_EVENT@@QEBAIXZ" ; netui2.dll
"?QueryCid@CONTROL_WINDOW@@QEBAIXZ" ; netui2.dll
"?QueryClientRect@WINDOW@@QEBAXPEAUtagRECT@@@Z" ; netui2.dll
"?QueryClientRect@WINDOW@@QEBAXPEAVXYRECT@@@Z" ; netui2.dll
"?QueryCode@CONTROL_EVENT@@QEBAIXZ" ; netui2.dll
"?QueryColData@STATELB@@QEAAPEBIXZ" ; netui2.dll
"?QueryColWidthArray@BROWSER_DOMAIN_CB@@QEBAPEBIXZ" ; netui2.dll
"?QueryColWidthArray@USER_BROWSER_LB@@QEBAPEBIXZ" ; netui2.dll
"?QueryComboboxClassName@CONTROL_WINDOW@@KAPEBGXZ" ; netui2.dll
"?QueryCommand@SCROLL_EVENT@@QEBA?AW4SCROLL_COMMAND@1@XZ" ; netui2.dll
"?QueryComment@BROWSER_SUBJECT@@QEBAPEBGXZ" ; netui2.dll
"?QueryComment@NT_GROUP_ENUM_OBJ@@QEBAJPEAVNLS_STR@@@Z" ; netui2.dll
"?QueryComment@SERVER1_ENUM_OBJ@@QEBAPEBGXZ" ; netui2.dll
"?QueryComment@USER_BROWSER_LBI@@QEBAPEBGXZ" ; netui2.dll
"?QueryCompareMethod@USER_BROWSER_LBI_CACHE@@MEBAP6AHPEBX0@ZXZ" ; netui2.dll
"?QueryCompareMethod@USER_LBI_CACHE@@MEBAP6AHPEBX0@ZXZ" ; netui2.dll
"?QueryContVal@CONTROLVAL_CID_PAIR@@QEBAPEAVCONTROL_VALUE@@XZ" ; netui2.dll
"?QueryContent@SPIN_SLE_NUM@@QEBAXPEAK@Z" ; netui2.dll
"?QueryContent@SPIN_SLE_NUM@@QEBAXPEAVNLS_STR@@@Z" ; netui2.dll
"?QueryContent@SPIN_SLE_STR@@QEBAJPEAVNLS_STR@@@Z" ; netui2.dll
"?QueryControlWin@CUSTOM_CONTROL@@QEBAPEAVCONTROL_WINDOW@@XZ" ; netui2.dll
"?QueryCount@ARRAY_CONTROLVAL_CID_PAIR@@QEBAIXZ" ; netui2.dll
"?QueryCount@BITFIELD@@QEBAIXZ" ; netui2.dll
"?QueryCount@CONTROL_TABLE@@QEBAIXZ" ; netui2.dll
"?QueryCount@COUNTED_STR_DTE@@QEBAHXZ" ; netui2.dll
"?QueryCount@HEAP_BASE@@QEBAHXZ" ; netui2.dll
"?QueryCount@LIST_CONTROL@@QEBAHXZ" ; netui2.dll
"?QueryCount@MASK_MAP@@QEAAIXZ" ; netui2.dll
"?QueryCount@NT_MEMORY@@QEBAKXZ" ; netui2.dll
"?QueryCount@RADIO_GROUP@@QEAAHXZ" ; netui2.dll
"?QueryCount@SET_OF_AUDIT_CATEGORIES@@QEAAHXZ" ; netui2.dll
"?QueryCount@USER_BROWSER_LBI_CACHE@@QEBAKXZ" ; netui2.dll
"?QueryCount@USER_LBI_CACHE@@QEBAHXZ" ; netui2.dll
"?QueryCountPreferences@USRLB_NT_GROUP_ENUM@@MEAAJPEAK0IKKK@Z" ; netui2.dll
"?QueryCtrlPtr@CONTROL_ENTRY@@QEBAPEAVCONTROL_WINDOW@@XZ" ; netui2.dll
"?QueryCurrentCache@USER_BROWSER_LB@@QEBAPEAVUSER_BROWSER_LBI_CACHE@@XZ" ; netui2.dll
"?QueryCurrentDomainFocus@NT_USER_BROWSER_DIALOG@@QEBAPEAVBROWSER_DOMAIN@@XZ" ; netui2.dll
"?QueryCurrentField@SPIN_GROUP@@IEBAPEAVSPIN_ITEM@@XZ" ; netui2.dll
"?QueryCurrentItem@LIST_CONTROL@@QEBAHXZ" ; netui2.dll
"?QueryDCofPrimaryDomain@NT_USER_BROWSER_DIALOG@@QEAAPEBGXZ" ; netui2.dll
"?QueryDay@BLT_DATE_SPIN_GROUP@@QEBAHXZ" ; netui2.dll
"?QueryDay@WIN_TIME@@QEBAHXZ" ; netui2.dll
"?QueryDayPos@INTL_PROFILE@@QEBAHXZ" ; netui2.dll
"?QueryDelta@UI_EXT@@QEBAKXZ" ; netui2.dll
"?QueryDeltaDelta@UI_EXT_MGR@@QEBAKXZ" ; netui2.dll
"?QueryDescendants@HIER_LBI@@AEAAIXZ" ; netui2.dll
"?QueryDesiredHeight@H_SPLITTER_BAR@@QEAAHXZ" ; netui2.dll
"?QueryDevice@DEVICE_COMBO@@QEBAJPEAVNLS_STR@@@Z" ; netui2.dll
"?QueryDisable@GRAPHICAL_BUTTON_WITH_DISABLE@@QEBAPEAUHBITMAP__@@XZ" ; netui2.dll
"?QueryDisplayMap@BROWSER_DOMAIN_CB@@QEAAPEAVDISPLAY_MAP@@PEBVBROWSER_DOMAIN_LBI@@@Z" ; netui2.dll
"?QueryDisplayMap@DM_DTE@@QEBAPEAVDISPLAY_MAP@@XZ" ; netui2.dll
"?QueryDisplayMap@SUBJECT_BITMAP_BLOCK@@QEAAPEAVDISPLAY_MAP@@HHH@Z" ; netui2.dll
"?QueryDisplayMap@USER_BROWSER_LB@@QEAAPEAVDISPLAY_MAP@@PEBVUSER_BROWSER_LBI@@@Z" ; netui2.dll
"?QueryDisplayName@BROWSER_DOMAIN@@QEBAPEBGXZ" ; netui2.dll
"?QueryDisplayName@BROWSER_DOMAIN_LBI@@QEBAPEBGXZ" ; netui2.dll
"?QueryDisplayName@USER_BROWSER_LBI@@QEBAPEBGXZ" ; netui2.dll
"?QueryDisplayWidth@DM_DTE@@QEBAIXZ" ; netui2.dll
"?QueryDllName@UI_EXT@@QEBAPEBGXZ" ; netui2.dll
"?QueryDmDte@OUTLINE_LISTBOX@@QEBAPEAVDM_DTE@@W4OUTLINE_LB_LEVEL@@H@Z" ; netui2.dll
"?QueryDmDte@SUBJECT_BITMAP_BLOCK@@QEAAPEAVDMID_DTE@@HHH@Z" ; netui2.dll
"?QueryDomain@OLLB_ENTRY@@QEBAPEBGXZ" ; netui2.dll
"?QueryDomainCount@BROWSE_DOMAIN_ENUM@@QEAAIXZ" ; netui2.dll
"?QueryDomainIndex@LSA_TRANSLATED_NAME_MEM@@QEBAJK@Z" ; netui2.dll
"?QueryDomainIndex@LSA_TRANSLATED_SID_MEM@@QEBAJK@Z" ; netui2.dll
"?QueryDomainName@BROWSER_DOMAIN@@QEBAPEBGXZ" ; netui2.dll
"?QueryDomainName@BROWSER_SUBJECT@@QEBAPEBGXZ" ; netui2.dll
"?QueryDomainName@BROWSE_DOMAIN_INFO@@QEBAPEBGXZ" ; netui2.dll
"?QueryDomainName@USER_BROWSER_LBI@@QEBAPEBGXZ" ; netui2.dll
"?QueryDomainSid@BROWSER_DOMAIN@@QEBAPEBVOS_SID@@XZ" ; netui2.dll
"?QueryDomainSid@BROWSER_SUBJECT@@QEBAPEBVOS_SID@@XZ" ; netui2.dll
"?QueryEditClassName@CONTROL_WINDOW@@KAPEBGXZ" ; netui2.dll
"?QueryEntryPtr@USER_BROWSER_LBI_CACHE@@QEAAPEAU_ULC_ENTRY_BASE@@H@Z" ; netui2.dll
"?QueryError@ASSOCHWNDPDLG@@QEBAJXZ" ; netui2.dll
"?QueryError@ASSOCHWNDPWND@@QEBAJXZ" ; netui2.dll
"?QueryError@BASE@@QEBAJXZ" ; netui2.dll
"?QueryError@CONTROL_WINDOW@@QEBAJXZ" ; netui2.dll
"?QueryError@FORWARDING_BASE@@QEBAJXZ" ; netui2.dll
"?QueryError@SLT_ELLIPSIS@@QEBAJXZ" ; netui2.dll
"?QueryErrorCode@GET_FNAME_BASE_DLG@@IEBAJXZ" ; netui2.dll
"?QueryErrorLBI@USER_BROWSER_LB@@QEBAPEAVUSER_BROWSER_LBI@@XZ" ; netui2.dll
"?QueryErrorLoadingAuthority@BROWSER_DOMAIN@@QEBAJXZ" ; netui2.dll
"?QueryErrorLoadingAuthority@DOMAIN_FILL_THREAD@@QEBAJXZ" ; netui2.dll
"?QueryEventEffects@ARROW_BUTTON@@MEAAIAEBVCONTROL_EVENT@@@Z" ; netui2.dll
"?QueryEventEffects@BUTTON_CONTROL@@MEAAIAEBVCONTROL_EVENT@@@Z" ; netui2.dll
"?QueryEventEffects@COMBOBOX@@MEAAIAEBVCONTROL_EVENT@@@Z" ; netui2.dll
"?QueryEventEffects@CONTROL_VALUE@@UEAAIAEBVCONTROL_EVENT@@@Z" ; netui2.dll
"?QueryEventEffects@EDIT_CONTROL@@MEAAIAEBVCONTROL_EVENT@@@Z" ; netui2.dll
"?QueryEventEffects@LIST_CONTROL@@MEAAIAEBVCONTROL_EVENT@@@Z" ; netui2.dll
"?QueryExpanded@HIER_LBI@@QEBAHXZ" ; netui2.dll
"?QueryExtensions@UI_EXT_MGR@@QEAAPEAVSLIST_OF_UI_EXT@@XZ" ; netui2.dll
"?QueryFailedBaseCID@SET_OF_AUDIT_CATEGORIES@@QEAAIXZ" ; netui2.dll
"?QueryFileID@OPEN_LBI_BASE@@QEBAKXZ" ; netui2.dll
"?QueryFileTitle@GET_FNAME_BASE_DLG@@QEBAJPEAVNLS_STR@@@Z" ; netui2.dll
"?QueryFilename@GET_FNAME_BASE_DLG@@QEBAJPEAVNLS_STR@@@Z" ; netui2.dll
"?QueryFirstLeaf@HEAP_BASE@@IEBAHXZ" ; netui2.dll
"?QueryFlags@ACCOUNT_NAMES_MLE@@QEBAKXZ" ; netui2.dll
"?QueryFlags@NT_USER_BROWSER_DIALOG@@QEBAKXZ" ; netui2.dll
"?QueryFont@CONTROL_WINDOW@@QEBAPEAUHFONT__@@XZ" ; netui2.dll
"?QueryFontHeight@DEVICE_CONTEXT@@QEBAHXZ" ; netui2.dll
"?QueryFullName@BROWSER_SUBJECT@@QEBAPEBGXZ" ; netui2.dll
"?QueryFullName@USER_BROWSER_LBI@@QEBAPEBGXZ" ; netui2.dll
"?QueryGroup@CONTROL_VALUE@@QEBAPEAVCONTROL_GROUP@@XZ" ; netui2.dll
"?QueryGroup@NT_GROUP_ENUM_OBJ@@QEBAJPEAVNLS_STR@@@Z" ; netui2.dll
"?QueryGroup@SPIN_ITEM@@QEAAPEAVCONTROL_GROUP@@XZ" ; netui2.dll
"?QueryHandle@ACCELTABLE@@QEBAPEAUHACCEL__@@XZ" ; netui2.dll
"?QueryHandle@ATOM_BASE@@QEBAGXZ" ; netui2.dll
"?QueryHandle@BIT_MAP@@QEBAPEAUHBITMAP__@@XZ" ; netui2.dll
"?QueryHandle@FONT@@QEBAPEAUHFONT__@@XZ" ; netui2.dll
"?QueryHandle@MENU_BASE@@QEBAPEAUHMENU__@@XZ" ; netui2.dll
"?QueryHandle@SAM_OBJECT@@QEBAPEAXXZ" ; netui2.dll
"?QueryHandle@SOLID_BRUSH@@QEBAPEAUHBRUSH__@@XZ" ; netui2.dll
"?QueryHandle@WIN32_HANDLE@@QEBAPEAXXZ" ; netui2.dll
"?QueryHdc@DEVICE_CONTEXT@@QEBAPEAUHDC__@@XZ" ; netui2.dll
"?QueryHeight@BIT_MAP@@QEBAIXZ" ; netui2.dll
"?QueryHeight@DISPLAY_MAP@@QEBAIXZ" ; netui2.dll
"?QueryHeight@LB_COLUMN_HEADER@@QEAAHXZ" ; netui2.dll
"?QueryHeight@SIZE_EVENT@@QEBAIXZ" ; netui2.dll
"?QueryHeight@XYDIMENSION@@QEBAIXZ" ; netui2.dll
"?QueryHelpContext@BASE_PASSWORD_DIALOG@@MEAAKXZ" ; netui2.dll
"?QueryHelpContext@BASE_SET_FOCUS_DLG@@MEAAKXZ" ; netui2.dll
"?QueryHelpContext@DIALOG_WINDOW@@MEAAKXZ" ; netui2.dll
"?QueryHelpContext@GET_FNAME_BASE_DLG@@QEAAKXZ" ; netui2.dll
"?QueryHelpContext@MSGPOPUP_DIALOG@@MEAAKXZ" ; netui2.dll
"?QueryHelpContext@NT_FIND_ACCOUNT_DIALOG@@MEAAKXZ" ; netui2.dll
"?QueryHelpContext@NT_GLOBALGROUP_BROWSER_DIALOG@@MEAAKXZ" ; netui2.dll
"?QueryHelpContext@NT_LOCALGROUP_BROWSER_DIALOG@@MEAAKXZ" ; netui2.dll
"?QueryHelpContext@NT_USER_BROWSER_DIALOG@@UEAAKXZ" ; netui2.dll
"?QueryHelpContext@OPEN_DIALOG_BASE@@MEAAKXZ" ; netui2.dll
"?QueryHelpContext@PROMPT_FOR_ANY_DC_DLG@@MEAAKXZ" ; netui2.dll
"?QueryHelpContextGlobalMembership@NT_USER_BROWSER_DIALOG@@QEAAKXZ" ; netui2.dll
"?QueryHelpContextLocalMembership@NT_USER_BROWSER_DIALOG@@QEAAKXZ" ; netui2.dll
"?QueryHelpContextSearch@NT_USER_BROWSER_DIALOG@@QEAAKXZ" ; netui2.dll
"?QueryHelpFile@ASSOCHCFILE@@QEBAPEBGXZ" ; netui2.dll
"?QueryHelpFile@BASE_SET_FOCUS_DLG@@MEAAPEBGK@Z" ; netui2.dll
"?QueryHelpFile@DIALOG_WINDOW@@MEAAPEBGK@Z" ; netui2.dll
"?QueryHelpFile@GET_FNAME_BASE_DLG@@QEAAPEAVNLS_STR@@XZ" ; netui2.dll
"?QueryHelpFile@NT_FIND_ACCOUNT_DIALOG@@MEAAPEBGK@Z" ; netui2.dll
"?QueryHelpFile@NT_GROUP_BROWSER_DIALOG@@MEAAPEBGK@Z" ; netui2.dll
"?QueryHelpFile@NT_USER_BROWSER_DIALOG@@UEAAPEBGK@Z" ; netui2.dll
"?QueryHitTest@QMOUSEACT_EVENT@@QEBAIXZ" ; netui2.dll
"?QueryHorizontalExtent@LISTBOX@@QEBAIXZ" ; netui2.dll
"?QueryHour@BLT_TIME_SPIN_GROUP@@QEBAHXZ" ; netui2.dll
"?QueryHour@WIN_TIME@@QEBAHXZ" ; netui2.dll
"?QueryHours@LOGON_HOURS_CONTROL@@QEBAJPEAVLOGON_HOURS_SETTING@@@Z" ; netui2.dll
"?QueryHwnd@CONTROL_EVENT@@QEBAPEAUHWND__@@XZ" ; netui2.dll
"?QueryHwnd@DISPATCHER@@QEBAPEAUHWND__@@XZ" ; netui2.dll
"?QueryHwnd@DISPLAY_CONTEXT@@IEAAPEAUHWND__@@XZ" ; netui2.dll
"?QueryHwnd@DLGLOAD@@QEBAPEAUHWND__@@XZ" ; netui2.dll
"?QueryHwnd@OWNINGWND@@QEBAPEAUHWND__@@XZ" ; netui2.dll
"?QueryHwnd@PWND2HWND@@QEBAPEAUHWND__@@XZ" ; netui2.dll
"?QueryHwnd@WINDOW@@QEBAPEAUHWND__@@XZ" ; netui2.dll
"?QueryID@DISPLAY_MAP@@QEBAIXZ" ; netui2.dll
"?QueryID@STRING_BITSET_PAIR@@QEAAHXZ" ; netui2.dll
"?QueryID@TIMER_BASE@@QEBAIXZ" ; netui2.dll
"?QueryIcon@APP_WINDOW@@QEBAPEAUHICON__@@XZ" ; netui2.dll
"?QueryIcon@MSGPOPUP_DIALOG@@AEAAPEBGW4MSG_SEVERITY@@@Z" ; netui2.dll
"?QueryIndentLevel@HIER_LBI@@QEAAHXZ" ; netui2.dll
"?QueryInputSLE@SLE_STRLB_GROUP@@QEBAPEAVSLE@@XZ" ; netui2.dll
"?QueryInvalidRect@PAINT_DISPLAY_CONTEXT@@QEBAAEBVXYRECT@@XZ" ; netui2.dll
"?QueryItem@BLT_LISTBOX@@QEBAPEAVLBI@@H@Z" ; netui2.dll
"?QueryItem@BLT_LISTBOX@@QEBAPEAVLBI@@XZ" ; netui2.dll
"?QueryItem@CONTROL_TABLE@@QEBAPEAVCONTROL_ENTRY@@I@Z" ; netui2.dll
"?QueryItem@OPEN_LBOX_BASE@@QEBAPEAVOPEN_LBI_BASE@@H@Z" ; netui2.dll
"?QueryItem@OPEN_LBOX_BASE@@QEBAPEAVOPEN_LBI_BASE@@XZ" ; netui2.dll
"?QueryItem@OUTLINE_LISTBOX@@QEBAPEAVOLLB_ENTRY@@H@Z" ; netui2.dll
"?QueryItem@OUTLINE_LISTBOX@@QEBAPEAVOLLB_ENTRY@@XZ" ; netui2.dll
"?QueryItem@STATELB@@QEBAPEAVSTLBITEM@@XZ" ; netui2.dll
"?QueryItem@USER_BROWSER_LB@@QEBAPEAVUSER_BROWSER_LBI@@H@Z" ; netui2.dll
"?QueryItem@USER_BROWSER_LB@@QEBAPEAVUSER_BROWSER_LBI@@XZ" ; netui2.dll
"?QueryItem@USER_LBI_CACHE@@UEAAPEAVLBI@@H@Z" ; netui2.dll
"?QueryItemCount@MENU_BASE@@QEBAHXZ" ; netui2.dll
"?QueryItemHeight@LIST_CONTROL@@QEBAII@Z" ; netui2.dll
"?QueryItemID@MENU_BASE@@QEBAIH@Z" ; netui2.dll
"?QueryItemLength@STRING_LIST_CONTROL@@QEBAHH@Z" ; netui2.dll
"?QueryItemSize@STRING_LIST_CONTROL@@QEBAHH@Z" ; netui2.dll
"?QueryItemState@MENU_BASE@@QEBAIII@Z" ; netui2.dll
"?QueryItemText@MENU_BASE@@QEBAJPEAGIII@Z" ; netui2.dll
"?QueryItemText@MENU_BASE@@QEBAJPEAVNLS_STR@@II@Z" ; netui2.dll
"?QueryItemText@STRING_LIST_CONTROL@@QEBAJPEAGHH@Z" ; netui2.dll
"?QueryItemText@STRING_LIST_CONTROL@@QEBAJPEAVNLS_STR@@@Z" ; netui2.dll
"?QueryItemText@STRING_LIST_CONTROL@@QEBAJPEAVNLS_STR@@H@Z" ; netui2.dll
"?QueryItemTextAux@STRING_LIST_CONTROL@@AEBAJPEAGH@Z" ; netui2.dll
"?QueryLBIndex@HIER_LBI@@AEAAHXZ" ; netui2.dll
"?QueryLParam@EVENT@@QEBA_JXZ" ; netui2.dll
"?QueryLSAPolicy@BROWSER_DOMAIN@@QEBAPEAVLSA_POLICY@@XZ" ; netui2.dll
"?QueryLb@STATELBGRP@@QEAAPEAVSTATELB@@XZ" ; netui2.dll
"?QueryLeadingChar@BROWSER_DOMAIN_LBI@@UEBAGXZ" ; netui2.dll
"?QueryLeadingChar@BROWSER_DOMAIN_LBI_PB@@UEBAGXZ" ; netui2.dll
"?QueryLeadingChar@LBI@@UEBAGXZ" ; netui2.dll
"?QueryLeadingChar@OLLB_ENTRY@@UEBAGXZ" ; netui2.dll
"?QueryLeadingChar@OPEN_LBI_BASE@@MEBAGXZ" ; netui2.dll
"?QueryLeadingChar@STLBITEM@@MEBAGXZ" ; netui2.dll
"?QueryLeadingChar@USER_BROWSER_LBI@@UEBAGXZ" ; netui2.dll
"?QueryLeft@XYRECT@@QEBAHXZ" ; netui2.dll
"?QueryLeftChild@HEAP_BASE@@IEBAHH@Z" ; netui2.dll
"?QueryLeftMargin@DTE@@UEBAIXZ" ; netui2.dll
"?QueryLeftMargin@METALLIC_STR_DTE@@UEBAIXZ" ; netui2.dll
"?QueryLevel@OLLB_ENTRY@@QEBAHXZ" ; netui2.dll
"?QueryLimit@CHANGEABLE_SPIN_ITEM@@QEBAKXZ" ; netui2.dll
"?QueryLimit@CONSOLE_ELLIPSIS@@MEAAHXZ" ; netui2.dll
"?QueryLimit@WIN_ELLIPSIS@@MEAAHXZ" ; netui2.dll
"?QueryListboxClassName@CONTROL_WINDOW@@KAPEBGXZ" ; netui2.dll
"?QueryLoggedOnDomainInfo@@YAJPEAVNLS_STR@@0@Z" ; netui2.dll
"?QueryLsaLookupName@BROWSER_DOMAIN@@QEBAPEBGXZ" ; netui2.dll
"?QueryMain@GRAPHICAL_BUTTON_WITH_DISABLE@@QEBAPEAUHBITMAP__@@XZ" ; netui2.dll
"?QueryMainInvert@GRAPHICAL_BUTTON_WITH_DISABLE@@QEBAPEAUHBITMAP__@@XZ" ; netui2.dll
"?QueryMapArray@STATELB@@QEBAPEBQEAVDISPLAY_MAP@@XZ" ; netui2.dll
"?QueryMapCount@STATELB@@QEBAHXZ" ; netui2.dll
"?QueryMask@AUDIT_CHECKBOXES@@QEAAPEAVBITFIELD@@XZ" ; netui2.dll
"?QueryMaskHandle@DISPLAY_MAP@@QEBAPEAUHBITMAP__@@XZ" ; netui2.dll
"?QueryMasterTimer@BLT_MASTER_TIMER@@SAJPEAPEAV1@@Z" ; netui2.dll
"?QueryMax@CHANGEABLE_SPIN_ITEM@@QEBAKXZ" ; netui2.dll
"?QueryMax@SCROLLBAR@@QEBAIXZ" ; netui2.dll
"?QueryMaxCharWidth@CONSOLE_ELLIPSIS@@MEAAHXZ" ; netui2.dll
"?QueryMaxCharWidth@WIN_ELLIPSIS@@MEAAHXZ" ; netui2.dll
"?QueryMenu@APP_WINDOW@@QEBAPEAUHMENU__@@XZ" ; netui2.dll
"?QueryMenuHandle@UI_MENU_EXT@@QEBAPEAUHMENU__@@XZ" ; netui2.dll
"?QueryMessage@EVENT@@QEBAIXZ" ; netui2.dll
"?QueryMin@BLT_TIME_SPIN_GROUP@@QEBAHXZ" ; netui2.dll
"?QueryMin@CHANGEABLE_SPIN_ITEM@@QEBAKXZ" ; netui2.dll
"?QueryMin@SCROLLBAR@@QEBAIXZ" ; netui2.dll
"?QueryMinute@WIN_TIME@@QEBAHXZ" ; netui2.dll
"?QueryMinuteValue@ELAPSED_TIME_CONTROL@@QEBAJXZ" ; netui2.dll
"?QueryModule@ASSOCHCFILE@@QEBAPEAUHINSTANCE__@@XZ" ; netui2.dll
"?QueryMonth@BLT_DATE_SPIN_GROUP@@QEBAHXZ" ; netui2.dll
"?QueryMonth@WIN_TIME@@QEBAHXZ" ; netui2.dll
"?QueryMonthPos@INTL_PROFILE@@QEBAHXZ" ; netui2.dll
"?QueryName@LSA_PRIMARY_DOM_INFO_MEM@@QEBAJPEAVNLS_STR@@@Z" ; netui2.dll
"?QueryName@LSA_REF_DOMAIN_MEM@@QEBAJKPEAVNLS_STR@@@Z" ; netui2.dll
"?QueryName@LSA_TRANSLATED_NAME_MEM@@QEBAJKPEAVNLS_STR@@@Z" ; netui2.dll
"?QueryName@LSA_TRUST_INFO_MEM@@QEBAJKPEAVNLS_STR@@@Z" ; netui2.dll
"?QueryName@SAM_RID_ENUMERATION_MEM@@QEBAJKPEAVNLS_STR@@@Z" ; netui2.dll
"?QueryName@SERVER1_ENUM_OBJ@@QEBAPEBGXZ" ; netui2.dll
"?QueryName@UI_DOMAIN@@QEBAPEBGXZ" ; netui2.dll
"?QueryOFN@GET_FNAME_BASE_DLG@@IEAAPEAUtagOFNW@@XZ" ; netui2.dll
"?QueryOSSID@SAM_DOMAIN@@QEBAPEBVOS_SID@@XZ" ; netui2.dll
"?QueryOSSID@USER_BROWSER_LBI@@QEBAPEBVOS_SID@@XZ" ; netui2.dll
"?QueryObjectName@CANCEL_TASK_DIALOG@@MEAAJPEAVNLS_STR@@@Z" ; netui2.dll
"?QueryOriginalStr@BASE_ELLIPSIS@@QEBA?AVNLS_STR@@XZ" ; netui2.dll
"?QueryOwnerHwnd@WINDOW@@QEBAPEAUHWND__@@XZ" ; netui2.dll
"?QueryOwnerWindow@SET_OF_AUDIT_CATEGORIES@@QEAAPEAVOWNER_WINDOW@@XZ" ; netui2.dll
"?QueryPDC@UI_DOMAIN@@QEBAPEBGXZ" ; netui2.dll
"?QueryPSID@LSA_ACCT_DOM_INFO_MEM@@QEBAPEAXXZ" ; netui2.dll
"?QueryPSID@LSA_PRIMARY_DOM_INFO_MEM@@QEBAPEAXXZ" ; netui2.dll
"?QueryPSID@LSA_REF_DOMAIN_MEM@@QEBAPEAXK@Z" ; netui2.dll
"?QueryPSID@LSA_TRUST_INFO_MEM@@QEBAPEAXK@Z" ; netui2.dll
"?QueryPSID@OS_SID@@QEBAPEAXXZ" ; netui2.dll
"?QueryPSID@SAM_DOMAIN@@QEBAPEAXXZ" ; netui2.dll
"?QueryPSID@USER_BROWSER_LBI@@QEBAQEAXXZ" ; netui2.dll
"?QueryParent@HEAP_BASE@@IEBAHH@Z" ; netui2.dll
"?QueryPassword@BASE_PASSWORD_DIALOG@@QEAAJPEAVNLS_STR@@@Z" ; netui2.dll
"?QueryPath@OPEN_LBI_BASE@@QEBAPEBGXZ" ; netui2.dll
"?QueryPch@NLS_STR@@QEBAPEBGXZ" ; netui2.dll
"?QueryPch@STR_DTE@@QEBAPEBGXZ" ; netui2.dll
"?QueryPermissions@OPEN_LBI_BASE@@QEBAKXZ" ; netui2.dll
"?QueryPoint@XYPOINT@@QEBA?AUtagPOINT@@XZ" ; netui2.dll
"?QueryPos@CURSOR@@SA?AVXYPOINT@@XZ" ; netui2.dll
"?QueryPos@MOUSE_EVENT@@QEBA?AVXYPOINT@@XZ" ; netui2.dll
"?QueryPos@SCROLLBAR@@QEBAIXZ" ; netui2.dll
"?QueryPos@SPIN_GROUP@@QEAA?AVXYPOINT@@XZ" ; netui2.dll
"?QueryPos@WINDOW@@QEBA?AVXYPOINT@@XZ" ; netui2.dll
"?QueryPriority@WIN32_THREAD@@QEAAHXZ" ; netui2.dll
"?QueryProc@PROC_INSTANCE@@QEBA_KXZ" ; netui2.dll
"?QueryProp@ITER_SL_NLS_STR@@QEAAPEAVNLS_STR@@XZ" ; netui2.dll
"?QueryProp@ITER_SL_USER_BROWSER_LBI@@QEAAPEAVUSER_BROWSER_LBI@@XZ" ; netui2.dll
"?QueryPsz@IDRESOURCE@@QEBAPEBGXZ" ; netui2.dll
"?QueryPtr@BLT_SCRATCH@@QEBAPEAEXZ" ; netui2.dll
"?QueryPtr@LSA_ACCT_DOM_INFO_MEM@@QEBAPEBU_POLICY_ACCOUNT_DOMAIN_INFO@@XZ" ; netui2.dll
"?QueryPtr@LSA_PRIMARY_DOM_INFO_MEM@@QEBAPEBU_POLICY_PRIMARY_DOMAIN_INFO@@XZ" ; netui2.dll
"?QueryPtr@LSA_REF_DOMAIN_MEM@@AEBAPEBU_LSA_TRUST_INFORMATION@@XZ" ; netui2.dll
"?QueryPtr@LSA_TRANSLATED_NAME_MEM@@AEBAPEBU_LSA_TRANSLATED_NAME@@XZ" ; netui2.dll
"?QueryPtr@LSA_TRANSLATED_SID_MEM@@AEBAPEBU_LSA_TRANSLATED_SID@@XZ" ; netui2.dll
"?QueryPtr@LSA_TRUST_INFO_MEM@@QEBAPEBU_LSA_TRUST_INFORMATION@@XZ" ; netui2.dll
"?QueryPtr@SAM_RID_ENUMERATION_MEM@@QEBAPEBU_SAM_RID_ENUMERATION@@XZ" ; netui2.dll
"?QueryPtr@SAM_RID_MEM@@AEBAPEBKXZ" ; netui2.dll
"?QueryPtr@SAM_SID_MEM@@QEBAPEAPEAXXZ" ; netui2.dll
"?QueryQualifiedName@BROWSER_SUBJECT@@QEBAJPEAVNLS_STR@@PEBV2@H@Z" ; netui2.dll
"?QueryRBCID@CONTROLVAL_CID_PAIR@@QEBAIXZ" ; netui2.dll
"?QueryRID@LSA_TRANSLATED_SID_MEM@@QEBAKK@Z" ; netui2.dll
"?QueryRID@NT_GROUP_ENUM_OBJ@@QEBAIXZ" ; netui2.dll
"?QueryRID@SAM_RID_ENUMERATION_MEM@@QEBAKK@Z" ; netui2.dll
"?QueryRID@SAM_RID_MEM@@QEBAKK@Z" ; netui2.dll
"?QueryRange@CHANGEABLE_SPIN_ITEM@@QEBAKXZ" ; netui2.dll
"?QueryRemoveButton@SLE_STRLB_GROUP@@IEBAPEAVPUSH_BUTTON@@XZ" ; netui2.dll
"?QueryRepeat@KEY_EVENT@@QEBAIXZ" ; netui2.dll
"?QueryRight@XYRECT@@QEBAHXZ" ; netui2.dll
"?QueryRightSibling@HEAP_BASE@@IEBAHH@Z" ; netui2.dll
"?QueryRobustHwnd@CLIENT_WINDOW@@UEBAPEAUHWND__@@XZ" ; netui2.dll
"?QueryRobustHwnd@DIALOG_WINDOW@@UEBAPEAUHWND__@@XZ" ; netui2.dll
"?QueryRobustHwnd@DISPATCHER@@UEBAPEAUHWND__@@XZ" ; netui2.dll
"?QuerySLTBaseCID@SET_OF_AUDIT_CATEGORIES@@QEAAIXZ" ; netui2.dll
"?QueryScrollPos@LISTBOX@@QEBAIXZ" ; netui2.dll
"?QuerySec@BLT_TIME_SPIN_GROUP@@QEBAHXZ" ; netui2.dll
"?QuerySecond@WIN_TIME@@QEBAHXZ" ; netui2.dll
"?QuerySecondValue@ELAPSED_TIME_CONTROL@@QEBAJXZ" ; netui2.dll
"?QuerySelCount@LIST_CONTROL@@QEBAHXZ" ; netui2.dll
"?QuerySelItems@LIST_CONTROL@@QEBAJPEAHH@Z" ; netui2.dll
"?QuerySelected@GRAPHICAL_BUTTON_WITH_DISABLE@@QEBAHXZ" ; netui2.dll
"?QuerySelection@MAGIC_GROUP@@QEBAIXZ" ; netui2.dll
"?QuerySelection@RADIO_GROUP@@QEBAIXZ" ; netui2.dll
"?QuerySelectionCache@NT_USER_BROWSER_DIALOG@@QEAAPEAVSLIST_OF_USER_BROWSER_LBI@@XZ" ; netui2.dll
"?QuerySelectionList@NT_USER_BROWSER_DIALOG@@QEAAPEAVSLIST_OF_USER_BROWSER_LBI@@XZ" ; netui2.dll
"?QueryServer@ADMIN_AUTHORITY@@QEBAPEBGXZ" ; netui2.dll
"?QueryServer@OLLB_ENTRY@@QEBAPEBGXZ" ; netui2.dll
"?QueryServer@OPEN_DIALOG_BASE@@QEBAPEBGXZ" ; netui2.dll
"?QueryServerResourceLivesOn@NT_USER_BROWSER_DIALOG@@QEBAPEBGXZ" ; netui2.dll
"?QuerySid@BROWSER_SUBJECT@@QEBAPEBVOS_SID@@XZ" ; netui2.dll
"?QuerySid@OS_SID@@QEBAPEAXXZ" ; netui2.dll
"?QuerySingleLineHeight@BLT_LISTBOX@@QEAAIXZ" ; netui2.dll
"?QuerySize@BLT_SCRATCH@@QEBAIXZ" ; netui2.dll
"?QuerySize@SPIN_GROUP@@QEAA?AVXYDIMENSION@@XZ" ; netui2.dll
"?QuerySize@WINDOW@@QEBA?AVXYDIMENSION@@XZ" ; netui2.dll
"?QuerySize@WINDOW@@QEBAXPEAH0@Z" ; netui2.dll
"?QuerySmallDecValue@CHANGEABLE_SPIN_ITEM@@UEBAKXZ" ; netui2.dll
"?QuerySmallDecValue@SPIN_SLE_VALID_SECOND@@UEBAKXZ" ; netui2.dll
"?QuerySmallIncValue@CHANGEABLE_SPIN_ITEM@@UEBAKXZ" ; netui2.dll
"?QuerySmallIncValue@SPIN_SLE_VALID_SECOND@@UEBAKXZ" ; netui2.dll
"?QuerySourceDialog@NT_GROUP_BROWSER_DIALOG@@IEAAPEAV1@XZ" ; netui2.dll
"?QuerySourceListbox@NT_FIND_ACCOUNT_DIALOG@@QEAAPEAVUSER_BROWSER_LB@@XZ" ; netui2.dll
"?QuerySourceListbox@NT_GROUP_BROWSER_DIALOG@@QEAAPEAVUSER_BROWSER_LB@@XZ" ; netui2.dll
"?QueryState@STATE_BUTTON_CONTROL@@IEBAIXZ" ; netui2.dll
"?QueryState@STLBITEM@@QEBAHXZ" ; netui2.dll
"?QueryState@WIN32_THREAD@@AEBA?AW4_THREAD_STATE@@XZ" ; netui2.dll
"?QueryStaticClassName@CONTROL_WINDOW@@KAPEBGXZ" ; netui2.dll
"?QueryStrLB@SLE_STRLB_GROUP@@QEBAPEAVSTRING_LISTBOX@@XZ" ; netui2.dll
"?QueryStrLen@CONSOLE_ELLIPSIS@@MEAAHPEBGH@Z" ; netui2.dll
"?QueryStrLen@CONSOLE_ELLIPSIS@@MEAAHVNLS_STR@@@Z" ; netui2.dll
"?QueryStrLen@WIN_ELLIPSIS@@MEAAHPEBGH@Z" ; netui2.dll
"?QueryStrLen@WIN_ELLIPSIS@@MEAAHVNLS_STR@@@Z" ; netui2.dll
"?QueryStrNum@SPIN_SLE_STR@@AEAAJAEBVNLS_STR@@J@Z" ; netui2.dll
"?QueryString@ATOM_BASE@@QEBAJPEAGI@Z" ; netui2.dll
"?QueryString@STRING_BITSET_PAIR@@QEAAPEAVNLS_STR@@XZ" ; netui2.dll
"?QueryStyle@BASE_ELLIPSIS@@QEBA?AW4ELLIPSIS_STYLE@@XZ" ; netui2.dll
"?QueryStyle@WINDOW@@QEBAKXZ" ; netui2.dll
"?QuerySubMenu@MENU_BASE@@QEBAPEAUHMENU__@@H@Z" ; netui2.dll
"?QuerySuccessBaseCID@SET_OF_AUDIT_CATEGORIES@@QEAAIXZ" ; netui2.dll
"?QuerySuppliedHelpContext@BASE_SET_FOCUS_DLG@@IEAAKXZ" ; netui2.dll
"?QuerySuppliedHelpFile@BASE_SET_FOCUS_DLG@@IEAAPEBGXZ" ; netui2.dll
"?QueryText@BASE_ELLIPSIS@@QEBAJPEAGI@Z" ; netui2.dll
"?QueryText@BASE_ELLIPSIS@@QEBAJPEAVNLS_STR@@@Z" ; netui2.dll
"?QueryText@SLE_STRIP@@QEBAJPEAGIPEBG1@Z" ; netui2.dll
"?QueryText@SLE_STRIP@@QEBAJPEAVNLS_STR@@PEBG1@Z" ; netui2.dll
"?QueryText@SLT_ELLIPSIS@@QEBAJPEAGI@Z" ; netui2.dll
"?QueryText@SLT_ELLIPSIS@@QEBAJPEAVNLS_STR@@@Z" ; netui2.dll
"?QueryText@WINDOW@@QEBAJPEAGI@Z" ; netui2.dll
"?QueryText@WINDOW@@QEBAJPEAVNLS_STR@@@Z" ; netui2.dll
"?QueryTextExtent@DEVICE_CONTEXT@@QEBA?AVXYDIMENSION@@AEBVNLS_STR@@@Z" ; netui2.dll
"?QueryTextExtent@DEVICE_CONTEXT@@QEBA?AVXYDIMENSION@@PEBGI@Z" ; netui2.dll
"?QueryTextLength@BASE_ELLIPSIS@@QEBAHXZ" ; netui2.dll
"?QueryTextLength@NLS_STR@@QEBAIXZ" ; netui2.dll
"?QueryTextLength@WINDOW@@QEBAHXZ" ; netui2.dll
"?QueryTextMetrics@DEVICE_CONTEXT@@QEBAHPEAUtagTEXTMETRICW@@@Z" ; netui2.dll
"?QueryTextSize@BASE_ELLIPSIS@@QEBAHXZ" ; netui2.dll
"?QueryTextSize@WINDOW@@QEBAHXZ" ; netui2.dll
"?QueryTextWidth@DISPLAY_CONTEXT@@QEBAHAEBVNLS_STR@@@Z" ; netui2.dll
"?QueryTextWidth@DISPLAY_CONTEXT@@QEBAHPEBGI@Z" ; netui2.dll
"?QueryTop@XYRECT@@QEBAHXZ" ; netui2.dll
"?QueryTopIndex@LIST_CONTROL@@QEBAHXZ" ; netui2.dll
"?QueryType@BROWSER_SUBJECT@@QEBA?AW4_SID_NAME_USE@@XZ" ; netui2.dll
"?QueryType@OLLB_ENTRY@@QEBA?AW4OUTLINE_LB_LEVEL@@XZ" ; netui2.dll
"?QueryType@USER_BROWSER_LBI@@QEBA?AW4_SID_NAME_USE@@XZ" ; netui2.dll
"?QueryUISysSid@USER_BROWSER_LBI@@QEBA?AW4UI_SystemSid@@XZ" ; netui2.dll
"?QueryULCEntryPtr@USER_LBI_CACHE@@IEAAPEAU_ULC_ENTRY@@H@Z" ; netui2.dll
"?QueryULCEntrySize@USER_LBI_CACHE@@IEAAHXZ" ; netui2.dll
"?QueryUnicodeComment@NT_GROUP_ENUM_OBJ@@QEBAPEBU_UNICODE_STRING@@XZ" ; netui2.dll
"?QueryUnicodeGroup@NT_GROUP_ENUM_OBJ@@QEBAPEBU_UNICODE_STRING@@XZ" ; netui2.dll
"?QueryUnicodeName@LSA_PRIMARY_DOM_INFO_MEM@@QEBAPEBU_UNICODE_STRING@@XZ" ; netui2.dll
"?QueryUnicodeName@LSA_REF_DOMAIN_MEM@@AEBAPEBU_UNICODE_STRING@@K@Z" ; netui2.dll
"?QueryUnicodeName@LSA_TRANSLATED_NAME_MEM@@AEBAPEBU_UNICODE_STRING@@K@Z" ; netui2.dll
"?QueryUnicodeName@LSA_TRUST_INFO_MEM@@QEBAPEBU_UNICODE_STRING@@K@Z" ; netui2.dll
"?QueryUnicodeName@SAM_RID_ENUMERATION_MEM@@QEBAPEBU_UNICODE_STRING@@K@Z" ; netui2.dll
"?QueryUse@LSA_TRANSLATED_NAME_MEM@@QEBA?AW4_SID_NAME_USE@@K@Z" ; netui2.dll
"?QueryUse@LSA_TRANSLATED_SID_MEM@@QEBA?AW4_SID_NAME_USE@@K@Z" ; netui2.dll
"?QueryUserAccountFlags@USER_BROWSER_LBI@@QEBAKXZ" ; netui2.dll
"?QueryUserBrowserDialog@NT_GROUP_BROWSER_DIALOG@@IEAAPEAVNT_USER_BROWSER_DIALOG@@XZ" ; netui2.dll
"?QueryUserName@OPEN_LBI_BASE@@QEBAPEBGXZ" ; netui2.dll
"?QueryUserSelectedBits@SET_OF_AUDIT_CATEGORIES@@QEAAJPEAVBITFIELD@@0@Z" ; netui2.dll
"?QueryVKey@VKEY_EVENT@@QEBA_KXZ" ; netui2.dll
"?QueryValue@CHANGEABLE_SPIN_ITEM@@QEBAKXZ" ; netui2.dll
"?QueryVerticalMargins@METALLIC_STR_DTE@@SAIXZ" ; netui2.dll
"?QueryWParam@EVENT@@QEBA_KXZ" ; netui2.dll
"?QueryWhiteSpace@SLE_STRIP@@SAPEBGXZ" ; netui2.dll
"?QueryWidth@BIT_MAP@@QEBAIXZ" ; netui2.dll
"?QueryWidth@DISPLAY_MAP@@QEBAIXZ" ; netui2.dll
"?QueryWidth@SIZE_EVENT@@QEBAIXZ" ; netui2.dll
"?QueryWidth@XYDIMENSION@@QEBAIXZ" ; netui2.dll
"?QueryWindowRect@WINDOW@@QEBAXPEAUtagRECT@@@Z" ; netui2.dll
"?QueryWindowRect@WINDOW@@QEBAXPEAVXYRECT@@@Z" ; netui2.dll
"?QueryWrap@CHANGEABLE_SPIN_ITEM@@QEBAHXZ" ; netui2.dll
"?QueryX@XYPOINT@@QEBAHXZ" ; netui2.dll
"?QueryXForRow@LOGON_HOURS_CONTROL@@QEAAIH@Z" ; netui2.dll
"?QueryY@XYPOINT@@QEBAHXZ" ; netui2.dll
"?QueryYear@BLT_DATE_SPIN_GROUP@@QEBAHXZ" ; netui2.dll
"?QueryYear@WIN_TIME@@QEBAHXZ" ; netui2.dll
"?QueryYearPos@INTL_PROFILE@@QEBAHXZ" ; netui2.dll
"?ReadFocusCache@BASE_SET_FOCUS_DLG@@MEBA?AW4FOCUS_CACHE_SETTING@@PEBG@Z" ; netui2.dll
"?ReadUsers@USER_LBI_CACHE@@QEAAJPEAVADMIN_AUTHORITY@@IIHPEAH@Z" ; netui2.dll
"?Refresh@DEVICE_COMBO@@QEAAJXZ" ; netui2.dll
"?Refresh@OPEN_DIALOG_BASE@@IEAAXXZ" ; netui2.dll
"?Refresh@OPEN_LBOX_BASE@@QEAAJXZ" ; netui2.dll
"?RefreshChildren@HIER_LISTBOX@@MEAAXPEAVHIER_LBI@@@Z" ; netui2.dll
"?RefreshExtensions@UI_EXT_MGR@@UEAAXPEAUHWND__@@@Z" ; netui2.dll
"?RegisterHelpFile@BLT@@SAJPEAUHINSTANCE__@@JKK@Z" ; netui2.dll
"?Release@WIN32_MUTEX@@QEAAJXZ" ; netui2.dll
"?Release@WIN32_SEMAPHORE@@QEAAJJPEAJ@Z" ; netui2.dll
"?ReleaseLBI@BLT_LISTBOX@@EEAAXPEAVLBI@@@Z" ; netui2.dll
"?ReleaseLBI@LAZY_LISTBOX@@EEAAXPEAVLBI@@@Z" ; netui2.dll
"?ReleaseMouse@CLIENT_WINDOW@@QEAAXXZ" ; netui2.dll
"?ReleaseMouse@DISPATCHER@@QEAAXXZ" ; netui2.dll
"?ReloadColumnWidths@LB_COL_WIDTHS@@UEAAJPEAUHWND__@@PEAUHINSTANCE__@@AEBVIDRESOURCE@@@Z" ; netui2.dll
"?Remove@ARRAY_LIST_CONTROLVAL_CID_PAIR@@QEAAHAEBVCONTROLVAL_CID_PAIR@@@Z" ; netui2.dll
"?Remove@HWND_DLGPTR_CACHE@@SAXPEAUHWND__@@@Z" ; netui2.dll
"?Remove@MENU_BASE@@QEBAJII@Z" ; netui2.dll
"?Remove@SLIST_OF_ASSOCHCFILE@@QEAAPEAVASSOCHCFILE@@AEAVITER_SL_ASSOCHCFILE@@@Z" ; netui2.dll
"?Remove@SLIST_OF_CLIENTDATA@@QEAAPEAUCLIENTDATA@@AEAVITER_SL_CLIENTDATA@@@Z" ; netui2.dll
"?Remove@SLIST_OF_NLS_STR@@QEAAPEAVNLS_STR@@AEAVITER_SL_NLS_STR@@@Z" ; netui2.dll
"?Remove@SLIST_OF_TIMER_BASE@@QEAAPEAVTIMER_BASE@@AEAVITER_SL_TIMER_BASE@@@Z" ; netui2.dll
"?Remove@SLIST_OF_USER_BROWSER_LBI@@QEAAPEAVUSER_BROWSER_LBI@@AEAVITER_SL_USER_BROWSER_LBI@@@Z" ; netui2.dll
"?RemoveAllItems@BLT_LISTBOX@@QEAAXXZ" ; netui2.dll
"?RemoveClient@BLTIMP@@SAXPEAUHINSTANCE__@@@Z" ; netui2.dll
"?RemoveControl@CONTROL_TABLE@@QEAAHPEAVCONTROL_WINDOW@@@Z" ; netui2.dll
"?RemoveDuplicateAccountNames@ACCOUNT_NAMES_MLE@@IEAAXPEAVSTRLIST@@@Z" ; netui2.dll
"?RemoveHelpAssoc@BLTIMP@@SAXPEAUHINSTANCE__@@K@Z" ; netui2.dll
"?RemoveItem@BLT_LISTBOX@@QEAAPEAVLBI@@H@Z" ; netui2.dll
"?RemoveItem@USER_BROWSER_LB@@QEAAPEAVLBI@@H@Z" ; netui2.dll
"?RemoveItem@USER_BROWSER_LBI_CACHE@@UEAAPEAVLBI@@H@Z" ; netui2.dll
"?RemoveItem@USER_LBI_CACHE@@UEAAPEAVLBI@@H@Z" ; netui2.dll
"?RemoveSelection@LIST_CONTROL@@QEAAXXZ" ; netui2.dll
"?RemoveTimer@BLT_MASTER_TIMER@@QEAAXPEAVTIMER_BASE@@@Z" ; netui2.dll
"?RemoveTopItem@LBI_HEAP@@QEAAPEAVLBI@@XZ" ; netui2.dll
"?RepaintNow@WINDOW@@QEAAXXZ" ; netui2.dll
"?ReplaceDomainIfBuiltIn@ACCOUNT_NAMES_MLE@@IEAAJPEAVNLS_STR@@PEAH@Z" ; netui2.dll
"?ReplaceItem@BLT_LISTBOX@@QEAAJHPEAVLBI@@PEAPEAV2@@Z" ; netui2.dll
"?ReportError@BASE@@IEAAXJ@Z" ; netui2.dll
"?ReportError@CONTROL_TABLE@@IEAAXXZ" ; netui2.dll
"?ReportError@CONTROL_WINDOW@@IEAAXJ@Z" ; netui2.dll
"?ReportError@FORWARDING_BASE@@IEAAXJ@Z" ; netui2.dll
"?ReportError@SLT_ELLIPSIS@@IEAAXJ@Z" ; netui2.dll
"?RequestAccountData@BROWSER_DOMAIN@@QEAAJXZ" ; netui2.dll
"?RequestAccountData@DOMAIN_FILL_THREAD@@QEAAJXZ" ; netui2.dll
"?RequestAndWaitForUsers@BROWSER_DOMAIN@@QEAAJXZ" ; netui2.dll
"?RequestAndWaitForUsers@DOMAIN_FILL_THREAD@@QEAAJXZ" ; netui2.dll
"?RequestLBI@BLT_LISTBOX@@EEAAPEAVLBI@@PEBUtagDRAWITEMSTRUCT@@@Z" ; netui2.dll
"?RequestLBI@LAZY_LISTBOX@@EEAAPEAVLBI@@PEBUtagDRAWITEMSTRUCT@@@Z" ; netui2.dll
"?Reset@BROWSE_DOMAIN_ENUM@@QEAAXXZ" ; netui2.dll
"?Reset@ITER_CTRL@@QEAAXXZ" ; netui2.dll
"?Reset@WIN32_EVENT@@QEAAJXZ" ; netui2.dll
"?ResetCaption@POPUP@@SAXXZ" ; netui2.dll
"?ResetCreator@WINDOW@@IEAAXXZ" ; netui2.dll
"?ResetError@BASE@@IEAAXXZ" ; netui2.dll
"?ResetError@CONTROL_WINDOW@@IEAAXXZ" ; netui2.dll
"?ResetError@FORWARDING_BASE@@IEAAXXZ" ; netui2.dll
"?ResetError@SLT_ELLIPSIS@@IEAAXXZ" ; netui2.dll
"?ResetIterator@BLT_MASTER_TIMER@@QEAAXXZ" ; netui2.dll
"?ResetStyle@SLT_ELLIPSIS@@QEAAXW4ELLIPSIS_STYLE@@@Z" ; netui2.dll
"?Resize@ARRAY_CONTROLVAL_CID_PAIR@@QEAAHIH@Z" ; netui2.dll
"?Resort@BLT_LISTBOX@@QEAAJXZ" ; netui2.dll
"?RestoreValue@BLT_DATE_SPIN_GROUP@@MEAAXH@Z" ; netui2.dll
"?RestoreValue@BLT_TIME_SPIN_GROUP@@MEAAXH@Z" ; netui2.dll
"?RestoreValue@COMBOBOX@@MEAAXH@Z" ; netui2.dll
"?RestoreValue@CONTROL_VALUE@@MEAAXH@Z" ; netui2.dll
"?RestoreValue@EDIT_CONTROL@@MEAAXH@Z" ; netui2.dll
"?RestoreValue@LIST_CONTROL@@MEAAXH@Z" ; netui2.dll
"?RestoreValue@MAGIC_GROUP@@MEAAXH@Z" ; netui2.dll
"?RestoreValue@RADIO_GROUP@@MEAAXH@Z" ; netui2.dll
"?RestoreValue@SLT@@MEAAXH@Z" ; netui2.dll
"?RestoreValue@SPIN_GROUP@@UEAAXH@Z" ; netui2.dll
"?RestoreValue@STATE_BUTTON_CONTROL@@MEAAXH@Z" ; netui2.dll
"?Resume@WIN32_THREAD@@QEAAJXZ" ; netui2.dll
"?Run@APPLICATION@@MEAAHXZ" ; netui2.dll
"?RunMessagePump@HAS_MESSAGE_PUMP@@IEAA_KXZ" ; netui2.dll
"?SaveCurrentData@CHANGEABLE_SPIN_ITEM@@UEAAJXZ" ; netui2.dll
"?SaveCurrentData@SPIN_SLE_NUM@@UEAAJXZ" ; netui2.dll
"?SaveCurrentData@SPIN_SLE_STR@@UEAAJXZ" ; netui2.dll
"?SaveValue@BLT_DATE_SPIN_GROUP@@MEAAXH@Z" ; netui2.dll
"?SaveValue@BLT_TIME_SPIN_GROUP@@MEAAXH@Z" ; netui2.dll
"?SaveValue@COMBOBOX@@MEAAXH@Z" ; netui2.dll
"?SaveValue@CONTROL_VALUE@@MEAAXH@Z" ; netui2.dll
"?SaveValue@EDIT_CONTROL@@MEAAXH@Z" ; netui2.dll
"?SaveValue@LIST_CONTROL@@MEAAXH@Z" ; netui2.dll
"?SaveValue@MAGIC_GROUP@@MEAAXH@Z" ; netui2.dll
"?SaveValue@RADIO_GROUP@@MEAAXH@Z" ; netui2.dll
"?SaveValue@SLT@@MEAAXH@Z" ; netui2.dll
"?SaveValue@SPIN_GROUP@@UEAAXH@Z" ; netui2.dll
"?SaveValue@STATE_BUTTON_CONTROL@@MEAAXH@Z" ; netui2.dll
"?ScreenToClient@XYPOINT@@QEAAXPEAUHWND__@@@Z" ; netui2.dll
"?SelectBitmap@DEVICE_CONTEXT@@QEAAPEAUHBITMAP__@@PEAU2@@Z" ; netui2.dll
"?SelectBrush@DEVICE_CONTEXT@@QEAAPEAUHBRUSH__@@PEAU2@@Z" ; netui2.dll
"?SelectFont@DEVICE_CONTEXT@@QEAAPEAUHFONT__@@PEAU2@@Z" ; netui2.dll
"?SelectItem@BROWSER_DOMAIN_CB@@QEAAXPEAVBROWSER_DOMAIN@@@Z" ; netui2.dll
"?SelectItem@LIST_CONTROL@@QEAAXHH@Z" ; netui2.dll
"?SelectItems@LIST_CONTROL@@QEAAXPEAHHH@Z" ; netui2.dll
"?SelectNetPathString@BASE_SET_FOCUS_DLG@@AEAAXXZ" ; netui2.dll
"?SelectObject@DEVICE_CONTEXT@@IEAAPEAXPEAX@Z" ; netui2.dll
"?SelectPen@DEVICE_CONTEXT@@QEAAPEAUHPEN__@@PEAU2@@Z" ; netui2.dll
"?SelectString@COMBOBOX@@QEAAXXZ" ; netui2.dll
"?SelectString@EDIT_CONTROL@@QEAAXXZ" ; netui2.dll
"?SendTo@EVENT@@QEBA_JPEAUHWND__@@@Z" ; netui2.dll
"?Set@CURSOR@@SAPEAUHICON__@@PEAU2@@Z" ; netui2.dll
"?Set@WIN32_EVENT@@QEAAJXZ" ; netui2.dll
"?SetAccKey@SPIN_ITEM@@QEAAJAEBVNLS_STR@@@Z" ; netui2.dll
"?SetAccKey@SPIN_ITEM@@QEAAJJ@Z" ; netui2.dll
"?SetAndFillErrorText@NT_USER_BROWSER_DIALOG@@QEAAJJH@Z" ; netui2.dll
"?SetArrowButtonStatus@SPIN_GROUP@@IEAAXXZ" ; netui2.dll
"?SetAsTargetDomain@BROWSER_DOMAIN@@QEAAJXZ" ; netui2.dll
"?SetAutoReadjust@HEAP_BASE@@IEAAXH@Z" ; netui2.dll
"?SetBigDecValue@CHANGEABLE_SPIN_ITEM@@QEAAXK@Z" ; netui2.dll
"?SetBigIncValue@CHANGEABLE_SPIN_ITEM@@QEAAXK@Z" ; netui2.dll
"?SetBitmap@BIT_MAP@@QEAAXPEAUHBITMAP__@@@Z" ; netui2.dll
"?SetBitmapBits@DISPLAY_MAP@@AEAAXPEAEHHI@Z" ; netui2.dll
"?SetBkColor@DEVICE_CONTEXT@@QEAAKK@Z" ; netui2.dll
"?SetBkMode@DEVICE_CONTEXT@@QEAAHH@Z" ; netui2.dll
"?SetBuffer@GET_FNAME_BASE_DLG@@IEAAJPEAVBUFFER@@AEAVSTRLIST@@@Z" ; netui2.dll
"?SetBufferPtr@ENUM_OBJ_BASE@@IEAAXPEBE@Z" ; netui2.dll
"?SetButton@ORDER_GROUP@@QEAAXXZ" ; netui2.dll
"?SetCaption@POPUP@@SAXJ@Z" ; netui2.dll
"?SetCaretIndex@LIST_CONTROL@@QEAAXHH@Z" ; netui2.dll
"?SetCheck@MENUITEM@@QEAAXH@Z" ; netui2.dll
"?SetCheck@RADIO_BUTTON@@AEAAXH@Z" ; netui2.dll
"?SetCheck@STATE2_BUTTON_CONTROL@@QEAAXH@Z" ; netui2.dll
"?SetCheckBoxNames@SET_OF_AUDIT_CATEGORIES@@QEAAJPEAVMASK_MAP@@@Z" ; netui2.dll
"?SetClientGeneratedMsgFlag@WINDOW@@KAXH@Z" ; netui2.dll
"?SetComplete@METER@@QEAAXH@Z" ; netui2.dll
"?SetControlValueFocus@BLT_DATE_SPIN_GROUP@@MEAAXXZ" ; netui2.dll
"?SetControlValueFocus@BLT_TIME_SPIN_GROUP@@MEAAXXZ" ; netui2.dll
"?SetControlValueFocus@CONTROL_VALUE@@UEAAXXZ" ; netui2.dll
"?SetControlValueFocus@CONTROL_WINDOW@@UEAAXXZ" ; netui2.dll
"?SetControlValueFocus@EDIT_CONTROL@@MEAAXXZ" ; netui2.dll
"?SetControlValueFocus@MAGIC_GROUP@@UEAAXXZ" ; netui2.dll
"?SetControlValueFocus@RADIO_GROUP@@UEAAXXZ" ; netui2.dll
"?SetControlValueFocus@SPIN_GROUP@@UEAAXXZ" ; netui2.dll
"?SetCount@LAZY_LISTBOX@@QEAAXI@Z" ; netui2.dll
"?SetCurrentCache@USER_BROWSER_LB@@QEAAXPEAVUSER_BROWSER_LBI_CACHE@@@Z" ; netui2.dll
"?SetCurrentDay@BLT_DATE_SPIN_GROUP@@QEAAJXZ" ; netui2.dll
"?SetCurrentDomainFocus@NT_USER_BROWSER_DIALOG@@QEAAXPEAVBROWSER_DOMAIN@@@Z" ; netui2.dll
"?SetCurrentField@SPIN_GROUP@@IEAAXPEAVSPIN_ITEM@@@Z" ; netui2.dll
"?SetCurrentTime@BLT_TIME_SPIN_GROUP@@QEAAJXZ" ; netui2.dll
"?SetCustomFilter@GET_FNAME_BASE_DLG@@QEAAJAEAVSTRLIST@@K@Z" ; netui2.dll
"?SetDSFieldName@DISK_SPACE_SUBCLASS@@QEAAXJ@Z" ; netui2.dll
"?SetDay@BLT_DATE_SPIN_GROUP@@QEAAXH@Z" ; netui2.dll
"?SetDestroyable@HIER_LBI@@CAXH@Z" ; netui2.dll
"?SetDialogFocus@OWNER_WINDOW@@QEAAXAEAVCONTROL_WINDOW@@@Z" ; netui2.dll
"?SetDomainComboDropFlag@NT_USER_BROWSER_DIALOG@@IEAAXH@Z" ; netui2.dll
"?SetDomainExpanded@OUTLINE_LISTBOX@@QEAAXHH@Z" ; netui2.dll
"?SetEllipsis@BASE_ELLIPSIS@@QEAAJPEAG@Z" ; netui2.dll
"?SetEllipsis@BASE_ELLIPSIS@@QEAAJPEAVNLS_STR@@@Z" ; netui2.dll
"?SetEllipsisCenter@BASE_ELLIPSIS@@IEAAJPEAVNLS_STR@@@Z" ; netui2.dll
"?SetEllipsisLeft@BASE_ELLIPSIS@@IEAAJPEAVNLS_STR@@@Z" ; netui2.dll
"?SetEllipsisPath@BASE_ELLIPSIS@@IEAAJPEAVNLS_STR@@@Z" ; netui2.dll
"?SetEllipsisRight@BASE_ELLIPSIS@@IEAAJPEAVNLS_STR@@@Z" ; netui2.dll
"?SetEnableHook@GET_FNAME_BASE_DLG@@IEAAXH@Z" ; netui2.dll
"?SetExpanded@HIER_LBI@@QEAAXH@Z" ; netui2.dll
"?SetExpanded@OLLB_ENTRY@@AEAAXH@Z" ; netui2.dll
"?SetFieldMinMax@SPIN_GROUP@@QEAAHG@Z" ; netui2.dll
"?SetFieldName@SPIN_SLE_NUM_VALID@@QEAAJJ@Z" ; netui2.dll
"?SetFileExtension@GET_FNAME_BASE_DLG@@QEAAJAEBVNLS_STR@@@Z" ; netui2.dll
"?SetFilter@GET_FNAME_BASE_DLG@@QEAAJAEAVSTRLIST@@K@Z" ; netui2.dll
"?SetFmtLines@MLE@@QEAAXH@Z" ; netui2.dll
"?SetFocus@OWNER_WINDOW@@QEAAXI@Z" ; netui2.dll
"?SetFont@CONTROL_WINDOW@@QEAAXPEAUHFONT__@@H@Z" ; netui2.dll
"?SetFont@FONT@@QEAAJAEBUtagLOGFONTW@@@Z" ; netui2.dll
"?SetFont@FONT@@QEAAJPEAUHFONT__@@@Z" ; netui2.dll
"?SetGroup@CONTROL_VALUE@@QEAAXPEAVCONTROL_GROUP@@@Z" ; netui2.dll
"?SetHandle@MENU_BASE@@IEAAXPEAUHMENU__@@@Z" ; netui2.dll
"?SetHandle@WIN32_HANDLE@@IEAAXPEAX@Z" ; netui2.dll
"?SetHeight@XYDIMENSION@@QEAAXI@Z" ; netui2.dll
"?SetHelpActive@GET_FNAME_BASE_DLG@@QEAAXH@Z" ; netui2.dll
"?SetHelpContextBase@POPUP@@SAKK@Z" ; netui2.dll
"?SetHookProc@GET_FNAME_BASE_DLG@@QEAAX_K@Z" ; netui2.dll
"?SetHorizontalExtent@LISTBOX@@QEAAXI@Z" ; netui2.dll
"?SetHour@BLT_TIME_SPIN_GROUP@@QEAAXH@Z" ; netui2.dll
"?SetHours@LOGON_HOURS_CONTROL@@QEAAJPEBVLOGON_HOURS_SETTING@@@Z" ; netui2.dll
"?SetHwnd@WINDOW@@IEAAXPEAUHWND__@@@Z" ; netui2.dll
"?SetIcon@APP_WINDOW@@QEAAHAEBVIDRESOURCE@@@Z" ; netui2.dll
"?SetIcon@ICON_CONTROL@@QEAAJAEBVIDRESOURCE@@@Z" ; netui2.dll
"?SetInTimer@CANCEL_TASK_DIALOG@@IEAAXH@Z" ; netui2.dll
"?SetIncludeUsers@USER_BROWSER_LBI_CACHE@@QEAAXH@Z" ; netui2.dll
"?SetIndentLevel@HIER_LBI@@AEAAXXZ" ; netui2.dll
"?SetInitialDir@GET_FNAME_BASE_DLG@@QEAAJAEBVNLS_STR@@@Z" ; netui2.dll
"?SetItem@BLT_LISTBOX@@AEAAXHPEAVLBI@@@Z" ; netui2.dll
"?SetItemData@LIST_CONTROL@@IEAAHHPEAX@Z" ; netui2.dll
"?SetMapMode@DEVICE_CONTEXT@@QEAAHH@Z" ; netui2.dll
"?SetMaskBits@DISPLAY_MAP@@AEAAXPEAEHHI@Z" ; netui2.dll
"?SetMaxInput@SPIN_SLE_NUM@@AEAAXXZ" ; netui2.dll
"?SetMaxLength@COMBOBOX@@QEAAHI@Z" ; netui2.dll
"?SetMaxLength@EDIT_CONTROL@@QEAAXI@Z" ; netui2.dll
"?SetMenu@APP_WINDOW@@QEAAHAEBVIDRESOURCE@@@Z" ; netui2.dll
"?SetMin@CHANGEABLE_SPIN_ITEM@@QEAAXK@Z" ; netui2.dll
"?SetMin@SPIN_SLE_NUM@@QEAAXK@Z" ; netui2.dll
"?SetMinute@BLT_TIME_SPIN_GROUP@@QEAAXH@Z" ; netui2.dll
"?SetMinuteFieldName@ELAPSED_TIME_CONTROL@@QEAAXJ@Z" ; netui2.dll
"?SetMinuteMin@ELAPSED_TIME_CONTROL@@QEAAXJ@Z" ; netui2.dll
"?SetMinuteRange@ELAPSED_TIME_CONTROL@@QEAAXJ@Z" ; netui2.dll
"?SetMinuteValue@ELAPSED_TIME_CONTROL@@QEAAXJ@Z" ; netui2.dll
"?SetModified@SPIN_GROUP@@QEAAXH@Z" ; netui2.dll
"?SetMonth@BLT_DATE_SPIN_GROUP@@QEAAXH@Z" ; netui2.dll
"?SetMsgMapTable@POPUP@@SAXPEAU_MSGMAPENTRY@@@Z" ; netui2.dll
"?SetNetworkFocus@BASE_SET_FOCUS_DLG@@MEAAJPEAUHWND__@@PEBGW4FOCUS_CACHE_SETTING@@@Z" ; netui2.dll
"?SetNetworkFocus@STANDALONE_SET_FOCUS_DLG@@MEAAJPEAUHWND__@@PEBGW4FOCUS_CACHE_SETTING@@@Z" ; netui2.dll
"?SetNewTimeDue@TIMER_BASE@@AEAAXXZ" ; netui2.dll
"?SetOriginalStr@BASE_ELLIPSIS@@QEAAJPEBG@Z" ; netui2.dll
"?SetPdm@DM_DTE@@IEAAXPEAVDISPLAY_MAP@@@Z" ; netui2.dll
"?SetPelIndent@HIER_LBI@@UEAAXI@Z" ; netui2.dll
"?SetPlacement@APP_WINDOW@@QEBAJPEBUtagWINDOWPLACEMENT@@@Z" ; netui2.dll
"?SetPos@CURSOR@@SAXAEBVXYPOINT@@@Z" ; netui2.dll
"?SetPos@SCROLLBAR@@QEAAXI@Z" ; netui2.dll
"?SetPos@WINDOW@@QEAAXVXYPOINT@@HPEAV1@@Z" ; netui2.dll
"?SetPredefinedIcon@ICON_CONTROL@@QEAAJAEBVIDRESOURCE@@@Z" ; netui2.dll
"?SetPriority@WIN32_THREAD@@QEAAJH@Z" ; netui2.dll
"?SetRange@CHANGEABLE_SPIN_ITEM@@QEAAXK@Z" ; netui2.dll
"?SetRange@SCROLLBAR@@QEAAXII@Z" ; netui2.dll
"?SetRange@SPIN_SLE_NUM@@QEAAXK@Z" ; netui2.dll
"?SetRange@SPIN_SLE_STR@@QEAAXJ@Z" ; netui2.dll
"?SetRedraw@WINDOW@@QEAAXH@Z" ; netui2.dll
"?SetSaveValue@EDIT_CONTROL@@QEAAJPEBG@Z" ; netui2.dll
"?SetSaveValue@SPIN_SLE_NUM@@QEAAJK@Z" ; netui2.dll
"?SetScrollPos@LISTBOX@@QEAAXI@Z" ; netui2.dll
"?SetSecond@BLT_TIME_SPIN_GROUP@@QEAAXH@Z" ; netui2.dll
"?SetSecondFieldName@ELAPSED_TIME_CONTROL@@QEAAXJ@Z" ; netui2.dll
"?SetSecondMin@ELAPSED_TIME_CONTROL@@QEAAXJ@Z" ; netui2.dll
"?SetSecondRange@ELAPSED_TIME_CONTROL@@QEAAXJ@Z" ; netui2.dll
"?SetSecondValue@ELAPSED_TIME_CONTROL@@QEAAXJ@Z" ; netui2.dll
"?SetSelected@GRAPHICAL_BUTTON_WITH_DISABLE@@QEAAXH@Z" ; netui2.dll
"?SetSelectedCells@LOGON_HOURS_CONTROL@@AEAAXH@Z" ; netui2.dll
"?SetSelection@LOGON_HOURS_CONTROL@@AEAAXH@Z" ; netui2.dll
"?SetSelection@LOGON_HOURS_CONTROL@@AEAAXHH@Z" ; netui2.dll
"?SetSelection@MAGIC_GROUP@@QEAAXI@Z" ; netui2.dll
"?SetSelection@RADIO_GROUP@@QEAAXI@Z" ; netui2.dll
"?SetSelectionDontNotifyGroups@RADIO_GROUP@@IEAAXI@Z" ; netui2.dll
"?SetSize@CONSOLE_ELLIPSIS@@QEAAXH@Z" ; netui2.dll
"?SetSize@SLT_ELLIPSIS@@QEAAXHHH@Z" ; netui2.dll
"?SetSize@WINDOW@@QEAAXHHH@Z" ; netui2.dll
"?SetSize@WINDOW@@QEAAXVXYDIMENSION@@H@Z" ; netui2.dll
"?SetSize@WIN_ELLIPSIS@@QEAAXHH@Z" ; netui2.dll
"?SetSmallDecValue@CHANGEABLE_SPIN_ITEM@@QEAAXK@Z" ; netui2.dll
"?SetSmallIncValue@CHANGEABLE_SPIN_ITEM@@QEAAXK@Z" ; netui2.dll
"?SetSourceDialog@NT_GROUP_BROWSER_DIALOG@@IEAAXPEAV1@@Z" ; netui2.dll
"?SetSpinItemAccKey@ELAPSED_TIME_CONTROL@@AEAAJPEAVSPIN_ITEM@@AEAVSLT@@H@Z" ; netui2.dll
"?SetState@SLE_STRLB_GROUP@@IEBAXXZ" ; netui2.dll
"?SetState@STATE_BUTTON_CONTROL@@IEAAXI@Z" ; netui2.dll
"?SetState@STLBITEM@@QEAAHH@Z" ; netui2.dll
"?SetState@WIN32_THREAD@@AEAAXW4_THREAD_STATE@@@Z" ; netui2.dll
"?SetStatus@GRAPHICAL_BUTTON@@QEAAXI@Z" ; netui2.dll
"?SetStatus@GRAPHICAL_BUTTON@@QEAAXPEAUHBITMAP__@@@Z" ; netui2.dll
"?SetStr@SPIN_SLE_STR@@AEAAXJ@Z" ; netui2.dll
"?SetStringField@GET_FNAME_BASE_DLG@@AEAAJPEAPEAGAEBVNLS_STR@@@Z" ; netui2.dll
"?SetStyle@BASE_ELLIPSIS@@QEAAXW4ELLIPSIS_STYLE@@@Z" ; netui2.dll
"?SetStyle@WINDOW@@QEAAXK@Z" ; netui2.dll
"?SetTabStop@CONTROL_VALUE@@MEAAXH@Z" ; netui2.dll
"?SetTabStop@CONTROL_WINDOW@@MEAAXH@Z" ; netui2.dll
"?SetTargetDomain@ACCOUNT_NAMES_MLE@@QEAAJPEBG@Z" ; netui2.dll
"?SetText@GET_FNAME_BASE_DLG@@QEAAJAEBVNLS_STR@@@Z" ; netui2.dll
"?SetText@MENUITEM@@QEAAHPEBG@Z" ; netui2.dll
"?SetText@SLT_ELLIPSIS@@QEAAJAEBVNLS_STR@@@Z" ; netui2.dll
"?SetText@SLT_ELLIPSIS@@QEAAJPEBG@Z" ; netui2.dll
"?SetText@WINDOW@@QEAAXAEBVNLS_STR@@@Z" ; netui2.dll
"?SetText@WINDOW@@QEAAXPEBG@Z" ; netui2.dll
"?SetTextAlign@DEVICE_CONTEXT@@QEAAII@Z" ; netui2.dll
"?SetTextColor@DEVICE_CONTEXT@@QEAAKK@Z" ; netui2.dll
"?SetTopIndex@LIST_CONTROL@@QEAAXH@Z" ; netui2.dll
"?SetUserBrowserLBI@BROWSER_SUBJECT@@QEAAJPEAVUSER_BROWSER_LBI@@@Z" ; netui2.dll
"?SetValue@CHANGEABLE_SPIN_ITEM@@QEAAXK@Z" ; netui2.dll
"?SetValue@DEC_SLT@@QEAAXJ@Z" ; netui2.dll
"?SetValue@DEC_SLT@@QEAAXK@Z" ; netui2.dll
"?SetWidth@XYDIMENSION@@QEAAXI@Z" ; netui2.dll
"?SetX@XYPOINT@@QEAAXH@Z" ; netui2.dll
"?SetY@XYPOINT@@QEAAXH@Z" ; netui2.dll
"?SetYear@BLT_DATE_SPIN_GROUP@@QEAAXH@Z" ; netui2.dll
"?Show@CURSOR@@SAXH@Z" ; netui2.dll
"?Show@POPUP@@QEAAHXZ" ; netui2.dll
"?Show@WINDOW@@QEAAHH@Z" ; netui2.dll
"?ShowArea@BASE_SET_FOCUS_DLG@@IEAAXH@Z" ; netui2.dll
"?ShowArea@EXPANDABLE_DIALOG@@IEAAXH@Z" ; netui2.dll
"?ShowDragBar@H_SPLITTER_BAR@@AEAAXAEBVXYPOINT@@@Z" ; netui2.dll
"?ShowFirst@WINDOW@@QEAAXXZ" ; netui2.dll
"?ShowSpecialCursor@H_SPLITTER_BAR@@AEAAXH@Z" ; netui2.dll
"?Sleep@WIN32_THREAD@@QEAAXI@Z" ; netui2.dll
"?Sort@USER_LBI_CACHE@@QEAAXXZ" ; netui2.dll
"?StartThread@WIN32_THREAD@@CAKPEAX@Z" ; netui2.dll
"?StretchForFonts@LB_COL_WIDTHS@@AEAAJPEAUHWND__@@PEBG@Z" ; netui2.dll
"?StringToBits@MASK_MAP@@QEAAJAEBVNLS_STR@@PEAVBITFIELD@@HPEAI@Z" ; netui2.dll
"?StripDomainIfWellKnown@ACCOUNT_NAMES_MLE@@IEAAJPEAVNLS_STR@@@Z" ; netui2.dll
"?SubClassWndProc@CUSTOM_CONTROL@@IEAA_JAEBVEVENT@@@Z" ; netui2.dll
"?Suspend@WIN32_THREAD@@QEAAJXZ" ; netui2.dll
"?Term@BASE_ELLIPSIS@@SAXXZ" ; netui2.dll
"?Term@BLT@@SAXPEAUHINSTANCE__@@@Z" ; netui2.dll
"?Term@BLTIMP@@SAXXZ" ; netui2.dll
"?Term@BLT_MASTER_TIMER@@SAXXZ" ; netui2.dll
"?Term@CLIENT_WINDOW@@SAXXZ" ; netui2.dll
"?Term@POPUP@@SAXXZ" ; netui2.dll
"?TermDLL@BLT@@SAXXZ" ; netui2.dll
"?Terminate@WIN32_THREAD@@QEAAJI@Z" ; netui2.dll
"?TextOutW@DEVICE_CONTEXT@@QEBAHAEBVNLS_STR@@VXYPOINT@@@Z" ; netui2.dll
"?TextOutW@DEVICE_CONTEXT@@QEBAHAEBVNLS_STR@@VXYPOINT@@PEBUtagRECT@@@Z" ; netui2.dll
"?TextOutW@DEVICE_CONTEXT@@QEBAHPEBGHHH@Z" ; netui2.dll
"?TextOutW@DEVICE_CONTEXT@@QEBAHPEBGHHHPEBUtagRECT@@@Z" ; netui2.dll
"?Toggle@CHECKBOX@@QEAAHXZ" ; netui2.dll
"?ToggleDomain@LM_OLLB@@QEAAJH@Z" ; netui2.dll
"?Track@POPUP_MENU@@QEBAJAEBVPWND2HWND@@IHHPEBUtagRECT@@@Z" ; netui2.dll
"?Translate@ACCELTABLE@@QEBAHPEBVWINDOW@@PEAUtagMSG@@@Z" ; netui2.dll
"?TriggerNow@TIMER_BASE@@QEAAXXZ" ; netui2.dll
"?TrimLeading@@YAJPEAVNLS_STR@@PEBG@Z" ; netui2.dll
"?TrimTrailing@@YAJPEAVNLS_STR@@PEBG@Z" ; netui2.dll
"?TurnOff@AUTO_CURSOR@@QEAAXXZ" ; netui2.dll
"?TurnOn@AUTO_CURSOR@@QEAAXXZ" ; netui2.dll
"?UnRequestAccountData@BROWSER_DOMAIN@@QEAAJXZ" ; netui2.dll
"?UnRequestAccountData@DOMAIN_FILL_THREAD@@QEAAJXZ" ; netui2.dll
"?UnloadExtensions@UI_EXT_MGR@@UEAAXXZ" ; netui2.dll
"?UnloadLabels@LOGON_HOURS_CONTROL@@AEAAXXZ" ; netui2.dll
"?UnlockCache@USER_LBI_CACHE@@MEAAXXZ" ; netui2.dll
"?Unwind@BLTIMP@@CAXW4BLT_CTOR_STATE@@@Z" ; netui2.dll
"?Update@CHANGEABLE_SPIN_ITEM@@UEAAXXZ" ; netui2.dll
"?Update@SPIN_SLE_NUM@@UEAAXXZ" ; netui2.dll
"?Update@SPIN_SLE_STR@@UEAAXXZ" ; netui2.dll
"?UpdateButtonState@NT_FIND_ACCOUNT_DIALOG@@IEAAXXZ" ; netui2.dll
"?UpdateButtonState@NT_GROUP_BROWSER_DIALOG@@MEAAXXZ" ; netui2.dll
"?UpdateButtonState@NT_LOCALGROUP_BROWSER_DIALOG@@MEAAXXZ" ; netui2.dll
"?UpdateButtonState@NT_USER_BROWSER_DIALOG@@IEAAXXZ" ; netui2.dll
"?UpdateRasMode@BASE_SET_FOCUS_DLG@@AEAAXXZ" ; netui2.dll
"?Validate@CONTROL_WINDOW@@UEAAJXZ" ; netui2.dll
"?Validate@DIALOG_WINDOW@@AEAAJXZ" ; netui2.dll
"?Validate@ICANON_SLE@@UEAAJXZ" ; netui2.dll
"?Validate@SPIN_SLE_NUM@@UEAAJXZ" ; netui2.dll
"?W_Add@SLE_STRLB_GROUP@@MEAAJPEBG@Z" ; netui2.dll
"?W_AddAtom@GLOBAL_ATOM@@EEBAGPEBG@Z" ; netui2.dll
"?W_AddAtom@LOCAL_ATOM@@EEBAGPEBG@Z" ; netui2.dll
"?W_Append@MENU_BASE@@IEBAJPEBX_KI@Z" ; netui2.dll
"?W_BiasMenuIds@UI_MENU_EXT@@AEAAJPEAUHMENU__@@K@Z" ; netui2.dll
"?W_GetLBI@USER_LBI_CACHE@@AEAAPEAVLBI@@H@Z" ; netui2.dll
"?W_GrowCache@USER_LBI_CACHE@@AEAAHH@Z" ; netui2.dll
"?W_Insert@MENU_BASE@@IEBAJPEBXI_KI@Z" ; netui2.dll
"?W_LoadExtension@UI_EXT_MGR@@MEAAPEAVUI_EXT@@PEBGK@Z" ; netui2.dll
"?W_Modify@MENU_BASE@@IEBAJPEBXI_KI@Z" ; netui2.dll
"?W_Paint@BROWSER_DOMAIN_LBI@@QEBAXPEAVBROWSER_DOMAIN_CB@@PEAVLISTBOX@@PEAUHDC__@@PEBUtagRECT@@PEAUGUILTT_INFO@@@Z" ; netui2.dll
"?W_QueryItemText@MENU_BASE@@IEBAHPEAGIII@Z" ; netui2.dll
"?W_QueryString@GLOBAL_ATOM@@EEBAJPEAGI@Z" ; netui2.dll
"?W_QueryString@LOCAL_ATOM@@EEBAJPEAGI@Z" ; netui2.dll
"?W_SetIcon@ICON_CONTROL@@AEAAJAEBVIDRESOURCE@@H@Z" ; netui2.dll
"?Wait@WIN32_SYNC_BASE@@QEAAJI@Z" ; netui2.dll
"?WaitForAdminAuthority@BROWSER_DOMAIN@@QEBAJKPEAH@Z" ; netui2.dll
"?WaitForAdminAuthority@DOMAIN_FILL_THREAD@@QEBAJKPEAH@Z" ; netui2.dll
"?WarnCloseMulti@OPEN_DIALOG_BASE@@AEAAHXZ" ; netui2.dll
"?WarnCloseSingle@OPEN_DIALOG_BASE@@AEAAHPEAVOPEN_LBI_BASE@@@Z" ; netui2.dll
"?WithinRange@ARRAY_CONTROLVAL_CID_PAIR@@AEBAHI@Z" ; netui2.dll
"?WndProc@CLIENT_WINDOW@@SA_JPEAUHWND__@@I_K_J@Z" ; netui2.dll
"?WndProc@CUSTOM_CONTROL@@SA_JPEAUHWND__@@I_K_J@Z" ; netui2.dll
"?max@@YAHHH@Z" ; netui2.dll
"?min@@YAHHH@Z" ; netui2.dll
"?pfExtendedError@GET_FNAME_BASE_DLG@@QEBAP6AKXZXZ" ; netui2.dll
"?pfGetOpenFileName@GET_FNAME_BASE_DLG@@QEBAP6AHPEAUtagOFNW@@@ZXZ" ; netui2.dll
"?pfGetSaveFileName@GET_FNAME_BASE_DLG@@QEBAP6AHPEAUtagOFNW@@@ZXZ" ; netui2.dll
"BltCCWndProc" ; netui2.dll
"BltDlgProc" ; netui2.dll
"BltWndProc" ; netui2.dll
"CloseUserBrowser" ; netui2.dll
"EnumUserBrowserSelection" ; netui2.dll
"LongToHandle" ; netui2.dll
"OpenUserBrowser" ; netui2.dll
"PtrToUlong" ; netui2.dll
"ShellDlgProc" ; netui2.dll
"UIntToPtr" ; netui2.dll
