LIBRARY "netui0.dll"
EXPORTS
"??0ALIAS_STR@@QEAA@PEBG@Z" ; netui0.dll
"??0ALLOC_STR@@QEAA@PEAGIPEBG@Z" ; netui0.dll
"??0BASE@@IEAA@XZ" ; netui0.dll
"??0BITFIELD@@QEAA@AEBV0@@Z" ; netui0.dll
"??0BITFIELD@@QEAA@G@Z" ; netui0.dll
"??0BITFIELD@@QEAA@IW4BITVALUES@@@Z" ; netui0.dll
"??0BITFIELD@@QEAA@K@Z" ; netui0.dll
"??0BITFIELD@@QEAA@PEBEII@Z" ; netui0.dll
"??0BUFFER@@QEAA@I@Z" ; netui0.dll
"??0CHAR_STRING@@QEAA@PEBGI@Z" ; netui0.dll
"??0DBGSTREAM@@QEAA@PEAVOUTPUTSINK@@@Z" ; netui0.dll
"??0DEC_STR@@QEAA@KI@Z" ; netui0.dll
"??0DFSITER_TREE@@QEAA@PEBV0@@Z" ; netui0.dll
"??0DFSITER_TREE@@QEAA@PEBVTREE@@I@Z" ; netui0.dll
"??0DIR_BLOCK@@QEAA@XZ" ; netui0.dll
"??0DLIST@@QEAA@XZ" ; netui0.dll
"??0DL_NODE@@QEAA@PEAV0@0PEAX@Z" ; netui0.dll
"??0ELAPSED_TIME_STR@@QEAA@KGH@Z" ; netui0.dll
"??0FMX@@QEAA@PEAUHWND__@@@Z" ; netui0.dll
"??0FORWARDING_BASE@@IEAA@PEAVBASE@@@Z" ; netui0.dll
"??0FS_ENUM@@IEAA@PEBG0W4FILE_TYPE@@HI@Z" ; netui0.dll
"??0HEAP_BASE@@IEAA@HH@Z" ; netui0.dll
"??0HEX_STR@@QEAA@KI@Z" ; netui0.dll
"??0HUATOM@@QEAA@PEBGH@Z" ; netui0.dll
"??0INTL_PROFILE@@QEAA@XZ" ; netui0.dll
"??0ISTR@@QEAA@AEBV0@@Z" ; netui0.dll
"??0ISTR@@QEAA@AEBVNLS_STR@@@Z" ; netui0.dll
"??0ITER_DL@@QEAA@AEBV0@@Z" ; netui0.dll
"??0ITER_DL@@QEAA@PEAVDLIST@@@Z" ; netui0.dll
"??0ITER_L@@QEAA@XZ" ; netui0.dll
"??0ITER_SL@@QEAA@AEBV0@@Z" ; netui0.dll
"??0ITER_SL@@QEAA@PEAVSLIST@@@Z" ; netui0.dll
"??0ITER_SL_DIR_BLOCK@@QEAA@AEAVSLIST@@@Z" ; netui0.dll
"??0ITER_SL_NLS_STR@@QEAA@AEAVSLIST@@@Z" ; netui0.dll
"??0ITER_SL_NLS_STR@@QEAA@AEBV0@@Z" ; netui0.dll
"??0ITER_STRLIST@@QEAA@AEAVSTRLIST@@@Z" ; netui0.dll
"??0ITER_STRLIST@@QEAA@AEBV0@@Z" ; netui0.dll
"??0LOGON_HOURS_SETTING@@QEAA@AEBV0@@Z" ; netui0.dll
"??0LOGON_HOURS_SETTING@@QEAA@PEBEI@Z" ; netui0.dll
"??0NLS_STR@@IEAA@PEAGIH@Z" ; netui0.dll
"??0NLS_STR@@QEAA@AEBV0@@Z" ; netui0.dll
"??0NLS_STR@@QEAA@I@Z" ; netui0.dll
"??0NLS_STR@@QEAA@PEBG@Z" ; netui0.dll
"??0NLS_STR@@QEAA@PEBGG@Z" ; netui0.dll
"??0NLS_STR@@QEAA@XZ" ; netui0.dll
"??0NUM_NLS_STR@@QEAA@K@Z" ; netui0.dll
"??0ONE_SHOT_HEAP@@QEAA@IH@Z" ; netui0.dll
"??0REG_KEY@@QEAA@AEAV0@@Z" ; netui0.dll
"??0REG_KEY@@QEAA@AEAV0@AEBVNLS_STR@@K@Z" ; netui0.dll
"??0REG_KEY@@QEAA@AEAV0@AEBVNLS_STR@@PEAVREG_KEY_CREATE_STRUCT@@@Z" ; netui0.dll
"??0REG_KEY@@QEAA@AEBVNLS_STR@@K@Z" ; netui0.dll
"??0REG_KEY@@QEAA@PEAUHKEY__@@K@Z" ; netui0.dll
"??0REG_KEY@@QEAA@PEAUHKEY__@@PEBGK@Z" ; netui0.dll
"??0REG_KEY_CREATE_STRUCT@@QEAA@XZ" ; netui0.dll
"??0REG_KEY_INFO_STRUCT@@QEAA@XZ" ; netui0.dll
"??0REG_VALUE_INFO_STRUCT@@QEAA@XZ" ; netui0.dll
"??0RESOURCE_STR@@QEAA@JPEAUHINSTANCE__@@@Z" ; netui0.dll
"??0RITER_DL@@QEAA@AEBV0@@Z" ; netui0.dll
"??0RITER_DL@@QEAA@PEAVDLIST@@@Z" ; netui0.dll
"??0SLIST@@QEAA@XZ" ; netui0.dll
"??0SLIST_OF_DIR_BLOCK@@QEAA@H@Z" ; netui0.dll
"??0SLIST_OF_NLS_STR@@QEAA@H@Z" ; netui0.dll
"??0SL_NODE@@QEAA@PEAV0@PEAX@Z" ; netui0.dll
"??0STRLIST@@QEAA@AEBVNLS_STR@@0H@Z" ; netui0.dll
"??0STRLIST@@QEAA@H@Z" ; netui0.dll
"??0STRLIST@@QEAA@PEBG0H@Z" ; netui0.dll
"??0TCHAR_STR@@QEAA@G@Z" ; netui0.dll
"??0TCHAR_STR_IMPL@@QEAA@G@Z" ; netui0.dll
"??0TREE@@QEAA@PEAX@Z" ; netui0.dll
"??0UATOM@@QEAA@AEAVNLS_STR@@@Z" ; netui0.dll
"??0UATOM_LINKAGE@@QEAA@XZ" ; netui0.dll
"??0UATOM_MANAGER@@AEAA@XZ" ; netui0.dll
"??0UATOM_REGION@@QEAA@XZ" ; netui0.dll
"??0W32_DIR_BLOCK@@QEAA@XZ" ; netui0.dll
"??0W32_FS_ENUM@@QEAA@PEBG0W4FILE_TYPE@@HI@Z" ; netui0.dll
"??0WCHAR_STRING@@QEAA@PEBDI@Z" ; netui0.dll
"??0WIN_TIME@@QEAA@H@Z" ; netui0.dll
"??0WIN_TIME@@QEAA@KH@Z" ; netui0.dll
"??0WIN_TIME@@QEAA@U_FILETIME@@H@Z" ; netui0.dll
"??1ALIAS_STR@@QEAA@XZ" ; netui0.dll
"??1BITFIELD@@QEAA@XZ" ; netui0.dll
"??1BUFFER@@QEAA@XZ" ; netui0.dll
"??1CHAR_STRING@@QEAA@XZ" ; netui0.dll
"??1DBGSTREAM@@QEAA@XZ" ; netui0.dll
"??1DEC_STR@@QEAA@XZ" ; netui0.dll
"??1DFSITER_TREE@@QEAA@XZ" ; netui0.dll
"??1DIR_BLOCK@@UEAA@XZ" ; netui0.dll
"??1DLIST@@QEAA@XZ" ; netui0.dll
"??1ELAPSED_TIME_STR@@QEAA@XZ" ; netui0.dll
"??1FS_ENUM@@UEAA@XZ" ; netui0.dll
"??1HEAP_BASE@@IEAA@XZ" ; netui0.dll
"??1ITER_DL@@QEAA@XZ" ; netui0.dll
"??1ITER_SL@@QEAA@XZ" ; netui0.dll
"??1ITER_SL_DIR_BLOCK@@QEAA@XZ" ; netui0.dll
"??1ITER_SL_NLS_STR@@QEAA@XZ" ; netui0.dll
"??1ITER_STRLIST@@QEAA@XZ" ; netui0.dll
"??1LOGON_HOURS_SETTING@@QEAA@XZ" ; netui0.dll
"??1NLS_STR@@QEAA@XZ" ; netui0.dll
"??1REG_KEY@@QEAA@XZ" ; netui0.dll
"??1REG_KEY_INFO_STRUCT@@QEAA@XZ" ; netui0.dll
"??1REG_VALUE_INFO_STRUCT@@QEAA@XZ" ; netui0.dll
"??1RITER_DL@@QEAA@XZ" ; netui0.dll
"??1SLIST@@QEAA@XZ" ; netui0.dll
"??1SLIST_OF_DIR_BLOCK@@QEAA@XZ" ; netui0.dll
"??1SLIST_OF_NLS_STR@@QEAA@XZ" ; netui0.dll
"??1STRLIST@@QEAA@XZ" ; netui0.dll
"??1TCHAR_STR@@QEAA@XZ" ; netui0.dll
"??1TREE@@QEAA@XZ" ; netui0.dll
"??1UATOM@@QEAA@XZ" ; netui0.dll
"??1UATOM_LINKAGE@@QEAA@XZ" ; netui0.dll
"??1UATOM_MANAGER@@AEAA@XZ" ; netui0.dll
"??1UATOM_REGION@@QEAA@XZ" ; netui0.dll
"??1W32_DIR_BLOCK@@UEAA@XZ" ; netui0.dll
"??1W32_FS_ENUM@@UEAA@XZ" ; netui0.dll
"??1WCHAR_STRING@@QEAA@XZ" ; netui0.dll
"??2ALLOC_BASE@@SAPEAX_K@Z" ; netui0.dll
"??2ALLOC_BASE@@SAPEAX_KPEAX@Z" ; netui0.dll
"??3ALLOC_BASE@@SAXPEAX@Z" ; netui0.dll
"??4ALIAS_STR@@QEAAAEBV0@AEBVNLS_STR@@@Z" ; netui0.dll
"??4ALIAS_STR@@QEAAAEBV0@PEBG@Z" ; netui0.dll
"??4ALLOC_STR@@QEAAAEAV0@PEBG@Z" ; netui0.dll
"??4BITFIELD@@QEAAAEAV0@AEBV0@@Z" ; netui0.dll
"??4BITFIELD@@QEAAAEAV0@G@Z" ; netui0.dll
"??4BITFIELD@@QEAAAEAV0@K@Z" ; netui0.dll
"??4ISTR@@QEAAAEAV0@AEBV0@@Z" ; netui0.dll
"??4NLS_STR@@QEAAAEAV0@AEBV0@@Z" ; netui0.dll
"??4NLS_STR@@QEAAAEAV0@PEBG@Z" ; netui0.dll
"??6DBGSTREAM@@QEAAAEAV0@D@Z" ; netui0.dll
"??6DBGSTREAM@@QEAAAEAV0@F@Z" ; netui0.dll
"??6DBGSTREAM@@QEAAAEAV0@G@Z" ; netui0.dll
"??6DBGSTREAM@@QEAAAEAV0@H@Z" ; netui0.dll
"??6DBGSTREAM@@QEAAAEAV0@I@Z" ; netui0.dll
"??6DBGSTREAM@@QEAAAEAV0@J@Z" ; netui0.dll
"??6DBGSTREAM@@QEAAAEAV0@K@Z" ; netui0.dll
"??6DBGSTREAM@@QEAAAEAV0@PEBD@Z" ; netui0.dll
"??6DBGSTREAM@@QEAAAEAV0@PEBG@Z" ; netui0.dll
"??6DBGSTREAM@@QEAAAEAV0@W4DBGSTR_SPECIAL@@@Z" ; netui0.dll
"??6DBGSTREAM@@QEAAAEAV0@_J@Z" ; netui0.dll
"??6DBGSTREAM@@QEAAAEAV0@_K@Z" ; netui0.dll
"??7BASE@@QEBAHXZ" ; netui0.dll
"??8BITFIELD@@QEAAHAEAV0@@Z" ; netui0.dll
"??8BITFIELD@@QEBAHG@Z" ; netui0.dll
"??8BITFIELD@@QEBAHK@Z" ; netui0.dll
"??8ISTR@@QEBAHAEBV0@@Z" ; netui0.dll
"??8NLS_STR@@QEBAHAEBV0@@Z" ; netui0.dll
"??9NLS_STR@@QEBAHAEBV0@@Z" ; netui0.dll
"??BBITFIELD@@QEAAGXZ" ; netui0.dll
"??BBITFIELD@@QEAAKXZ" ; netui0.dll
"??BNLS_STR@@QEBAPEBGXZ" ; netui0.dll
"??BREG_KEY@@QEBAPEAUHKEY__@@XZ" ; netui0.dll
"??BTCHAR_STR@@QEAAAEBVALIAS_STR@@XZ" ; netui0.dll
"??EISTR@@QEAAAEAV0@XZ" ; netui0.dll
"??GISTR@@QEBAHAEBV0@@Z" ; netui0.dll
"??IBITFIELD@@QEAAHAEBV0@@Z" ; netui0.dll
"??MISTR@@QEBAHAEBV0@@Z" ; netui0.dll
"??OISTR@@QEBAHAEBV0@@Z" ; netui0.dll
"??RITER_SL_NLS_STR@@QEAAPEAVNLS_STR@@XZ" ; netui0.dll
"??YISTR@@QEAAXH@Z" ; netui0.dll
"??YNLS_STR@@QEAAAEAV0@AEBV0@@Z" ; netui0.dll
"??_4BITFIELD@@QEAAXAEBV0@@Z" ; netui0.dll
"??_4BITFIELD@@QEAAXG@Z" ; netui0.dll
"??_4BITFIELD@@QEAAXK@Z" ; netui0.dll
"??_5BITFIELD@@QEAAXAEBV0@@Z" ; netui0.dll
"??_5BITFIELD@@QEAAXG@Z" ; netui0.dll
"??_5BITFIELD@@QEAAXK@Z" ; netui0.dll
"??_H@YAXPEAX_KHP6APEAX0@Z@Z" ; netui0.dll
"??_I@YAXPEAX_KHP6AX0@Z@Z" ; netui0.dll
"??_J@YAXPEAX_KHP6APEAX0@Z@Z" ; netui0.dll
"?Add@DLIST@@QEAAJPEAX@Z" ; netui0.dll
"?Add@SLIST@@QEAAJPEAX@Z" ; netui0.dll
"?Add@SLIST_OF_DIR_BLOCK@@QEAAJPEBVDIR_BLOCK@@@Z" ; netui0.dll
"?Add@SLIST_OF_NLS_STR@@QEAAJPEBVNLS_STR@@@Z" ; netui0.dll
"?Alloc@NLS_STR@@AEAAHI@Z" ; netui0.dll
"?Alloc@ONE_SHOT_HEAP@@QEAAPEAEI@Z" ; netui0.dll
"?AllocBitfield@BITFIELD@@IEAAJI@Z" ; netui0.dll
"?Append@DLIST@@QEAAJPEAX@Z" ; netui0.dll
"?Append@NLS_STR@@QEAAJAEBV1@@Z" ; netui0.dll
"?Append@SLIST@@QEAAJPEAX@Z" ; netui0.dll
"?Append@SLIST_OF_NLS_STR@@QEAAJPEBVNLS_STR@@@Z" ; netui0.dll
"?AppendChar@NLS_STR@@QEAAJG@Z" ; netui0.dll
"?BreakOut@TREE@@QEAAPEAV1@XZ" ; netui0.dll
"?BumpIters@DLIST@@IEAAXPEAVDL_NODE@@@Z" ; netui0.dll
"?BumpIters@SLIST@@IEAAXPEAVSL_NODE@@@Z" ; netui0.dll
"?CheckIstr@NLS_STR@@AEBAXAEBVISTR@@@Z" ; netui0.dll
"?CheckIter@DLIST@@IEAAHPEAVITER_L@@@Z" ; netui0.dll
"?CheckIter@SLIST@@IEAAHPEAVITER_SL@@@Z" ; netui0.dll
"?CheckLocalComm@@YAJPEBG@Z" ; netui0.dll
"?CheckLocalDrive@@YAJPEBG@Z" ; netui0.dll
"?CheckLocalLpt@@YAJPEBG@Z" ; netui0.dll
"?CheckUnavailDevice@@YAJPEBGPEAGPEAH@Z" ; netui0.dll
"?Clear@SLIST_OF_DIR_BLOCK@@QEAAXXZ" ; netui0.dll
"?Clear@SLIST_OF_NLS_STR@@QEAAXXZ" ; netui0.dll
"?Close@REG_KEY@@AEAAJXZ" ; netui0.dll
"?Command@FMX@@AEBA_KII_J@Z" ; netui0.dll
"?Compare@NLS_STR@@QEBAHPEBV1@@Z" ; netui0.dll
"?ConvertFromGMT@LOGON_HOURS_SETTING@@QEAAHXZ" ; netui0.dll
"?ConvertToGMT@LOGON_HOURS_SETTING@@QEAAHXZ" ; netui0.dll
"?ConvertToHoursPerWeek@LOGON_HOURS_SETTING@@QEAAJXZ" ; netui0.dll
"?CopyFrom@NLS_STR@@QEAAJAEBV1@@Z" ; netui0.dll
"?CopyFrom@NLS_STR@@QEAAJPEBGI@Z" ; netui0.dll
"?CopyTo@NLS_STR@@QEBAJPEAGI@Z" ; netui0.dll
"?CreateChild@REG_KEY@@AEBAJPEAV1@AEBVNLS_STR@@PEAVREG_KEY_CREATE_STRUCT@@@Z" ; netui0.dll
"?CreateDirBlock@W32_FS_ENUM@@MEAAPEAVDIR_BLOCK@@XZ" ; netui0.dll
"?CreateList@STRLIST@@AEAAXPEBG0@Z" ; netui0.dll
"?DelSubStr@NLS_STR@@AEAAXAEAVISTR@@I@Z" ; netui0.dll
"?DelSubStr@NLS_STR@@QEAAXAEAVISTR@@@Z" ; netui0.dll
"?DelSubStr@NLS_STR@@QEAAXAEAVISTR@@AEBV2@@Z" ; netui0.dll
"?Delete@REG_KEY@@QEAAJXZ" ; netui0.dll
"?DeleteValue@REG_KEY@@QEAAJAEBVNLS_STR@@@Z" ; netui0.dll
"?Deregister@DLIST@@IEAAXPEAVITER_L@@@Z" ; netui0.dll
"?Deregister@SLIST@@IEAAXPEAVITER_SL@@@Z" ; netui0.dll
"?DoBreadthFirstDirs@DIR_BLOCK@@QEBAHXZ" ; netui0.dll
"?EndOfLine@OUTPUT_TO_AUX@@UEAAXXZ" ; netui0.dll
"?EndOfLine@OUTPUT_TO_NUL@@EEAAXXZ" ; netui0.dll
"?EndOfLine@OUTPUT_TO_STDERR@@UEAAXXZ" ; netui0.dll
"?EndOfLine@OUTPUT_TO_STDOUT@@UEAAXXZ" ; netui0.dll
"?FillOut@BUFFER@@QEAAXXZ" ; netui0.dll
"?FindFirst@W32_FS_ENUM@@MEAAJPEAVDIR_BLOCK@@AEBVNLS_STR@@I@Z" ; netui0.dll
"?FindNext@W32_FS_ENUM@@MEAAJPEAVDIR_BLOCK@@I@Z" ; netui0.dll
"?FindPrev@SLIST@@IEAAPEAVSL_NODE@@PEAV2@@Z" ; netui0.dll
"?Flush@REG_KEY@@QEAAJXZ" ; netui0.dll
"?Fwd@UATOM_LINKAGE@@QEAAPEAVUATOM@@XZ" ; netui0.dll
"?GetNewStorage@BUFFER@@AEAAJI@Z" ; netui0.dll
"?GetSelItem@@YAJPEAUHWND__@@IPEAVNLS_STR@@PEAH@Z" ; netui0.dll
"?GetSelItem@@YAJPEAUHWND__@@PEAVNLS_STR@@HPEAH@Z" ; netui0.dll
"?HandlePrefix@REG_KEY@@CAHAEBVNLS_STR@@PEAPEAUHKEY__@@PEAV2@2@Z" ; netui0.dll
"?HasFindFirstBeenCalled@DIR_BLOCK@@QEAAHXZ" ; netui0.dll
"?HeapResidueIter@@YAXIH@Z" ; netui0.dll
"?I_AddItem@HEAP_BASE@@IEAAJPEAX@Z" ; netui0.dll
"?I_RemoveTopItem@HEAP_BASE@@IEAAPEAXXZ" ; netui0.dll
"?IncVers@NLS_STR@@IEAAXXZ" ; netui0.dll
"?Init@NUM_NLS_STR@@SAXXZ" ; netui0.dll
"?Init@UATOM_LINKAGE@@QEAAXXZ" ; netui0.dll
"?Initialize@UATOM_MANAGER@@SAJXZ" ; netui0.dll
"?InitializeVers@NLS_STR@@IEAAXXZ" ; netui0.dll
"?Insert@DLIST@@QEAAJPEAXAEAVITER_DL@@@Z" ; netui0.dll
"?Insert@DLIST@@QEAAJPEAXAEAVRITER_DL@@@Z" ; netui0.dll
"?Insert@SLIST@@QEAAJPEAXAEAVITER_SL@@@Z" ; netui0.dll
"?InsertParams@NLS_STR@@QEAAJAEBV1@00@Z" ; netui0.dll
"?InsertParams@NLS_STR@@QEAAJIPEBV1@ZZ" ; netui0.dll
"?InsertParams@NLS_STR@@QEAAJPEAPEBV1@@Z" ; netui0.dll
"?InsertParamsAux@NLS_STR@@AEAAJPEAPEBV1@IHPEAI@Z" ; netui0.dll
"?InsertStr@NLS_STR@@QEAAHAEBV1@AEAVISTR@@@Z" ; netui0.dll
"?Is24Hour@INTL_PROFILE@@QEBAHXZ" ; netui0.dll
"?IsAllocated@BITFIELD@@IEBAHXZ" ; netui0.dll
"?IsBitSet@BITFIELD@@QEBAHI@Z" ; netui0.dll
"?IsDayLZero@INTL_PROFILE@@QEBAHXZ" ; netui0.dll
"?IsDir@DIR_BLOCK@@QEAAHXZ" ; netui0.dll
"?IsHeterogeneousSelection@FMX@@QEAAHPEAH@Z" ; netui0.dll
"?IsHourLZero@INTL_PROFILE@@QEBAHXZ" ; netui0.dll
"?IsIdenticalToBits@LOGON_HOURS_SETTING@@QEBAHPEBEI@Z" ; netui0.dll
"?IsLastPos@ISTR@@QEBAHXZ" ; netui0.dll
"?IsMember@SLIST_OF_NLS_STR@@QEAAHAEBVNLS_STR@@@Z" ; netui0.dll
"?IsMonthLZero@INTL_PROFILE@@QEBAHXZ" ; netui0.dll
"?IsOwnerAlloc@NLS_STR@@QEBAHXZ" ; netui0.dll
"?IsTimePrefix@INTL_PROFILE@@QEBAHXZ" ; netui0.dll
"?IsYrCentury@INTL_PROFILE@@QEBAHXZ" ; netui0.dll
"?JoinSiblingLeft@TREE@@QEAAXPEAV1@@Z" ; netui0.dll
"?JoinSiblingRight@TREE@@QEAAXPEAV1@@Z" ; netui0.dll
"?JoinSubtreeLeft@TREE@@QEAAXPEAV1@@Z" ; netui0.dll
"?JoinSubtreeRight@TREE@@QEAAXPEAV1@@Z" ; netui0.dll
"?LeafKeyName@REG_KEY@@AEBAPEBGXZ" ; netui0.dll
"?Link@UATOM_LINKAGE@@QEAAXPEAV1@@Z" ; netui0.dll
"?Load@NLS_STR@@QEAAJJPEAUHINSTANCE__@@@Z" ; netui0.dll
"?LoadSystem@NLS_STR@@QEAAJJ@Z" ; netui0.dll
"?MakeDefault@LOGON_HOURS_SETTING@@QEAAJXZ" ; netui0.dll
"?MapCopyFrom@NLS_STR@@QEAAJPEBDI@Z" ; netui0.dll
"?MapCopyFrom@NLS_STR@@QEAAJPEBGI@Z" ; netui0.dll
"?MapCopyTo@NLS_STR@@QEBAJPEADI@Z" ; netui0.dll
"?MapCopyTo@NLS_STR@@QEBAJPEAGI@Z" ; netui0.dll
"?MapNTStatus@ERRMAP@@SAJJPEAHJ@Z" ; netui0.dll
"?NameChild@REG_KEY@@AEBAJPEAV1@AEBVNLS_STR@@@Z" ; netui0.dll
"?Next@DFSITER_TREE@@QEAAPEAXXZ" ; netui0.dll
"?Next@FS_ENUM@@QEAAHXZ" ; netui0.dll
"?Next@ITER_SL@@QEAAPEAXXZ" ; netui0.dll
"?Next@ITER_SL_DIR_BLOCK@@QEAAPEAVDIR_BLOCK@@XZ" ; netui0.dll
"?Next@ITER_SL_NLS_STR@@QEAAPEAVNLS_STR@@XZ" ; netui0.dll
"?NextBreadthFirst@FS_ENUM@@IEAAHXZ" ; netui0.dll
"?NextDepthFirst@FS_ENUM@@IEAAHXZ" ; netui0.dll
"?Normalize@WIN_TIME@@QEAAJXZ" ; netui0.dll
"?Not@BITFIELD@@QEAAXXZ" ; netui0.dll
"?OpenByName@REG_KEY@@AEAAJAEBVNLS_STR@@K@Z" ; netui0.dll
"?OpenChild@REG_KEY@@AEAAJPEAV1@AEBVNLS_STR@@KK@Z" ; netui0.dll
"?OpenParent@REG_KEY@@AEAAPEAV1@K@Z" ; netui0.dll
"?ParentName@REG_KEY@@AEBAJPEAVNLS_STR@@@Z" ; netui0.dll
"?PeekItem@HEAP_BASE@@IEBAPEAXH@Z" ; netui0.dll
"?PermitAll@LOGON_HOURS_SETTING@@QEAAJXZ" ; netui0.dll
"?PopDir@FS_ENUM@@IEAAJXZ" ; netui0.dll
"?PushDir@FS_ENUM@@IEAAJPEBG@Z" ; netui0.dll
"?QueryAMStr@INTL_PROFILE@@QEBAJPEAVNLS_STR@@@Z" ; netui0.dll
"?QueryActualSize@BUFFER@@AEAAIXZ" ; netui0.dll
"?QueryAllocSize@BITFIELD@@QEBAIXZ" ; netui0.dll
"?QueryAllocSize@NLS_STR@@QEBAIXZ" ; netui0.dll
"?QueryAnsiTextLength@NLS_STR@@QEBAIXZ" ; netui0.dll
"?QueryAttr@W32_DIR_BLOCK@@UEAAIXZ" ; netui0.dll
"?QueryBitPos@BITFIELD@@IEBAPEAEII@Z" ; netui0.dll
"?QueryBufferSize@STRLIST@@QEAAHPEAG@Z" ; netui0.dll
"?QueryByteCount@LOGON_HOURS_SETTING@@CAII@Z" ; netui0.dll
"?QueryByteCount@LOGON_HOURS_SETTING@@QEBAIXZ" ; netui0.dll
"?QueryChar@NLS_STR@@QEBAGAEBVISTR@@@Z" ; netui0.dll
"?QueryCount@BITFIELD@@QEBAIXZ" ; netui0.dll
"?QueryCurDepth@DFSITER_TREE@@IEBAIXZ" ; netui0.dll
"?QueryCurrent@DBGSTREAM@@SAAEAV1@XZ" ; netui0.dll
"?QueryCurrentDepth@FS_ENUM@@QEAAIXZ" ; netui0.dll
"?QueryCurrentDirBlock@FS_ENUM@@QEBAPEAVDIR_BLOCK@@XZ" ; netui0.dll
"?QueryCurrentTimeStamp@@YAKXZ" ; netui0.dll
"?QueryCurrentUser@REG_KEY@@SAPEAV1@K@Z" ; netui0.dll
"?QueryData@CHAR_STRING@@QEBAPEBDXZ" ; netui0.dll
"?QueryData@WCHAR_STRING@@QEBAPEBGXZ" ; netui0.dll
"?QueryDateSeparator@INTL_PROFILE@@QEBAJPEAVNLS_STR@@@Z" ; netui0.dll
"?QueryDay@WIN_TIME@@QEBAHXZ" ; netui0.dll
"?QueryDayOfWeek@WIN_TIME@@QEBAHXZ" ; netui0.dll
"?QueryDayPos@INTL_PROFILE@@QEBAHXZ" ; netui0.dll
"?QueryDirs@DIR_BLOCK@@QEAAPEAVSTRLIST@@XZ" ; netui0.dll
"?QueryDirsIter@DIR_BLOCK@@QEAAPEAVITER_STRLIST@@XZ" ; netui0.dll
"?QueryDriveInfo@FMX@@QEAAJPEAU_FMS_GETDRIVEINFOW@@@Z" ; netui0.dll
"?QueryDurationStr@INTL_PROFILE@@QEBAJHHHHPEAVNLS_STR@@@Z" ; netui0.dll
"?QueryError@BASE@@QEBAJXZ" ; netui0.dll
"?QueryError@FORWARDING_BASE@@QEBAJXZ" ; netui0.dll
"?QueryError@HUATOM@@QEBAJXZ" ; netui0.dll
"?QueryFileName@W32_DIR_BLOCK@@UEAAPEBGXZ" ; netui0.dll
"?QueryFileTime@WIN_TIME@@QEBAJPEAU_FILETIME@@@Z" ; netui0.dll
"?QueryFileTimeLocal@WIN_TIME@@QEBAJPEAU_FILETIME@@@Z" ; netui0.dll
"?QueryFirstSubtree@TREE@@QEBAPEAV1@XZ" ; netui0.dll
"?QueryFocus@FMX@@QEBAIXZ" ; netui0.dll
"?QueryHour@WIN_TIME@@QEBAHXZ" ; netui0.dll
"?QueryHourInDay@LOGON_HOURS_SETTING@@QEBAHII@Z" ; netui0.dll
"?QueryHourInWeek@LOGON_HOURS_SETTING@@QEBAHI@Z" ; netui0.dll
"?QueryHoursBlock@LOGON_HOURS_SETTING@@QEBAPEAEXZ" ; netui0.dll
"?QueryIch@ISTR@@AEBAHXZ" ; netui0.dll
"?QueryInfo@REG_KEY@@QEAAJPEAVREG_KEY_INFO_STRUCT@@@Z" ; netui0.dll
"?QueryKeyName@REG_KEY@@QEBAJPEAVNLS_STR@@@Z" ; netui0.dll
"?QueryKeyValueBinary@REG_KEY@@AEAAJPEBGPEAPEAEPEAJJPEAKK@Z" ; netui0.dll
"?QueryKeyValueLong@REG_KEY@@AEAAJPEBGPEAJPEAK@Z" ; netui0.dll
"?QueryKeyValueString@REG_KEY@@AEAAJPEBGPEAPEAGPEAVNLS_STR@@PEAKJPEAJK@Z" ; netui0.dll
"?QueryLastSubtree@TREE@@QEBAPEAV1@XZ" ; netui0.dll
"?QueryLeft@TREE@@QEBAPEAV1@XZ" ; netui0.dll
"?QueryLinked@UATOM_LINKAGE@@QEAAHXZ" ; netui0.dll
"?QueryLocalMachine@REG_KEY@@SAPEAV1@K@Z" ; netui0.dll
"?QueryLongDateString@INTL_PROFILE@@QEBAJAEBVWIN_TIME@@PEAVNLS_STR@@@Z" ; netui0.dll
"?QueryMaxDepth@DFSITER_TREE@@IEBAIXZ" ; netui0.dll
"?QueryMaxDepth@FS_ENUM@@QEAAIXZ" ; netui0.dll
"?QueryMaxNonAllocBitCount@BITFIELD@@IEBAIXZ" ; netui0.dll
"?QueryMinute@WIN_TIME@@QEBAHXZ" ; netui0.dll
"?QueryMonth@WIN_TIME@@QEBAHXZ" ; netui0.dll
"?QueryMonthPos@INTL_PROFILE@@QEBAHXZ" ; netui0.dll
"?QueryName@FS_ENUM@@QEBAJPEAVNLS_STR@@@Z" ; netui0.dll
"?QueryName@REG_KEY@@QEBAJPEAVNLS_STR@@H@Z" ; netui0.dll
"?QueryNls@HUATOM@@QEBAPEBVNLS_STR@@XZ" ; netui0.dll
"?QueryNode@DFSITER_TREE@@IEBAPEBVTREE@@XZ" ; netui0.dll
"?QueryNumChar@NLS_STR@@QEBAIXZ" ; netui0.dll
"?QueryNumElem@DLIST@@QEAAIXZ" ; netui0.dll
"?QueryNumElem@SLIST@@QEAAIXZ" ; netui0.dll
"?QueryNumElem@TREE@@QEBAIXZ" ; netui0.dll
"?QueryOffset@BITFIELD@@QEBAII@Z" ; netui0.dll
"?QueryPMStr@INTL_PROFILE@@QEBAJPEAVNLS_STR@@@Z" ; netui0.dll
"?QueryParent@TREE@@QEBAPEAV1@XZ" ; netui0.dll
"?QueryPch@NLS_STR@@QEBAPEBGAEBVISTR@@@Z" ; netui0.dll
"?QueryPch@NLS_STR@@QEBAPEBGXZ" ; netui0.dll
"?QueryProp@ITER_SL@@QEAAPEAXXZ" ; netui0.dll
"?QueryProp@TREE@@QEBAPEAXXZ" ; netui0.dll
"?QueryPtr@BUFFER@@QEBAPEAEXZ" ; netui0.dll
"?QueryRight@TREE@@QEBAPEAV1@XZ" ; netui0.dll
"?QuerySearchAttr@FS_ENUM@@IEBAIXZ" ; netui0.dll
"?QuerySecond@WIN_TIME@@QEBAHXZ" ; netui0.dll
"?QuerySelCount@FMX@@QEBAIXZ" ; netui0.dll
"?QuerySelection@FMX@@QEAAJHPEAU_FMS_GETFILESELW@@H@Z" ; netui0.dll
"?QueryShortDateString@INTL_PROFILE@@QEBAJAEBVWIN_TIME@@PEAVNLS_STR@@@Z" ; netui0.dll
"?QuerySize@BUFFER@@QEBAIXZ" ; netui0.dll
"?QueryStartNode@DFSITER_TREE@@IEBAPEBVTREE@@XZ" ; netui0.dll
"?QueryString@ISTR@@AEBAPEBVNLS_STR@@XZ" ; netui0.dll
"?QuerySubStr@NLS_STR@@AEBAPEAV1@AEBVISTR@@I@Z" ; netui0.dll
"?QuerySubStr@NLS_STR@@QEBAPEAV1@AEBVISTR@@0@Z" ; netui0.dll
"?QuerySubStr@NLS_STR@@QEBAPEAV1@AEBVISTR@@@Z" ; netui0.dll
"?QueryText@HUATOM@@QEBAPEBGXZ" ; netui0.dll
"?QueryTextLength@NLS_STR@@QEBAIXZ" ; netui0.dll
"?QueryTextSize@NLS_STR@@QEBAIXZ" ; netui0.dll
"?QueryTime@WIN_TIME@@QEBAJPEAK@Z" ; netui0.dll
"?QueryTimeLocal@WIN_TIME@@QEBAJPEAK@Z" ; netui0.dll
"?QueryTimeSeparator@INTL_PROFILE@@QEBAJPEAVNLS_STR@@@Z" ; netui0.dll
"?QueryTimeString@INTL_PROFILE@@QEBAJAEBVWIN_TIME@@PEAVNLS_STR@@@Z" ; netui0.dll
"?QueryUnitsPerWeek@LOGON_HOURS_SETTING@@QEBAIXZ" ; netui0.dll
"?QueryValue@REG_KEY@@QEAAJPEAVREG_VALUE_INFO_STRUCT@@@Z" ; netui0.dll
"?QueryValue@REG_KEY@@QEAAJPEBGPEAK1@Z" ; netui0.dll
"?QueryValue@REG_KEY@@QEAAJPEBGPEAPEAEPEAJJPEAK@Z" ; netui0.dll
"?QueryValue@REG_KEY@@QEAAJPEBGPEAPEAGKPEAKH@Z" ; netui0.dll
"?QueryValue@REG_KEY@@QEAAJPEBGPEAPEAVSTRLIST@@PEAK@Z" ; netui0.dll
"?QueryValue@REG_KEY@@QEAAJPEBGPEAVNLS_STR@@KPEAKH@Z" ; netui0.dll
"?QueryYear@WIN_TIME@@QEBAHXZ" ; netui0.dll
"?QueryYearPos@INTL_PROFILE@@QEBAHXZ" ; netui0.dll
"?Realloc@NLS_STR@@AEAAHI@Z" ; netui0.dll
"?ReallocStorage@BUFFER@@AEAAJI@Z" ; netui0.dll
"?Refresh@FMX@@QEAAXXZ" ; netui0.dll
"?Refresh@INTL_PROFILE@@QEAAJXZ" ; netui0.dll
"?Register@DLIST@@IEAAXPEAVITER_L@@@Z" ; netui0.dll
"?Register@SLIST@@IEAAXPEAVITER_SL@@@Z" ; netui0.dll
"?Reload@FMX@@QEAAXXZ" ; netui0.dll
"?Remove@DLIST@@QEAAPEAXAEAVITER_DL@@@Z" ; netui0.dll
"?Remove@DLIST@@QEAAPEAXAEAVRITER_DL@@@Z" ; netui0.dll
"?Remove@SLIST@@QEAAPEAXAEAVITER_SL@@@Z" ; netui0.dll
"?Remove@SLIST_OF_DIR_BLOCK@@QEAAPEAVDIR_BLOCK@@AEAVITER_SL_DIR_BLOCK@@@Z" ; netui0.dll
"?Remove@SLIST_OF_NLS_STR@@QEAAPEAVNLS_STR@@AEAV2@@Z" ; netui0.dll
"?Render@OUTPUT_TO_AUX@@UEAAXPEBG@Z" ; netui0.dll
"?Render@OUTPUT_TO_AUX@@UEAAXPEBGI@Z" ; netui0.dll
"?Render@OUTPUT_TO_NUL@@EEAAXPEBG@Z" ; netui0.dll
"?Render@OUTPUT_TO_NUL@@EEAAXPEBGI@Z" ; netui0.dll
"?Render@OUTPUT_TO_STDERR@@UEAAXPEBG@Z" ; netui0.dll
"?Render@OUTPUT_TO_STDERR@@UEAAXPEBGI@Z" ; netui0.dll
"?Render@OUTPUT_TO_STDOUT@@UEAAXPEBG@Z" ; netui0.dll
"?Render@OUTPUT_TO_STDOUT@@UEAAXPEBGI@Z" ; netui0.dll
"?ReplSubStr@NLS_STR@@AEAAXAEBV1@AEAVISTR@@I@Z" ; netui0.dll
"?ReplSubStr@NLS_STR@@QEAAXAEBV1@AEAVISTR@@@Z" ; netui0.dll
"?ReplSubStr@NLS_STR@@QEAAXAEBV1@AEAVISTR@@AEBV2@@Z" ; netui0.dll
"?ReportError@BASE@@IEAAXJ@Z" ; netui0.dll
"?ReportLastError@FS_ENUM@@IEAAXJ@Z" ; netui0.dll
"?Reset@DFSITER_TREE@@QEAAXXZ" ; netui0.dll
"?Reset@ISTR@@QEAAXXZ" ; netui0.dll
"?Reset@ITER_DL@@QEAAXXZ" ; netui0.dll
"?Reset@ITER_SL@@QEAAXXZ" ; netui0.dll
"?Reset@NLS_STR@@QEAAHXZ" ; netui0.dll
"?Reset@RITER_DL@@QEAAXXZ" ; netui0.dll
"?ResetError@BASE@@IEAAXXZ" ; netui0.dll
"?Resize@BITFIELD@@QEAAJI@Z" ; netui0.dll
"?Resize@BUFFER@@QEAAJI@Z" ; netui0.dll
"?RtlOemUpcase@NLS_STR@@QEAAJXZ" ; netui0.dll
"?ScanLongDate@INTL_PROFILE@@AEBAJPEAVNLS_STR@@@Z" ; netui0.dll
"?Set@DL_NODE@@QEAAXPEAV1@0PEAX@Z" ; netui0.dll
"?Set@LOGON_HOURS_SETTING@@QEAAJAEBV1@@Z" ; netui0.dll
"?Set@SL_NODE@@QEAAXPEAV1@PEAX@Z" ; netui0.dll
"?SetAllBits@BITFIELD@@QEAAXW4BITVALUES@@@Z" ; netui0.dll
"?SetAllocCount@HEAP_BASE@@QEAAJH@Z" ; netui0.dll
"?SetBit@BITFIELD@@QEAAXIW4BITVALUES@@@Z" ; netui0.dll
"?SetCurDepth@DFSITER_TREE@@AEAAXI@Z" ; netui0.dll
"?SetCurrent@DBGSTREAM@@SAXPEAV1@@Z" ; netui0.dll
"?SetCurrentDirBlock@FS_ENUM@@IEAAXPEAVDIR_BLOCK@@@Z" ; netui0.dll
"?SetCurrentTime@WIN_TIME@@QEAAJXZ" ; netui0.dll
"?SetDoBreadthFirstDirs@DIR_BLOCK@@QEAAXH@Z" ; netui0.dll
"?SetFindFirstFlag@DIR_BLOCK@@QEAAXH@Z" ; netui0.dll
"?SetFirstSubtree@TREE@@AEAAXPEAV1@@Z" ; netui0.dll
"?SetFromBits@LOGON_HOURS_SETTING@@QEAAJPEBEI@Z" ; netui0.dll
"?SetGMT@WIN_TIME@@QEAAJH@Z" ; netui0.dll
"?SetHourInDay@LOGON_HOURS_SETTING@@QEAAJHII@Z" ; netui0.dll
"?SetHourInWeek@LOGON_HOURS_SETTING@@QEAAJHI@Z" ; netui0.dll
"?SetIch@ISTR@@AEAAXH@Z" ; netui0.dll
"?SetItem@HEAP_BASE@@IEAAXHPEAX@Z" ; netui0.dll
"?SetIters@DLIST@@IEAAXPEAVDL_NODE@@@Z" ; netui0.dll
"?SetIters@SLIST@@IEAAXPEAVSL_NODE@@0@Z" ; netui0.dll
"?SetIters@SLIST@@IEAAXPEAVSL_NODE@@@Z" ; netui0.dll
"?SetKeyValueBinary@REG_KEY@@AEAAJPEBGPEBEJKK@Z" ; netui0.dll
"?SetKeyValueLong@REG_KEY@@AEAAJPEBGJK@Z" ; netui0.dll
"?SetKeyValueString@REG_KEY@@AEAAJPEBG0KJK@Z" ; netui0.dll
"?SetLeft@TREE@@AEAAXPEAV1@@Z" ; netui0.dll
"?SetMaxDepth@DFSITER_TREE@@AEAAXI@Z" ; netui0.dll
"?SetNode@DFSITER_TREE@@AEAAXPEBVTREE@@@Z" ; netui0.dll
"?SetParent@TREE@@AEAAXPEAV1@@Z" ; netui0.dll
"?SetProp@TREE@@QEAAXQEAX@Z" ; netui0.dll
"?SetRight@TREE@@AEAAXPEAV1@@Z" ; netui0.dll
"?SetSink@DBGSTREAM@@QEAAXPEAVOUTPUTSINK@@@Z" ; netui0.dll
"?SetStartNode@DFSITER_TREE@@AEAAXPEBVTREE@@@Z" ; netui0.dll
"?SetTime@WIN_TIME@@QEAAJK@Z" ; netui0.dll
"?SetTime@WIN_TIME@@QEAAJU_FILETIME@@@Z" ; netui0.dll
"?SetTimeLocal@WIN_TIME@@QEAAJK@Z" ; netui0.dll
"?SetTimeLocal@WIN_TIME@@QEAAJU_FILETIME@@@Z" ; netui0.dll
"?SetValue@REG_KEY@@QEAAJPEAVREG_VALUE_INFO_STRUCT@@@Z" ; netui0.dll
"?SetValue@REG_KEY@@QEAAJPEBG0KPEBKH@Z" ; netui0.dll
"?SetValue@REG_KEY@@QEAAJPEBGKPEBK@Z" ; netui0.dll
"?SetValue@REG_KEY@@QEAAJPEBGPEBEJPEBK@Z" ; netui0.dll
"?SetValue@REG_KEY@@QEAAJPEBGPEBVNLS_STR@@PEBKH@Z" ; netui0.dll
"?SetValue@REG_KEY@@QEAAJPEBGPEBVSTRLIST@@PEBK@Z" ; netui0.dll
"?ShouldThisFileBeIncluded@FS_ENUM@@IEBAHI@Z" ; netui0.dll
"?Terminate@UATOM_MANAGER@@SAJXZ" ; netui0.dll
"?Tokenize@UATOM_MANAGER@@AEAAPEAVUATOM@@PEBGH@Z" ; netui0.dll
"?Trim@BUFFER@@QEAAXXZ" ; netui0.dll
"?Trim@HEAP_BASE@@QEAAXXZ" ; netui0.dll
"?UIAssertCommand@@YAXPEBD@Z" ; netui0.dll
"?UIAssertHlp@@YAXPEBD0I@Z" ; netui0.dll
"?UIAssertHlp@@YAXPEBDI@Z" ; netui0.dll
"?Unlink@DLIST@@IEAAPEAXPEAVDL_NODE@@@Z" ; netui0.dll
"?Unlink@TREE@@IEAAXXZ" ; netui0.dll
"?Unlink@UATOM_LINKAGE@@QEAAXXZ" ; netui0.dll
"?UpdateIstr@NLS_STR@@AEBAXPEAVISTR@@@Z" ; netui0.dll
"?WriteToBuffer@STRLIST@@QEAAHPEAGH0@Z" ; netui0.dll
"?_DebugPrint@DLIST@@QEBAXXZ" ; netui0.dll
"?_DebugPrint@SLIST@@QEBAXXZ" ; netui0.dll
"?_DebugPrint@TREE@@QEBAXXZ" ; netui0.dll
"?_IsOwnerAlloc@NLS_STR@@QEBAHXZ" ; netui0.dll
"?_QueryAllocSize@NLS_STR@@QEBAIXZ" ; netui0.dll
"?_QueryPch@NLS_STR@@QEBAPEBGXZ" ; netui0.dll
"?_QueryTextLength@NLS_STR@@QEBAIXZ" ; netui0.dll
"?_ReportError@BASE@@IEAAXJ@Z" ; netui0.dll
"?_stricmp@NLS_STR@@QEBAHAEBV1@@Z" ; netui0.dll
"?_stricmp@NLS_STR@@QEBAHAEBV1@AEBVISTR@@1@Z" ; netui0.dll
"?_stricmp@NLS_STR@@QEBAHAEBV1@AEBVISTR@@@Z" ; netui0.dll
"?_strnicmp@NLS_STR@@QEBAHAEBV1@AEBVISTR@@11@Z" ; netui0.dll
"?_strnicmp@NLS_STR@@QEBAHAEBV1@AEBVISTR@@1@Z" ; netui0.dll
"?_strnicmp@NLS_STR@@QEBAHAEBV1@AEBVISTR@@@Z" ; netui0.dll
"?_strupr@NLS_STR@@QEAAAEAV1@XZ" ; netui0.dll
"?atoi@NLS_STR@@QEBAHAEBVISTR@@@Z" ; netui0.dll
"?atoi@NLS_STR@@QEBAHXZ" ; netui0.dll
"?atol@NLS_STR@@QEBAJAEBVISTR@@@Z" ; netui0.dll
"?atol@NLS_STR@@QEBAJXZ" ; netui0.dll
"?atoul@NLS_STR@@QEBAKAEBVISTR@@@Z" ; netui0.dll
"?atoul@NLS_STR@@QEBAKXZ" ; netui0.dll
"?strcat@NLS_STR@@QEAAAEAV1@AEBV1@@Z" ; netui0.dll
"?strchr@NLS_STR@@QEBAHPEAVISTR@@G@Z" ; netui0.dll
"?strchr@NLS_STR@@QEBAHPEAVISTR@@GAEBV2@@Z" ; netui0.dll
"?strcmp@NLS_STR@@QEBAHAEBV1@@Z" ; netui0.dll
"?strcmp@NLS_STR@@QEBAHAEBV1@AEBVISTR@@1@Z" ; netui0.dll
"?strcmp@NLS_STR@@QEBAHAEBV1@AEBVISTR@@@Z" ; netui0.dll
"?strcpy@@YAPEAGPEAGAEBVNLS_STR@@@Z" ; netui0.dll
"?strcspn@NLS_STR@@QEBAHPEAVISTR@@AEBV1@@Z" ; netui0.dll
"?strcspn@NLS_STR@@QEBAHPEAVISTR@@AEBV1@AEBV2@@Z" ; netui0.dll
"?strlen@NLS_STR@@QEBAIXZ" ; netui0.dll
"?strncmp@NLS_STR@@QEBAHAEBV1@AEBVISTR@@11@Z" ; netui0.dll
"?strncmp@NLS_STR@@QEBAHAEBV1@AEBVISTR@@1@Z" ; netui0.dll
"?strncmp@NLS_STR@@QEBAHAEBV1@AEBVISTR@@@Z" ; netui0.dll
"?strrchr@NLS_STR@@QEBAHPEAVISTR@@G@Z" ; netui0.dll
"?strrchr@NLS_STR@@QEBAHPEAVISTR@@GAEBV2@@Z" ; netui0.dll
"?strspn@NLS_STR@@QEBAHPEAVISTR@@AEBV1@@Z" ; netui0.dll
"?strspn@NLS_STR@@QEBAHPEAVISTR@@AEBV1@AEBV2@@Z" ; netui0.dll
"?strstr@NLS_STR@@QEBAHPEAVISTR@@AEBV1@@Z" ; netui0.dll
"?strstr@NLS_STR@@QEBAHPEAVISTR@@AEBV1@AEBV2@@Z" ; netui0.dll
"?vNext@ITER_DL@@UEAAPEAXXZ" ; netui0.dll
"?vNext@RITER_DL@@UEAAPEAXXZ" ; netui0.dll
"InitCompareParam" ; netui0.dll
"NETUI_InitIsDBCS" ; netui0.dll
"NETUI_IsDBCS" ; netui0.dll
"NETUI_strcmp" ; netui0.dll
"NETUI_stricmp" ; netui0.dll
"NETUI_strncmp" ; netui0.dll
"NETUI_strncmp2" ; netui0.dll
"NETUI_strnicmp" ; netui0.dll
"NETUI_strnicmp2" ; netui0.dll
"QueryNocaseCompareParam" ; netui0.dll
"QueryStdCompareParam" ; netui0.dll
"QueryUserDefaultLCID" ; netui0.dll
"UserPreferenceQuery" ; netui0.dll
"UserPreferenceQueryBool" ; netui0.dll
"UserPreferenceSet" ; netui0.dll
"UserPreferenceSetBool" ; netui0.dll
"UserProfileEnum" ; netui0.dll
"UserProfileFree" ; netui0.dll
"UserProfileInit" ; netui0.dll
"UserProfileQuery" ; netui0.dll
"UserProfileRead" ; netui0.dll
"UserProfileSet" ; netui0.dll
"UserProfileWrite" ; netui0.dll
