LIBRARY "netui1.dll"
EXPORTS
"??0ADMIN_AUTHORITY@@QEAA@PEBGKKKKH@Z" ; netui1.dll
"??0ALIAS_ENUM@@QEAA@AEAVSAM_DOMAIN@@I@Z" ; netui1.dll
"??0ALIAS_ENUM_ITER@@QEAA@AEAVALIAS_ENUM@@@Z" ; netui1.dll
"??0ALIAS_ENUM_OBJ@@QEAA@XZ" ; netui1.dll
"??0ALIAS_STR@@QEAA@PEBG@Z" ; netui1.dll
"??0ALLOC_STR@@QEAA@PEAGI@Z" ; netui1.dll
"??0API_SESSION@@QEAA@PEBGH@Z" ; netui1.dll
"??0BASE@@IEAA@XZ" ; netui1.dll
"??0BROWSE_DOMAIN_ENUM@@QEAA@KPEAK@Z" ; netui1.dll
"??0BROWSE_DOMAIN_INFO@@QEAA@PEBGK@Z" ; netui1.dll
"??0CHARDEVQ1_ENUM@@QEAA@PEBG0@Z" ; netui1.dll
"??0CHARDEVQ1_ENUM_ITER@@QEAA@AEAVCHARDEVQ1_ENUM@@@Z" ; netui1.dll
"??0CHARDEVQ1_ENUM_OBJ@@QEAA@XZ" ; netui1.dll
"??0CHARDEVQ_ENUM@@IEAA@PEBG0I@Z" ; netui1.dll
"??0COMPUTER@@IEAA@PEBG@Z" ; netui1.dll
"??0CONN0_ENUM@@QEAA@PEBG0@Z" ; netui1.dll
"??0CONN0_ENUM_ITER@@QEAA@AEAVCONN0_ENUM@@@Z" ; netui1.dll
"??0CONN0_ENUM_OBJ@@QEAA@XZ" ; netui1.dll
"??0CONN1_ENUM@@QEAA@PEBG0@Z" ; netui1.dll
"??0CONN1_ENUM_ITER@@QEAA@AEAVCONN1_ENUM@@@Z" ; netui1.dll
"??0CONN1_ENUM_OBJ@@QEAA@XZ" ; netui1.dll
"??0CONN_ENUM@@IEAA@PEBG0I@Z" ; netui1.dll
"??0CONTEXT_ENUM@@QEAA@K@Z" ; netui1.dll
"??0CONTEXT_ENUM_ITER@@QEAA@AEAVCONTEXT_ENUM@@@Z" ; netui1.dll
"??0CONTEXT_ENUM_OBJ@@QEAA@XZ" ; netui1.dll
"??0DEVICE2@@QEAA@PEBG@Z" ; netui1.dll
"??0DEVICE@@QEAA@PEBG@Z" ; netui1.dll
"??0DOMAIN0_ENUM@@QEAA@PEBG@Z" ; netui1.dll
"??0DOMAIN0_ENUM_ITER@@QEAA@AEAVDOMAIN0_ENUM@@@Z" ; netui1.dll
"??0DOMAIN0_ENUM_OBJ@@QEAA@XZ" ; netui1.dll
"??0DOMAIN@@QEAA@PEBG0H@Z" ; netui1.dll
"??0DOMAIN@@QEAA@PEBGH@Z" ; netui1.dll
"??0DOMAIN_ENUM@@IEAA@PEBGI@Z" ; netui1.dll
"??0DOMAIN_WITH_DC_CACHE@@QEAA@PEBG0H@Z" ; netui1.dll
"??0DOMAIN_WITH_DC_CACHE@@QEAA@PEBGH@Z" ; netui1.dll
"??0ENUM_CALLER@@QEAA@XZ" ; netui1.dll
"??0ENUM_CALLER_LM_OBJ@@QEAA@AEBVLOCATION@@@Z" ; netui1.dll
"??0ENUM_OBJ_BASE@@IEAA@XZ" ; netui1.dll
"??0FILE2_ENUM@@QEAA@PEBG00@Z" ; netui1.dll
"??0FILE2_ENUM_ITER@@QEAA@AEAVFILE2_ENUM@@@Z" ; netui1.dll
"??0FILE2_ENUM_OBJ@@QEAA@XZ" ; netui1.dll
"??0FILE3_ENUM@@QEAA@PEBG00@Z" ; netui1.dll
"??0FILE3_ENUM_ITER@@QEAA@AEAVFILE3_ENUM@@@Z" ; netui1.dll
"??0FILE3_ENUM_OBJ@@QEAA@XZ" ; netui1.dll
"??0FILE_ENUM@@IEAA@PEBG00I@Z" ; netui1.dll
"??0GROUP0_ENUM@@QEAA@AEBVLOCATION@@PEBG@Z" ; netui1.dll
"??0GROUP0_ENUM@@QEAA@PEBG0@Z" ; netui1.dll
"??0GROUP0_ENUM@@QEAA@W4LOCATION_TYPE@@PEBG@Z" ; netui1.dll
"??0GROUP0_ENUM_ITER@@QEAA@AEAVGROUP0_ENUM@@@Z" ; netui1.dll
"??0GROUP0_ENUM_OBJ@@QEAA@XZ" ; netui1.dll
"??0GROUP1_ENUM@@QEAA@AEBVLOCATION@@@Z" ; netui1.dll
"??0GROUP1_ENUM@@QEAA@PEBG@Z" ; netui1.dll
"??0GROUP1_ENUM@@QEAA@W4LOCATION_TYPE@@@Z" ; netui1.dll
"??0GROUP1_ENUM_ITER@@QEAA@AEAVGROUP1_ENUM@@@Z" ; netui1.dll
"??0GROUP1_ENUM_OBJ@@QEAA@XZ" ; netui1.dll
"??0GROUP@@QEAA@PEBG0@Z" ; netui1.dll
"??0GROUP@@QEAA@PEBGAEBVLOCATION@@@Z" ; netui1.dll
"??0GROUP@@QEAA@PEBGW4LOCATION_TYPE@@@Z" ; netui1.dll
"??0GROUP_0@@QEAA@PEBG0@Z" ; netui1.dll
"??0GROUP_0@@QEAA@PEBGAEBVLOCATION@@@Z" ; netui1.dll
"??0GROUP_0@@QEAA@PEBGW4LOCATION_TYPE@@@Z" ; netui1.dll
"??0GROUP_1@@QEAA@PEBG0@Z" ; netui1.dll
"??0GROUP_1@@QEAA@PEBGAEBVLOCATION@@@Z" ; netui1.dll
"??0GROUP_1@@QEAA@PEBGW4LOCATION_TYPE@@@Z" ; netui1.dll
"??0GROUP_ENUM@@IEAA@AEBVLOCATION@@IPEBG@Z" ; netui1.dll
"??0GROUP_ENUM@@IEAA@PEBGI0@Z" ; netui1.dll
"??0GROUP_ENUM@@IEAA@W4LOCATION_TYPE@@IPEBG@Z" ; netui1.dll
"??0GROUP_MEMB@@QEAA@AEBVLOCATION@@PEBG@Z" ; netui1.dll
"??0ITER_DEVICE@@QEAA@W4LMO_DEVICE@@W4LMO_DEV_USAGE@@@Z" ; netui1.dll
"??0ITER_SL_BROWSE_DOMAIN_INFO@@QEAA@AEAVSLIST@@@Z" ; netui1.dll
"??0ITER_SL_LM_RESUME_BUFFER@@QEAA@AEAVSLIST@@@Z" ; netui1.dll
"??0LM_CONFIG@@QEAA@PEBG00@Z" ; netui1.dll
"??0LM_ENUM@@IEAA@I@Z" ; netui1.dll
"??0LM_ENUM_ITER@@IEAA@AEAVLM_ENUM@@@Z" ; netui1.dll
"??0LM_FILE@@IEAA@PEBGK@Z" ; netui1.dll
"??0LM_FILE_2@@QEAA@PEBGK@Z" ; netui1.dll
"??0LM_FILE_3@@QEAA@PEBGK@Z" ; netui1.dll
"??0LM_MESSAGE@@QEAA@AEAVLOCATION@@@Z" ; netui1.dll
"??0LM_MESSAGE@@QEAA@PEBG@Z" ; netui1.dll
"??0LM_MESSAGE@@QEAA@W4LOCATION_TYPE@@@Z" ; netui1.dll
"??0LM_OBJ@@QEAA@XZ" ; netui1.dll
"??0LM_OBJ_BASE@@IEAA@H@Z" ; netui1.dll
"??0LM_RESUME_BUFFER@@QEAA@PEAVLM_RESUME_ENUM@@IPEAE@Z" ; netui1.dll
"??0LM_RESUME_ENUM@@IEAA@IH@Z" ; netui1.dll
"??0LM_RESUME_ENUM_ITER@@IEAA@AEAVLM_RESUME_ENUM@@@Z" ; netui1.dll
"??0LM_SERVICE@@QEAA@PEBG0@Z" ; netui1.dll
"??0LM_SESSION@@IEAA@PEBG0@Z" ; netui1.dll
"??0LM_SESSION@@IEAA@PEBGAEBVLOCATION@@@Z" ; netui1.dll
"??0LM_SESSION@@IEAA@PEBGW4LOCATION_TYPE@@@Z" ; netui1.dll
"??0LM_SESSION_0@@QEAA@PEBG0@Z" ; netui1.dll
"??0LM_SESSION_0@@QEAA@PEBGAEBVLOCATION@@@Z" ; netui1.dll
"??0LM_SESSION_0@@QEAA@PEBGW4LOCATION_TYPE@@@Z" ; netui1.dll
"??0LM_SESSION_10@@QEAA@PEBG0@Z" ; netui1.dll
"??0LM_SESSION_10@@QEAA@PEBGAEBVLOCATION@@@Z" ; netui1.dll
"??0LM_SESSION_10@@QEAA@PEBGW4LOCATION_TYPE@@@Z" ; netui1.dll
"??0LM_SESSION_1@@QEAA@PEBG0@Z" ; netui1.dll
"??0LM_SESSION_1@@QEAA@PEBGAEBVLOCATION@@@Z" ; netui1.dll
"??0LM_SESSION_1@@QEAA@PEBGW4LOCATION_TYPE@@@Z" ; netui1.dll
"??0LM_SESSION_2@@QEAA@PEBG0@Z" ; netui1.dll
"??0LM_SESSION_2@@QEAA@PEBGAEBVLOCATION@@@Z" ; netui1.dll
"??0LM_SESSION_2@@QEAA@PEBGW4LOCATION_TYPE@@@Z" ; netui1.dll
"??0LM_SRVRES@@QEAA@XZ" ; netui1.dll
"??0LOCAL_USER@@QEAA@PEBG0@Z" ; netui1.dll
"??0LOCAL_USER@@QEAA@W4LOCATION_TYPE@@@Z" ; netui1.dll
"??0LOCATION@@QEAA@AEBV0@@Z" ; netui1.dll
"??0LOCATION@@QEAA@PEBGH@Z" ; netui1.dll
"??0LOCATION@@QEAA@W4LOCATION_TYPE@@H@Z" ; netui1.dll
"??0LOC_LM_ENUM@@IEAA@AEBVLOCATION@@I@Z" ; netui1.dll
"??0LOC_LM_ENUM@@IEAA@PEBGI@Z" ; netui1.dll
"??0LOC_LM_ENUM@@IEAA@W4LOCATION_TYPE@@I@Z" ; netui1.dll
"??0LOC_LM_OBJ@@QEAA@AEBVLOCATION@@H@Z" ; netui1.dll
"??0LOC_LM_OBJ@@QEAA@PEBGH@Z" ; netui1.dll
"??0LOC_LM_OBJ@@QEAA@W4LOCATION_TYPE@@H@Z" ; netui1.dll
"??0LOC_LM_RESUME_ENUM@@IEAA@AEBVLOCATION@@IH@Z" ; netui1.dll
"??0LOC_LM_RESUME_ENUM@@IEAA@PEBGIH@Z" ; netui1.dll
"??0LOC_LM_RESUME_ENUM@@IEAA@W4LOCATION_TYPE@@IH@Z" ; netui1.dll
"??0LSA_ACCOUNT@@QEAA@PEAVLSA_POLICY@@PEAXKPEBG1@Z" ; netui1.dll
"??0LSA_ACCOUNTS_ENUM@@QEAA@PEBVLSA_POLICY@@@Z" ; netui1.dll
"??0LSA_ACCOUNTS_ENUM_ITER@@QEAA@AEAVLSA_ACCOUNTS_ENUM@@@Z" ; netui1.dll
"??0LSA_ACCOUNTS_ENUM_OBJ@@QEAA@XZ" ; netui1.dll
"??0LSA_ACCOUNT_PRIVILEGE_ENUM_ITER@@QEAA@PEAVOS_PRIVILEGE_SET@@@Z" ; netui1.dll
"??0LSA_ACCT_DOM_INFO_MEM@@QEAA@H@Z" ; netui1.dll
"??0LSA_AUDIT_EVENT_INFO_MEM@@QEAA@H@Z" ; netui1.dll
"??0LSA_DOMAIN_INFO@@QEAA@AEBVNLS_STR@@PEBV1@1@Z" ; netui1.dll
"??0LSA_ENUM@@IEAA@PEBVLSA_POLICY@@@Z" ; netui1.dll
"??0LSA_MEMORY@@IEAA@H@Z" ; netui1.dll
"??0LSA_OBJECT@@IEAA@XZ" ; netui1.dll
"??0LSA_POLICY@@QEAA@PEBGK@Z" ; netui1.dll
"??0LSA_PRIMARY_DOM_INFO_MEM@@QEAA@H@Z" ; netui1.dll
"??0LSA_PRIVILEGES_ENUM@@QEAA@PEBVLSA_POLICY@@@Z" ; netui1.dll
"??0LSA_PRIVILEGES_ENUM_ITER@@QEAA@AEAVLSA_PRIVILEGES_ENUM@@@Z" ; netui1.dll
"??0LSA_PRIVILEGES_ENUM_OBJ@@QEAA@XZ" ; netui1.dll
"??0LSA_REF_DOMAIN_MEM@@QEAA@H@Z" ; netui1.dll
"??0LSA_SECRET@@QEAA@AEBVNLS_STR@@@Z" ; netui1.dll
"??0LSA_SERVER_ROLE_INFO_MEM@@QEAA@HH@Z" ; netui1.dll
"??0LSA_TRANSLATED_NAME_MEM@@QEAA@H@Z" ; netui1.dll
"??0LSA_TRANSLATED_SID_MEM@@QEAA@H@Z" ; netui1.dll
"??0LSA_TRUSTED_DC_LIST@@QEAA@AEBVNLS_STR@@PEBG@Z" ; netui1.dll
"??0LSA_TRUSTED_DOMAIN@@QEAA@AEBVLSA_POLICY@@AEBU_LSA_TRUST_INFORMATION@@K@Z" ; netui1.dll
"??0LSA_TRUSTED_DOMAIN@@QEAA@AEBVLSA_POLICY@@AEBVNLS_STR@@QEAXK@Z" ; netui1.dll
"??0LSA_TRUSTED_DOMAIN@@QEAA@AEBVLSA_POLICY@@QEAXK@Z" ; netui1.dll
"??0LSA_TRUST_INFO_MEM@@QEAA@H@Z" ; netui1.dll
"??0MEMBERSHIP_LM_OBJ@@QEAA@AEBVLOCATION@@I@Z" ; netui1.dll
"??0NET_ACCESS@@IEAA@PEBG0@Z" ; netui1.dll
"??0NET_ACCESS_1@@QEAA@PEBG0@Z" ; netui1.dll
"??0NET_NAME@@QEAA@PEBGW4NETNAME_TYPE@@@Z" ; netui1.dll
"??0NEW_LM_OBJ@@QEAA@H@Z" ; netui1.dll
"??0NT_ACCOUNT_ENUM@@IEAA@PEBVSAM_DOMAIN@@W4_DOMAIN_DISPLAY_INFORMATION@@H@Z" ; netui1.dll
"??0NT_GROUP_ENUM@@QEAA@PEBVSAM_DOMAIN@@@Z" ; netui1.dll
"??0NT_GROUP_ENUM_ITER@@QEAA@AEAVNT_GROUP_ENUM@@@Z" ; netui1.dll
"??0NT_GROUP_ENUM_OBJ@@QEAA@XZ" ; netui1.dll
"??0NT_MACHINE_ENUM@@QEAA@PEBVSAM_DOMAIN@@@Z" ; netui1.dll
"??0NT_MACHINE_ENUM_ITER@@QEAA@AEAVNT_MACHINE_ENUM@@@Z" ; netui1.dll
"??0NT_MACHINE_ENUM_OBJ@@QEAA@XZ" ; netui1.dll
"??0NT_MEMORY@@IEAA@XZ" ; netui1.dll
"??0NT_USER_ENUM@@QEAA@PEBVSAM_DOMAIN@@@Z" ; netui1.dll
"??0NT_USER_ENUM_ITER@@QEAA@AEAVNT_USER_ENUM@@@Z" ; netui1.dll
"??0NT_USER_ENUM_OBJ@@QEAA@XZ" ; netui1.dll
"??0OS_ACE@@QEAA@PEAX@Z" ; netui1.dll
"??0OS_ACL@@QEAA@PEAU_ACL@@HPEAVOS_SECURITY_DESCRIPTOR@@@Z" ; netui1.dll
"??0OS_ACL_SUBJECT_ITER@@QEAA@PEBVOS_ACL@@PEAU_GENERIC_MAPPING@@1HH@Z" ; netui1.dll
"??0OS_DACL_SUBJECT_ITER@@QEAA@PEAVOS_ACL@@PEAU_GENERIC_MAPPING@@1HH@Z" ; netui1.dll
"??0OS_LUID@@QEAA@U_LUID@@@Z" ; netui1.dll
"??0OS_LUID@@QEAA@XZ" ; netui1.dll
"??0OS_LUID_AND_ATTRIBUTES@@QEAA@XZ" ; netui1.dll
"??0OS_OBJECT_WITH_DATA@@IEAA@I@Z" ; netui1.dll
"??0OS_PRIVILEGE_SET@@QEAA@PEAU_PRIVILEGE_SET@@@Z" ; netui1.dll
"??0OS_SACL_SUBJECT_ITER@@QEAA@PEAVOS_ACL@@PEAU_GENERIC_MAPPING@@1HH@Z" ; netui1.dll
"??0OS_SECURITY_DESCRIPTOR@@QEAA@PEAXH@Z" ; netui1.dll
"??0OS_SECURITY_DESCRIPTOR_CONTROL@@QEAA@PEAG@Z" ; netui1.dll
"??0OS_SID@@QEAA@PEAXHPEAVOS_SECURITY_DESCRIPTOR@@@Z" ; netui1.dll
"??0OS_SID@@QEAA@PEAXKPEAVOS_SECURITY_DESCRIPTOR@@@Z" ; netui1.dll
"??0SAM_ALIAS@@QEAA@AEBVSAM_DOMAIN@@KK@Z" ; netui1.dll
"??0SAM_ALIAS@@QEAA@AEBVSAM_DOMAIN@@PEBGK@Z" ; netui1.dll
"??0SAM_DOMAIN@@QEAA@AEBVSAM_SERVER@@PEAXK@Z" ; netui1.dll
"??0SAM_GROUP@@QEAA@AEBVSAM_DOMAIN@@KK@Z" ; netui1.dll
"??0SAM_MEMORY@@IEAA@H@Z" ; netui1.dll
"??0SAM_OBJECT@@IEAA@XZ" ; netui1.dll
"??0SAM_PSWD_DOM_INFO_MEM@@QEAA@H@Z" ; netui1.dll
"??0SAM_RID_ENUMERATION_MEM@@QEAA@H@Z" ; netui1.dll
"??0SAM_RID_MEM@@QEAA@H@Z" ; netui1.dll
"??0SAM_SERVER@@QEAA@PEBGK@Z" ; netui1.dll
"??0SAM_SID_MEM@@QEAA@H@Z" ; netui1.dll
"??0SAM_SID_NAME_USE_MEM@@QEAA@H@Z" ; netui1.dll
"??0SAM_USER@@QEAA@AEBVSAM_DOMAIN@@KK@Z" ; netui1.dll
"??0SAM_USER_ENUM@@QEAA@PEBVSAM_DOMAIN@@KH@Z" ; netui1.dll
"??0SAM_USER_ENUM_ITER@@QEAA@AEAVSAM_USER_ENUM@@@Z" ; netui1.dll
"??0SAM_USER_ENUM_OBJ@@QEAA@XZ" ; netui1.dll
"??0SC_MANAGER@@QEAA@PEAUSC_HANDLE__@@@Z" ; netui1.dll
"??0SC_MANAGER@@QEAA@PEBGIW4SERVICE_DATABASE@@@Z" ; netui1.dll
"??0SC_SERVICE@@QEAA@AEBVSC_MANAGER@@PEBG1III11111I@Z" ; netui1.dll
"??0SC_SERVICE@@QEAA@AEBVSC_MANAGER@@PEBGI@Z" ; netui1.dll
"??0SERVER1_ENUM@@QEAA@PEBG0K@Z" ; netui1.dll
"??0SERVER1_ENUM_ITER@@QEAA@AEAVSERVER1_ENUM@@@Z" ; netui1.dll
"??0SERVER1_ENUM_OBJ@@QEAA@XZ" ; netui1.dll
"??0SERVER_0@@QEAA@PEBG@Z" ; netui1.dll
"??0SERVER_1@@QEAA@PEBG@Z" ; netui1.dll
"??0SERVER_2@@QEAA@PEBG@Z" ; netui1.dll
"??0SERVER_ENUM@@IEAA@PEBGI0K@Z" ; netui1.dll
"??0SERVICE_CONTROL@@QEAA@XZ" ; netui1.dll
"??0SERVICE_ENUM@@QEAA@PEBGHI0@Z" ; netui1.dll
"??0SERVICE_ENUM_ITER@@QEAA@AEAVSERVICE_ENUM@@@Z" ; netui1.dll
"??0SERVICE_ENUM_OBJ@@QEAA@XZ" ; netui1.dll
"??0SESSION0_ENUM@@QEAA@PEBG@Z" ; netui1.dll
"??0SESSION0_ENUM_ITER@@QEAA@AEAVSESSION0_ENUM@@@Z" ; netui1.dll
"??0SESSION0_ENUM_OBJ@@QEAA@XZ" ; netui1.dll
"??0SESSION1_ENUM@@QEAA@PEBG@Z" ; netui1.dll
"??0SESSION1_ENUM_ITER@@QEAA@AEAVSESSION1_ENUM@@@Z" ; netui1.dll
"??0SESSION1_ENUM_OBJ@@QEAA@XZ" ; netui1.dll
"??0SESSION_ENUM@@IEAA@PEBGI@Z" ; netui1.dll
"??0SHARE1_ENUM@@QEAA@PEBGH@Z" ; netui1.dll
"??0SHARE1_ENUM_ITER@@QEAA@AEAVSHARE1_ENUM@@@Z" ; netui1.dll
"??0SHARE1_ENUM_OBJ@@QEAA@XZ" ; netui1.dll
"??0SHARE2_ENUM@@QEAA@PEBGH@Z" ; netui1.dll
"??0SHARE2_ENUM_ITER@@QEAA@AEAVSHARE2_ENUM@@@Z" ; netui1.dll
"??0SHARE2_ENUM_OBJ@@QEAA@XZ" ; netui1.dll
"??0SHARE@@QEAA@PEBG0H@Z" ; netui1.dll
"??0SHARE_1@@QEAA@PEBG0H@Z" ; netui1.dll
"??0SHARE_2@@QEAA@PEBG0H@Z" ; netui1.dll
"??0SHARE_ENUM@@IEAA@PEBGIH@Z" ; netui1.dll
"??0SLIST_OF_ADMIN_AUTHORITY@@QEAA@H@Z" ; netui1.dll
"??0SLIST_OF_API_SESSION@@QEAA@H@Z" ; netui1.dll
"??0SLIST_OF_BROWSE_DOMAIN_INFO@@QEAA@H@Z" ; netui1.dll
"??0SLIST_OF_LM_RESUME_BUFFER@@QEAA@H@Z" ; netui1.dll
"??0TIME_OF_DAY@@QEAA@AEAVLOCATION@@@Z" ; netui1.dll
"??0TIME_OF_DAY@@QEAA@PEBG@Z" ; netui1.dll
"??0TIME_OF_DAY@@QEAA@W4LOCATION_TYPE@@@Z" ; netui1.dll
"??0TRIPLE_SERVER_ENUM@@QEAA@PEBG0HHHH@Z" ; netui1.dll
"??0TRIPLE_SERVER_ENUM_ITER@@QEAA@AEAVTRIPLE_SERVER_ENUM@@@Z" ; netui1.dll
"??0TRIPLE_SERVER_ENUM_OBJ@@QEAA@XZ" ; netui1.dll
"??0TRUSTED_DOMAIN_ENUM@@QEAA@PEBVLSA_POLICY@@H@Z" ; netui1.dll
"??0TRUSTED_DOMAIN_ENUM_ITER@@QEAA@AEAVTRUSTED_DOMAIN_ENUM@@@Z" ; netui1.dll
"??0TRUSTED_DOMAIN_ENUM_OBJ@@QEAA@XZ" ; netui1.dll
"??0USE1_ENUM@@QEAA@PEBG@Z" ; netui1.dll
"??0USE1_ENUM_ITER@@QEAA@AEAVUSE1_ENUM@@@Z" ; netui1.dll
"??0USE1_ENUM_OBJ@@QEAA@XZ" ; netui1.dll
"??0USER0_ENUM@@QEAA@AEBVLOCATION@@PEBGH@Z" ; netui1.dll
"??0USER0_ENUM@@QEAA@PEBG0H@Z" ; netui1.dll
"??0USER0_ENUM@@QEAA@W4LOCATION_TYPE@@PEBGH@Z" ; netui1.dll
"??0USER0_ENUM_ITER@@QEAA@AEAVUSER0_ENUM@@@Z" ; netui1.dll
"??0USER0_ENUM_OBJ@@QEAA@XZ" ; netui1.dll
"??0USER10_ENUM@@QEAA@AEBVLOCATION@@H@Z" ; netui1.dll
"??0USER10_ENUM@@QEAA@PEBGH@Z" ; netui1.dll
"??0USER10_ENUM@@QEAA@W4LOCATION_TYPE@@H@Z" ; netui1.dll
"??0USER10_ENUM_ITER@@QEAA@AEAVUSER10_ENUM@@@Z" ; netui1.dll
"??0USER10_ENUM_OBJ@@QEAA@XZ" ; netui1.dll
"??0USER1_ENUM@@QEAA@AEBVLOCATION@@H@Z" ; netui1.dll
"??0USER1_ENUM@@QEAA@PEBGH@Z" ; netui1.dll
"??0USER1_ENUM@@QEAA@W4LOCATION_TYPE@@H@Z" ; netui1.dll
"??0USER1_ENUM_ITER@@QEAA@AEAVUSER1_ENUM@@@Z" ; netui1.dll
"??0USER1_ENUM_OBJ@@QEAA@XZ" ; netui1.dll
"??0USER2_ENUM@@QEAA@AEBVLOCATION@@H@Z" ; netui1.dll
"??0USER2_ENUM@@QEAA@PEBGH@Z" ; netui1.dll
"??0USER2_ENUM@@QEAA@W4LOCATION_TYPE@@H@Z" ; netui1.dll
"??0USER2_ENUM_ITER@@QEAA@AEAVUSER2_ENUM@@@Z" ; netui1.dll
"??0USER2_ENUM_OBJ@@QEAA@XZ" ; netui1.dll
"??0USER@@QEAA@PEBG0@Z" ; netui1.dll
"??0USER@@QEAA@PEBGAEBVLOCATION@@@Z" ; netui1.dll
"??0USER@@QEAA@PEBGW4LOCATION_TYPE@@@Z" ; netui1.dll
"??0USER_11@@QEAA@PEBG0@Z" ; netui1.dll
"??0USER_11@@QEAA@PEBGAEBVLOCATION@@@Z" ; netui1.dll
"??0USER_11@@QEAA@PEBGW4LOCATION_TYPE@@@Z" ; netui1.dll
"??0USER_2@@QEAA@PEBG0@Z" ; netui1.dll
"??0USER_2@@QEAA@PEBGAEBVLOCATION@@@Z" ; netui1.dll
"??0USER_2@@QEAA@PEBGW4LOCATION_TYPE@@@Z" ; netui1.dll
"??0USER_3@@QEAA@PEBG0@Z" ; netui1.dll
"??0USER_3@@QEAA@PEBGAEBVLOCATION@@@Z" ; netui1.dll
"??0USER_3@@QEAA@PEBGW4LOCATION_TYPE@@@Z" ; netui1.dll
"??0USER_ENUM@@IEAA@AEBVLOCATION@@IPEBGH@Z" ; netui1.dll
"??0USER_ENUM@@IEAA@PEBGI0H@Z" ; netui1.dll
"??0USER_ENUM@@IEAA@W4LOCATION_TYPE@@IPEBGH@Z" ; netui1.dll
"??0USER_MEMB@@QEAA@AEBVLOCATION@@PEBG@Z" ; netui1.dll
"??0USER_MODALS@@QEAA@PEBG@Z" ; netui1.dll
"??0USER_MODALS_3@@QEAA@PEBG@Z" ; netui1.dll
"??0USE_ENUM@@IEAA@PEBGI@Z" ; netui1.dll
"??0WKSTA_10@@QEAA@PEBG@Z" ; netui1.dll
"??0WKSTA_1@@QEAA@PEBG@Z" ; netui1.dll
"??0WKSTA_USER_1@@QEAA@XZ" ; netui1.dll
"??1ADMIN_AUTHORITY@@QEAA@XZ" ; netui1.dll
"??1ALIAS_ENUM@@QEAA@XZ" ; netui1.dll
"??1ALIAS_ENUM_OBJ@@QEAA@XZ" ; netui1.dll
"??1ALIAS_STR@@QEAA@XZ" ; netui1.dll
"??1ALLOC_STR@@QEAA@XZ" ; netui1.dll
"??1API_SESSION@@QEAA@XZ" ; netui1.dll
"??1BROWSE_DOMAIN_ENUM@@QEAA@XZ" ; netui1.dll
"??1BROWSE_DOMAIN_INFO@@QEAA@XZ" ; netui1.dll
"??1CHARDEVQ1_ENUM_OBJ@@QEAA@XZ" ; netui1.dll
"??1CHARDEVQ_ENUM@@QEAA@XZ" ; netui1.dll
"??1COMPUTER@@IEAA@XZ" ; netui1.dll
"??1CONN0_ENUM_OBJ@@QEAA@XZ" ; netui1.dll
"??1CONN1_ENUM_OBJ@@QEAA@XZ" ; netui1.dll
"??1CONN_ENUM@@QEAA@XZ" ; netui1.dll
"??1CONTEXT_ENUM_OBJ@@QEAA@XZ" ; netui1.dll
"??1DEVICE@@QEAA@XZ" ; netui1.dll
"??1DOMAIN0_ENUM@@QEAA@XZ" ; netui1.dll
"??1DOMAIN0_ENUM_ITER@@QEAA@XZ" ; netui1.dll
"??1DOMAIN0_ENUM_OBJ@@QEAA@XZ" ; netui1.dll
"??1DOMAIN@@QEAA@XZ" ; netui1.dll
"??1DOMAIN_ENUM@@QEAA@XZ" ; netui1.dll
"??1DOMAIN_WITH_DC_CACHE@@QEAA@XZ" ; netui1.dll
"??1ENUM_CALLER_LM_OBJ@@QEAA@XZ" ; netui1.dll
"??1ENUM_OBJ_BASE@@IEAA@XZ" ; netui1.dll
"??1FILE2_ENUM_OBJ@@QEAA@XZ" ; netui1.dll
"??1FILE3_ENUM@@QEAA@XZ" ; netui1.dll
"??1FILE3_ENUM_ITER@@QEAA@XZ" ; netui1.dll
"??1FILE3_ENUM_OBJ@@QEAA@XZ" ; netui1.dll
"??1FILE_ENUM@@IEAA@XZ" ; netui1.dll
"??1GROUP0_ENUM@@QEAA@XZ" ; netui1.dll
"??1GROUP0_ENUM_ITER@@QEAA@XZ" ; netui1.dll
"??1GROUP0_ENUM_OBJ@@QEAA@XZ" ; netui1.dll
"??1GROUP1_ENUM_OBJ@@QEAA@XZ" ; netui1.dll
"??1GROUP@@QEAA@XZ" ; netui1.dll
"??1GROUP_0@@QEAA@XZ" ; netui1.dll
"??1GROUP_1@@QEAA@XZ" ; netui1.dll
"??1GROUP_ENUM@@QEAA@XZ" ; netui1.dll
"??1GROUP_MEMB@@QEAA@XZ" ; netui1.dll
"??1ITER_DEVICE@@QEAA@XZ" ; netui1.dll
"??1ITER_SL_BROWSE_DOMAIN_INFO@@QEAA@XZ" ; netui1.dll
"??1ITER_SL_LM_RESUME_BUFFER@@QEAA@XZ" ; netui1.dll
"??1LM_CONFIG@@QEAA@XZ" ; netui1.dll
"??1LM_ENUM@@QEAA@XZ" ; netui1.dll
"??1LM_ENUM_ITER@@IEAA@XZ" ; netui1.dll
"??1LM_FILE@@IEAA@XZ" ; netui1.dll
"??1LM_FILE_2@@QEAA@XZ" ; netui1.dll
"??1LM_RESUME_BUFFER@@QEAA@XZ" ; netui1.dll
"??1LM_RESUME_ENUM@@QEAA@XZ" ; netui1.dll
"??1LM_RESUME_ENUM_ITER@@IEAA@XZ" ; netui1.dll
"??1LM_SERVICE@@QEAA@XZ" ; netui1.dll
"??1LM_SESSION@@QEAA@XZ" ; netui1.dll
"??1LM_SESSION_0@@QEAA@XZ" ; netui1.dll
"??1LM_SESSION_10@@QEAA@XZ" ; netui1.dll
"??1LM_SESSION_1@@QEAA@XZ" ; netui1.dll
"??1LM_SRVRES@@QEAA@XZ" ; netui1.dll
"??1LOCAL_USER@@QEAA@XZ" ; netui1.dll
"??1LOCATION@@QEAA@XZ" ; netui1.dll
"??1LOC_LM_ENUM@@QEAA@XZ" ; netui1.dll
"??1LOC_LM_OBJ@@QEAA@XZ" ; netui1.dll
"??1LOC_LM_RESUME_ENUM@@QEAA@XZ" ; netui1.dll
"??1LSA_ACCOUNT@@QEAA@XZ" ; netui1.dll
"??1LSA_ACCOUNTS_ENUM_OBJ@@QEAA@XZ" ; netui1.dll
"??1LSA_ACCOUNT_PRIVILEGE_ENUM_ITER@@QEAA@XZ" ; netui1.dll
"??1LSA_ACCT_DOM_INFO_MEM@@QEAA@XZ" ; netui1.dll
"??1LSA_AUDIT_EVENT_INFO_MEM@@QEAA@XZ" ; netui1.dll
"??1LSA_DOMAIN_INFO@@QEAA@XZ" ; netui1.dll
"??1LSA_ENUM@@QEAA@XZ" ; netui1.dll
"??1LSA_MEMORY@@IEAA@XZ" ; netui1.dll
"??1LSA_OBJECT@@IEAA@XZ" ; netui1.dll
"??1LSA_POLICY@@QEAA@XZ" ; netui1.dll
"??1LSA_PRIMARY_DOM_INFO_MEM@@QEAA@XZ" ; netui1.dll
"??1LSA_PRIVILEGES_ENUM_OBJ@@QEAA@XZ" ; netui1.dll
"??1LSA_REF_DOMAIN_MEM@@QEAA@XZ" ; netui1.dll
"??1LSA_SECRET@@QEAA@XZ" ; netui1.dll
"??1LSA_SERVER_ROLE_INFO_MEM@@QEAA@XZ" ; netui1.dll
"??1LSA_TRANSLATED_NAME_MEM@@QEAA@XZ" ; netui1.dll
"??1LSA_TRANSLATED_SID_MEM@@QEAA@XZ" ; netui1.dll
"??1LSA_TRUSTED_DC_LIST@@QEAA@XZ" ; netui1.dll
"??1LSA_TRUSTED_DOMAIN@@QEAA@XZ" ; netui1.dll
"??1LSA_TRUST_INFO_MEM@@QEAA@XZ" ; netui1.dll
"??1MEMBERSHIP_LM_OBJ@@QEAA@XZ" ; netui1.dll
"??1NET_ACCESS@@IEAA@XZ" ; netui1.dll
"??1NET_ACCESS_1@@QEAA@XZ" ; netui1.dll
"??1NET_NAME@@QEAA@XZ" ; netui1.dll
"??1NEW_LM_OBJ@@QEAA@XZ" ; netui1.dll
"??1NT_ACCOUNT_ENUM@@IEAA@XZ" ; netui1.dll
"??1NT_GROUP_ENUM@@QEAA@XZ" ; netui1.dll
"??1NT_GROUP_ENUM_OBJ@@QEAA@XZ" ; netui1.dll
"??1NT_MACHINE_ENUM@@QEAA@XZ" ; netui1.dll
"??1NT_MACHINE_ENUM_ITER@@QEAA@XZ" ; netui1.dll
"??1NT_MACHINE_ENUM_OBJ@@QEAA@XZ" ; netui1.dll
"??1NT_MEMORY@@IEAA@XZ" ; netui1.dll
"??1NT_USER_ENUM@@QEAA@XZ" ; netui1.dll
"??1NT_USER_ENUM_OBJ@@QEAA@XZ" ; netui1.dll
"??1OS_ACE@@QEAA@XZ" ; netui1.dll
"??1OS_ACL@@QEAA@XZ" ; netui1.dll
"??1OS_ACL_SUBJECT_ITER@@QEAA@XZ" ; netui1.dll
"??1OS_DACL_SUBJECT_ITER@@QEAA@XZ" ; netui1.dll
"??1OS_OBJECT_WITH_DATA@@IEAA@XZ" ; netui1.dll
"??1OS_PRIVILEGE_SET@@QEAA@XZ" ; netui1.dll
"??1OS_SACL_SUBJECT_ITER@@QEAA@XZ" ; netui1.dll
"??1OS_SECURITY_DESCRIPTOR@@QEAA@XZ" ; netui1.dll
"??1OS_SID@@QEAA@XZ" ; netui1.dll
"??1REG_VALUE_INFO_STRUCT@@QEAA@XZ" ; netui1.dll
"??1SAM_ALIAS@@QEAA@XZ" ; netui1.dll
"??1SAM_DOMAIN@@QEAA@XZ" ; netui1.dll
"??1SAM_GROUP@@QEAA@XZ" ; netui1.dll
"??1SAM_MEMORY@@QEAA@XZ" ; netui1.dll
"??1SAM_OBJECT@@IEAA@XZ" ; netui1.dll
"??1SAM_PSWD_DOM_INFO_MEM@@QEAA@XZ" ; netui1.dll
"??1SAM_RID_ENUMERATION_MEM@@QEAA@XZ" ; netui1.dll
"??1SAM_RID_MEM@@QEAA@XZ" ; netui1.dll
"??1SAM_SERVER@@QEAA@XZ" ; netui1.dll
"??1SAM_SID_MEM@@QEAA@XZ" ; netui1.dll
"??1SAM_SID_NAME_USE_MEM@@QEAA@XZ" ; netui1.dll
"??1SAM_USER@@QEAA@XZ" ; netui1.dll
"??1SAM_USER_ENUM@@QEAA@XZ" ; netui1.dll
"??1SAM_USER_ENUM_ITER@@QEAA@XZ" ; netui1.dll
"??1SAM_USER_ENUM_OBJ@@QEAA@XZ" ; netui1.dll
"??1SC_MANAGER@@QEAA@XZ" ; netui1.dll
"??1SC_SERVICE@@QEAA@XZ" ; netui1.dll
"??1SERVER1_ENUM@@QEAA@XZ" ; netui1.dll
"??1SERVER1_ENUM_ITER@@QEAA@XZ" ; netui1.dll
"??1SERVER1_ENUM_OBJ@@QEAA@XZ" ; netui1.dll
"??1SERVER_0@@QEAA@XZ" ; netui1.dll
"??1SERVER_1@@QEAA@XZ" ; netui1.dll
"??1SERVER_2@@QEAA@XZ" ; netui1.dll
"??1SERVER_ENUM@@QEAA@XZ" ; netui1.dll
"??1SERVICE_CONTROL@@QEAA@XZ" ; netui1.dll
"??1SERVICE_ENUM@@QEAA@XZ" ; netui1.dll
"??1SERVICE_ENUM_OBJ@@QEAA@XZ" ; netui1.dll
"??1SESSION0_ENUM@@QEAA@XZ" ; netui1.dll
"??1SESSION0_ENUM_ITER@@QEAA@XZ" ; netui1.dll
"??1SESSION0_ENUM_OBJ@@QEAA@XZ" ; netui1.dll
"??1SESSION1_ENUM_OBJ@@QEAA@XZ" ; netui1.dll
"??1SESSION_ENUM@@QEAA@XZ" ; netui1.dll
"??1SHARE1_ENUM_OBJ@@QEAA@XZ" ; netui1.dll
"??1SHARE2_ENUM_OBJ@@QEAA@XZ" ; netui1.dll
"??1SHARE@@QEAA@XZ" ; netui1.dll
"??1SHARE_1@@QEAA@XZ" ; netui1.dll
"??1SHARE_2@@QEAA@XZ" ; netui1.dll
"??1SHARE_ENUM@@QEAA@XZ" ; netui1.dll
"??1SLIST_OF_ADMIN_AUTHORITY@@QEAA@XZ" ; netui1.dll
"??1SLIST_OF_API_SESSION@@QEAA@XZ" ; netui1.dll
"??1SLIST_OF_BROWSE_DOMAIN_INFO@@QEAA@XZ" ; netui1.dll
"??1SLIST_OF_LM_RESUME_BUFFER@@QEAA@XZ" ; netui1.dll
"??1TIME_OF_DAY@@QEAA@XZ" ; netui1.dll
"??1TRIPLE_SERVER_ENUM@@QEAA@XZ" ; netui1.dll
"??1TRIPLE_SERVER_ENUM_OBJ@@QEAA@XZ" ; netui1.dll
"??1TRUSTED_DOMAIN_ENUM@@QEAA@XZ" ; netui1.dll
"??1TRUSTED_DOMAIN_ENUM_OBJ@@QEAA@XZ" ; netui1.dll
"??1USE1_ENUM_OBJ@@QEAA@XZ" ; netui1.dll
"??1USER0_ENUM@@QEAA@XZ" ; netui1.dll
"??1USER0_ENUM_ITER@@QEAA@XZ" ; netui1.dll
"??1USER0_ENUM_OBJ@@QEAA@XZ" ; netui1.dll
"??1USER10_ENUM_OBJ@@QEAA@XZ" ; netui1.dll
"??1USER1_ENUM_OBJ@@QEAA@XZ" ; netui1.dll
"??1USER2_ENUM_OBJ@@QEAA@XZ" ; netui1.dll
"??1USER@@QEAA@XZ" ; netui1.dll
"??1USER_11@@QEAA@XZ" ; netui1.dll
"??1USER_2@@UEAA@XZ" ; netui1.dll
"??1USER_3@@UEAA@XZ" ; netui1.dll
"??1USER_ENUM@@QEAA@XZ" ; netui1.dll
"??1USER_MEMB@@QEAA@XZ" ; netui1.dll
"??1USE_ENUM@@QEAA@XZ" ; netui1.dll
"??1WKSTA_10@@QEAA@XZ" ; netui1.dll
"??1WKSTA_1@@QEAA@XZ" ; netui1.dll
"??1WKSTA_USER_1@@QEAA@XZ" ; netui1.dll
"??4ALLOC_STR@@QEAAAEAV0@AEBV0@@Z" ; netui1.dll
"??4ALLOC_STR@@QEAAAEAV0@PEBG@Z" ; netui1.dll
"??7BASE@@QEBAHXZ" ; netui1.dll
"??8OS_LUID@@QEBAHAEBV0@@Z" ; netui1.dll
"??8OS_SID@@QEBAHAEBV0@@Z" ; netui1.dll
"??ALSA_TRUSTED_DC_LIST@@QEBAAEBU_UNICODE_STRING@@H@Z" ; netui1.dll
"??ANLS_STR@@QEBAPEBGAEBVISTR@@@Z" ; netui1.dll
"??BNLS_STR@@QEBAPEBGXZ" ; netui1.dll
"??BOS_ACL@@QEBAPEAU_ACL@@XZ" ; netui1.dll
"??BOS_SID@@QEBAPEAXXZ" ; netui1.dll
"??RCHARDEVQ1_ENUM_ITER@@QEAAPEBVCHARDEVQ1_ENUM_OBJ@@XZ" ; netui1.dll
"??RCONN0_ENUM_ITER@@QEAAPEBVCONN0_ENUM_OBJ@@XZ" ; netui1.dll
"??RCONN1_ENUM_ITER@@QEAAPEBVCONN1_ENUM_OBJ@@XZ" ; netui1.dll
"??RCONTEXT_ENUM_ITER@@QEAAPEBVCONTEXT_ENUM_OBJ@@XZ" ; netui1.dll
"??RDOMAIN0_ENUM_ITER@@QEAAPEBVDOMAIN0_ENUM_OBJ@@XZ" ; netui1.dll
"??RFILE3_ENUM_ITER@@QEAAPEBVFILE3_ENUM_OBJ@@PEAJH@Z" ; netui1.dll
"??RGROUP0_ENUM_ITER@@QEAAPEBVGROUP0_ENUM_OBJ@@XZ" ; netui1.dll
"??RGROUP1_ENUM_ITER@@QEAAPEBVGROUP1_ENUM_OBJ@@XZ" ; netui1.dll
"??RLSA_ACCOUNT_PRIVILEGE_ENUM_ITER@@QEAAPEBVOS_LUID_AND_ATTRIBUTES@@XZ" ; netui1.dll
"??RNT_MACHINE_ENUM_ITER@@QEAAPEBVNT_MACHINE_ENUM_OBJ@@PEAJH@Z" ; netui1.dll
"??RSERVER1_ENUM_ITER@@QEAAPEBVSERVER1_ENUM_OBJ@@XZ" ; netui1.dll
"??RSERVICE_ENUM_ITER@@QEAAPEBVSERVICE_ENUM_OBJ@@XZ" ; netui1.dll
"??RSESSION0_ENUM_ITER@@QEAAPEBVSESSION0_ENUM_OBJ@@XZ" ; netui1.dll
"??RSESSION1_ENUM_ITER@@QEAAPEBVSESSION1_ENUM_OBJ@@XZ" ; netui1.dll
"??RSHARE1_ENUM_ITER@@QEAAPEBVSHARE1_ENUM_OBJ@@XZ" ; netui1.dll
"??RSHARE2_ENUM_ITER@@QEAAPEBVSHARE2_ENUM_OBJ@@XZ" ; netui1.dll
"??RTRIPLE_SERVER_ENUM_ITER@@QEAAPEBVTRIPLE_SERVER_ENUM_OBJ@@XZ" ; netui1.dll
"??RUSE1_ENUM_ITER@@QEAAPEBVUSE1_ENUM_OBJ@@XZ" ; netui1.dll
"??RUSER0_ENUM_ITER@@QEAAPEBVUSER0_ENUM_OBJ@@PEAJH@Z" ; netui1.dll
"?Add@SLIST_OF_NLS_STR@@QEAAJPEBVNLS_STR@@@Z" ; netui1.dll
"?AddACE@OS_ACL@@QEAAJKAEBVOS_ACE@@@Z" ; netui1.dll
"?AddAssocName@MEMBERSHIP_LM_OBJ@@QEAAJPEBG@Z" ; netui1.dll
"?AddDcCache@DOMAIN_WITH_DC_CACHE@@CAJPEAPEAU_DC_CACHE_ENTRY@@PEBG1@Z" ; netui1.dll
"?AddDomainSource@BROWSE_DOMAIN_INFO@@AEAAXK@Z" ; netui1.dll
"?AddDomainToList@BROWSE_DOMAIN_ENUM@@AEAAJPEBGKH@Z" ; netui1.dll
"?AddMember@SAM_ALIAS@@QEAAJPEAX@Z" ; netui1.dll
"?AddMember@SAM_GROUP@@QEAAJK@Z" ; netui1.dll
"?AddMembers@SAM_ALIAS@@QEAAJPEAPEAXI@Z" ; netui1.dll
"?AddMembers@SAM_GROUP@@QEAAJPEAKI@Z" ; netui1.dll
"?AddPrivilege@OS_PRIVILEGE_SET@@QEAAJU_LUID@@K@Z" ; netui1.dll
"?Append@SLIST_OF_ADMIN_AUTHORITY@@QEAAJPEBVADMIN_AUTHORITY@@@Z" ; netui1.dll
"?Append@SLIST_OF_API_SESSION@@QEAAJPEBVAPI_SESSION@@@Z" ; netui1.dll
"?Append@SLIST_OF_BROWSE_DOMAIN_INFO@@QEAAJPEBVBROWSE_DOMAIN_INFO@@@Z" ; netui1.dll
"?Append@SLIST_OF_LM_RESUME_BUFFER@@QEAAJPEBVLM_RESUME_BUFFER@@@Z" ; netui1.dll
"?Append@SLIST_OF_NLS_STR@@QEAAJPEBVNLS_STR@@@Z" ; netui1.dll
"?Backup@CHARDEVQ1_ENUM_ITER@@QEAAHXZ" ; netui1.dll
"?Backup@CONN0_ENUM_ITER@@QEAAHXZ" ; netui1.dll
"?Backup@CONN1_ENUM_ITER@@QEAAHXZ" ; netui1.dll
"?Backup@CONTEXT_ENUM_ITER@@QEAAHXZ" ; netui1.dll
"?Backup@DOMAIN0_ENUM_ITER@@QEAAHXZ" ; netui1.dll
"?Backup@GROUP0_ENUM_ITER@@QEAAHXZ" ; netui1.dll
"?Backup@GROUP1_ENUM_ITER@@QEAAHXZ" ; netui1.dll
"?Backup@SERVER1_ENUM_ITER@@QEAAHXZ" ; netui1.dll
"?Backup@SERVICE_ENUM_ITER@@QEAAHXZ" ; netui1.dll
"?Backup@SESSION0_ENUM_ITER@@QEAAHXZ" ; netui1.dll
"?Backup@SESSION1_ENUM_ITER@@QEAAHXZ" ; netui1.dll
"?Backup@SHARE1_ENUM_ITER@@QEAAHXZ" ; netui1.dll
"?Backup@SHARE2_ENUM_ITER@@QEAAHXZ" ; netui1.dll
"?Backup@TRIPLE_SERVER_ENUM_ITER@@QEAAHXZ" ; netui1.dll
"?Backup@USE1_ENUM_ITER@@QEAAHXZ" ; netui1.dll
"?BuildAndCopySysSid@NT_ACCOUNTS_UTILITY@@SAJPEAVOS_SID@@PEAU_SID_IDENTIFIER_AUTHORITY@@EKKKKKKKK@Z" ; netui1.dll
"?BuildQualifiedAccountName@NT_ACCOUNTS_UTILITY@@SAJPEAVNLS_STR@@AEBV2@1PEBV2@2W4_SID_NAME_USE@@@Z" ; netui1.dll
"?BuildQualifiedAccountName@NT_ACCOUNTS_UTILITY@@SAJPEAVNLS_STR@@AEBV2@PEAX1PEBV2@2W4_SID_NAME_USE@@@Z" ; netui1.dll
"?CallAPI@ALIAS_ENUM@@EEAAJHPEAPEAEPEAI@Z" ; netui1.dll
"?CallAPI@CHARDEVQ_ENUM@@EEAAJPEAPEAEPEAI@Z" ; netui1.dll
"?CallAPI@CONN_ENUM@@EEAAJPEAPEAEPEAI@Z" ; netui1.dll
"?CallAPI@CONTEXT_ENUM@@MEAAJPEAPEAEPEAI@Z" ; netui1.dll
"?CallAPI@DEVICE2@@MEAAJXZ" ; netui1.dll
"?CallAPI@DEVICE@@MEAAJXZ" ; netui1.dll
"?CallAPI@DOMAIN_ENUM@@EEAAJPEAPEAEPEAI@Z" ; netui1.dll
"?CallAPI@FILE_ENUM@@EEAAJHPEAPEAEPEAI@Z" ; netui1.dll
"?CallAPI@GROUP_ENUM@@EEAAJPEAPEAEPEAI@Z" ; netui1.dll
"?CallAPI@GROUP_MEMB@@MEAAJPEAPEAEPEAI@Z" ; netui1.dll
"?CallAPI@LSA_ACCOUNTS_ENUM@@EEAAJHPEAPEAEPEAI@Z" ; netui1.dll
"?CallAPI@LSA_PRIVILEGES_ENUM@@MEAAJHPEAPEAEPEAI@Z" ; netui1.dll
"?CallAPI@NT_ACCOUNT_ENUM@@EEAAJHPEAPEAEPEAI@Z" ; netui1.dll
"?CallAPI@SAM_USER_ENUM@@EEAAJHPEAPEAEPEAI@Z" ; netui1.dll
"?CallAPI@SERVER_ENUM@@EEAAJPEAPEAEPEAI@Z" ; netui1.dll
"?CallAPI@SERVICE_ENUM@@EEAAJPEAPEAEPEAI@Z" ; netui1.dll
"?CallAPI@SESSION_ENUM@@EEAAJPEAPEAEPEAI@Z" ; netui1.dll
"?CallAPI@SHARE_ENUM@@EEAAJPEAPEAEPEAI@Z" ; netui1.dll
"?CallAPI@TRIPLE_SERVER_ENUM@@EEAAJPEAPEAEPEAI@Z" ; netui1.dll
"?CallAPI@TRUSTED_DOMAIN_ENUM@@EEAAJHPEAPEAEPEAI@Z" ; netui1.dll
"?CallAPI@USER_ENUM@@EEAAJHPEAPEAEPEAI@Z" ; netui1.dll
"?CallAPI@USER_MEMB@@MEAAJPEAPEAEPEAI@Z" ; netui1.dll
"?CallAPI@USE_ENUM@@EEAAJPEAPEAEPEAI@Z" ; netui1.dll
"?ChangeConfig@SC_SERVICE@@QEAAJIIIPEBG00000@Z" ; netui1.dll
"?ChangeToNew@NEW_LM_OBJ@@QEAAJXZ" ; netui1.dll
"?CheckIfNT@LOCATION@@QEAAJPEAH@Z" ; netui1.dll
"?CheckIfNT@LOCATION@@QEAAJPEAHPEAW4LOCATION_NT_TYPE@@@Z" ; netui1.dll
"?CheckIfShutDownOnFull@LSA_POLICY@@QEAAJPEAH@Z" ; netui1.dll
"?CleanupUnistrArray@LSA_POLICY@@IEAAXPEAU_UNICODE_STRING@@K@Z" ; netui1.dll
"?Clear@OS_PRIVILEGE_SET@@QEAAXXZ" ; netui1.dll
"?Clear@SLIST_OF_ADMIN_AUTHORITY@@QEAAXXZ" ; netui1.dll
"?Clear@SLIST_OF_API_SESSION@@QEAAXXZ" ; netui1.dll
"?Clear@SLIST_OF_BROWSE_DOMAIN_INFO@@QEAAXXZ" ; netui1.dll
"?Clear@SLIST_OF_LM_RESUME_BUFFER@@QEAAXXZ" ; netui1.dll
"?ClearBuffer@NEW_LM_OBJ@@IEAAJXZ" ; netui1.dll
"?ClearDcCache@DOMAIN_WITH_DC_CACHE@@CAJPEAU_DC_CACHE_ENTRY@@@Z" ; netui1.dll
"?ClearPerms@NET_ACCESS_1@@QEAAJXZ" ; netui1.dll
"?CloneFrom@GROUP_1@@QEAAJAEBV1@@Z" ; netui1.dll
"?CloneFrom@GROUP_MEMB@@QEAAJAEBV1@@Z" ; netui1.dll
"?CloneFrom@SHARE_1@@QEAAJAEBV1@@Z" ; netui1.dll
"?CloneFrom@SHARE_2@@QEAAJAEBV1@@Z" ; netui1.dll
"?CloneFrom@USER_2@@QEAAJAEBV1@@Z" ; netui1.dll
"?CloneFrom@USER_3@@QEAAJAEBV1@@Z" ; netui1.dll
"?CloneFrom@USER_MEMB@@QEAAJAEBV1@@Z" ; netui1.dll
"?Close@SERVICE_CONTROL@@QEAAJXZ" ; netui1.dll
"?CloseFile@LM_FILE@@QEAAJXZ" ; netui1.dll
"?CloseHandle@LSA_OBJECT@@QEAAJH@Z" ; netui1.dll
"?CloseHandle@SAM_OBJECT@@QEAAJXZ" ; netui1.dll
"?CombineIntoTriple@TRIPLE_SERVER_ENUM@@AEAAXPEBU_SERVER_INFO_101@@PEBU_KNOWN_SERVER_INFO@@PEAU_TRIPLE_SERVER_INFO@@@Z" ; netui1.dll
"?Compare@OS_ACL_SUBJECT_ITER@@QEAAJPEAHPEAV1@@Z" ; netui1.dll
"?Compare@OS_SECURITY_DESCRIPTOR@@QEAAJPEAV1@PEAH111PEAU_GENERIC_MAPPING@@2HH@Z" ; netui1.dll
"?CompareACL@NET_ACCESS_1@@QEAAHPEAV1@@Z" ; netui1.dll
"?CompareBrowserServers@TRIPLE_SERVER_ENUM@@CAHPEBX0@Z" ; netui1.dll
"?CompareCurrentSubject@OS_DACL_SUBJECT_ITER@@UEAAHPEAVOS_ACL_SUBJECT_ITER@@@Z" ; netui1.dll
"?CompareCurrentSubject@OS_SACL_SUBJECT_ITER@@UEAAHPEAVOS_ACL_SUBJECT_ITER@@@Z" ; netui1.dll
"?CompareDomains0@DOMAIN0_ENUM@@CAHPEBX0@Z" ; netui1.dll
"?CompareLmServers@TRIPLE_SERVER_ENUM@@CAHPEBX0@Z" ; netui1.dll
"?CompareNtServers@TRIPLE_SERVER_ENUM@@CAHPEBX0@Z" ; netui1.dll
"?Connect@DEVICE2@@QEAAJPEBG000K@Z" ; netui1.dll
"?Connect@DEVICE@@QEAAJPEBG0@Z" ; netui1.dll
"?ConnectToNullSession@@YAJAEBVNLS_STR@@@Z" ; netui1.dll
"?Continue@LM_SERVICE@@QEAAJII@Z" ; netui1.dll
"?Control@SC_SERVICE@@QEAAJIPEAU_SERVICE_STATUS@@@Z" ; netui1.dll
"?Copy@OS_ACL@@QEAAJAEBV1@H@Z" ; netui1.dll
"?Copy@OS_SECURITY_DESCRIPTOR@@QEAAJAEBV1@@Z" ; netui1.dll
"?Copy@OS_SID@@QEAAJAEBV1@@Z" ; netui1.dll
"?CopyAccessPerms@NET_ACCESS_1@@QEAAJAEBV1@@Z" ; netui1.dll
"?CountServices@SERVICE_ENUM@@AEAAXPEAEPEAI1@Z" ; netui1.dll
"?CrackQualifiedAccountName@NT_ACCOUNTS_UTILITY@@SAJAEBVNLS_STR@@PEAV2@1@Z" ; netui1.dll
"?Create@LSA_SECRET@@QEAAJAEBVLSA_POLICY@@K@Z" ; netui1.dll
"?CreateNew@NEW_LM_OBJ@@QEAAJXZ" ; netui1.dll
"?CtAux@DOMAIN@@AEAAXPEBG0@Z" ; netui1.dll
"?CtAux@GROUP@@AEAAXPEBG@Z" ; netui1.dll
"?CtAux@GROUP_1@@AEAAXXZ" ; netui1.dll
"?CtAux@LOC_LM_OBJ@@AEAAXXZ" ; netui1.dll
"?CtAux@USER@@AEAAXPEBG@Z" ; netui1.dll
"?CtAux@USER_11@@AEAAXXZ" ; netui1.dll
"?CtAux@USER_2@@AEAAXXZ" ; netui1.dll
"?CtAux@USER_3@@AEAAXXZ" ; netui1.dll
"?Delete@LSA_TRUSTED_DOMAIN@@QEAAJXZ" ; netui1.dll
"?Delete@NET_ACCESS@@QEAAJXZ" ; netui1.dll
"?Delete@NEW_LM_OBJ@@QEAAJI@Z" ; netui1.dll
"?Delete@SAM_ALIAS@@QEAAJXZ" ; netui1.dll
"?Delete@SC_SERVICE@@QEAAJXZ" ; netui1.dll
"?DeleteACE@OS_ACL@@QEAAJK@Z" ; netui1.dll
"?DeleteAllTrustedDomains@LSA_POLICY@@IEAAJXZ" ; netui1.dll
"?DeleteAssocName@MEMBERSHIP_LM_OBJ@@QEAAJI@Z" ; netui1.dll
"?DeleteAssocName@MEMBERSHIP_LM_OBJ@@QEAAJPEBG@Z" ; netui1.dll
"?DeletePrivilege@LSA_ACCOUNT@@QEAAJU_LUID@@@Z" ; netui1.dll
"?DeregisterIter@LM_ENUM@@AEAAXXZ" ; netui1.dll
"?DeregisterIter@LM_RESUME_ENUM@@AEAAXXZ" ; netui1.dll
"?DetermineIfDomainMember@BROWSE_DOMAIN_ENUM@@AEAAJPEAH@Z" ; netui1.dll
"?Disconnect@DEVICE@@QEAAJI@Z" ; netui1.dll
"?Disconnect@DEVICE@@QEAAJPEBGI@Z" ; netui1.dll
"?DistrustDomain@LSA_POLICY@@QEAAJQEAXAEBVNLS_STR@@H@Z" ; netui1.dll
"?DoesKeepBuffers@LM_RESUME_ENUM@@QEBAHXZ" ; netui1.dll
"?EC_QueryBufferPtr@ENUM_CALLER_LM_OBJ@@EEBAPEAEXZ" ; netui1.dll
"?EC_QueryBufferPtr@LM_ENUM@@EEBAPEAEXZ" ; netui1.dll
"?EC_QueryBufferSize@ENUM_CALLER_LM_OBJ@@EEBAIXZ" ; netui1.dll
"?EC_ResizeBuffer@ENUM_CALLER_LM_OBJ@@EEAAJI@Z" ; netui1.dll
"?EC_SetBufferPtr@ENUM_CALLER_LM_OBJ@@EEAAJPEAE@Z" ; netui1.dll
"?EC_SetBufferPtr@LM_ENUM@@EEAAJPEAE@Z" ; netui1.dll
"?EnterCriticalSection@DOMAIN_WITH_DC_CACHE@@CAJXZ" ; netui1.dll
"?EnumAllComms@@YAKXZ" ; netui1.dll
"?EnumAllDrives@@YAKXZ" ; netui1.dll
"?EnumAllLPTs@@YAKXZ" ; netui1.dll
"?EnumComms@ITER_DEVICE@@AEAAPEBGXZ" ; netui1.dll
"?EnumDependent@SC_SERVICE@@QEAAJIPEAPEAU_ENUM_SERVICE_STATUSW@@PEAK@Z" ; netui1.dll
"?EnumDrives@ITER_DEVICE@@AEAAPEBGXZ" ; netui1.dll
"?EnumLPTs@ITER_DEVICE@@AEAAPEBGXZ" ; netui1.dll
"?EnumLmServices@SERVICE_ENUM@@AEAAJPEAPEAEPEAI@Z" ; netui1.dll
"?EnumLocalComms@@YAKXZ" ; netui1.dll
"?EnumLocalDrives@@YAKXZ" ; netui1.dll
"?EnumLocalLPTs@@YAKXZ" ; netui1.dll
"?EnumNetComms@@YAKXZ" ; netui1.dll
"?EnumNetDevices@@YAKH@Z" ; netui1.dll
"?EnumNetDrives@@YAKXZ" ; netui1.dll
"?EnumNetLPTs@@YAKXZ" ; netui1.dll
"?EnumNtServices@SERVICE_ENUM@@AEAAJPEAPEAEPEAI@Z" ; netui1.dll
"?EnumServiceStatus@SC_MANAGER@@QEAAJIIPEAPEAU_ENUM_SERVICE_STATUSW@@PEAKPEBG@Z" ; netui1.dll
"?EnumUnavailComms@@YAKXZ" ; netui1.dll
"?EnumUnavailDevices@@YAKH@Z" ; netui1.dll
"?EnumUnavailDrives@@YAKXZ" ; netui1.dll
"?EnumUnavailLPTs@@YAKXZ" ; netui1.dll
"?EnumerateAliases@SAM_DOMAIN@@QEBAJPEAVSAM_RID_ENUMERATION_MEM@@PEAKK@Z" ; netui1.dll
"?EnumerateAliasesForUser@SAM_DOMAIN@@QEBAJPEAXPEAVSAM_RID_MEM@@@Z" ; netui1.dll
"?EnumerateGroups@SAM_DOMAIN@@QEBAJPEAVSAM_RID_ENUMERATION_MEM@@PEAKK@Z" ; netui1.dll
"?EnumerateTrustedDomains@LSA_POLICY@@QEAAJPEAVLSA_TRUST_INFO_MEM@@PEAKK@Z" ; netui1.dll
"?EnumerateUsers@SAM_DOMAIN@@QEBAJPEAVSAM_RID_ENUMERATION_MEM@@PEAKKK@Z" ; netui1.dll
"?FillUnicodeString@@YAJPEAU_UNICODE_STRING@@AEBVNLS_STR@@@Z" ; netui1.dll
"?FindACE@NET_ACCESS_1@@AEBAPEAU_ACCESS_LIST@@PEBGW4PERMNAME_TYPE@@@Z" ; netui1.dll
"?FindACE@OS_ACL@@QEBAJAEBVOS_SID@@PEAHPEAVOS_ACE@@PEAKK@Z" ; netui1.dll
"?FindAssocName@MEMBERSHIP_LM_OBJ@@QEAAHPEBGPEAI@Z" ; netui1.dll
"?FindDcCache@DOMAIN_WITH_DC_CACHE@@CAPEBGPEBU_DC_CACHE_ENTRY@@PEBG@Z" ; netui1.dll
"?FindFirst@BROWSE_DOMAIN_ENUM@@QEAAPEBVBROWSE_DOMAIN_INFO@@K@Z" ; netui1.dll
"?FindNext@BROWSE_DOMAIN_ENUM@@QEAAPEBVBROWSE_DOMAIN_INFO@@K@Z" ; netui1.dll
"?FindNextSubject@OS_ACL_SUBJECT_ITER@@QEAAJPEAHPEAVOS_SID@@PEAVOS_ACE@@@Z" ; netui1.dll
"?FindPrivilege@OS_PRIVILEGE_SET@@QEBAJU_LUID@@@Z" ; netui1.dll
"?FixupPointer@NEW_LM_OBJ@@IEAAXPEAPEAGPEBV1@@Z" ; netui1.dll
"?FreeBuffer@ALIAS_ENUM@@MEAAXPEAPEAE@Z" ; netui1.dll
"?FreeBuffer@FILE_ENUM@@MEAAXPEAPEAE@Z" ; netui1.dll
"?FreeBuffer@LOC_LM_RESUME_ENUM@@MEAAXPEAPEAE@Z" ; netui1.dll
"?FreeBuffer@LSA_ENUM@@MEAAXPEAPEAE@Z" ; netui1.dll
"?FreeBuffer@LSA_MEMORY@@MEAAXXZ" ; netui1.dll
"?FreeBuffer@LSA_TRUSTED_DC_LIST@@AEAAXXZ" ; netui1.dll
"?FreeBuffer@NT_ACCOUNT_ENUM@@MEAAXPEAPEAE@Z" ; netui1.dll
"?FreeBuffer@SAM_MEMORY@@MEAAXXZ" ; netui1.dll
"?FreeBuffer@SAM_USER_ENUM@@MEAAXPEAPEAE@Z" ; netui1.dll
"?FreeBuffer@TRUSTED_DOMAIN_ENUM@@MEAAXPEAPEAE@Z" ; netui1.dll
"?FreeUnicodeString@@YAXPEAU_UNICODE_STRING@@@Z" ; netui1.dll
"?GetAccountDomain@LSA_POLICY@@QEBAJPEAVLSA_ACCT_DOM_INFO_MEM@@@Z" ; netui1.dll
"?GetAnyDC@DOMAIN@@SAJPEBG0PEAVNLS_STR@@@Z" ; netui1.dll
"?GetAnyDC@DOMAIN_WITH_DC_CACHE@@SAJPEBG0PEAVNLS_STR@@@Z" ; netui1.dll
"?GetAnyDCWorker@DOMAIN@@KAJPEBG0PEAVNLS_STR@@H@Z" ; netui1.dll
"?GetAnyDCWorker@DOMAIN_WITH_DC_CACHE@@KAJPEBG0PEAVNLS_STR@@H@Z" ; netui1.dll
"?GetAnyValidDC@DOMAIN@@SAJPEBG0PEAVNLS_STR@@@Z" ; netui1.dll
"?GetAnyValidDC@DOMAIN_WITH_DC_CACHE@@SAJPEBG0PEAVNLS_STR@@@Z" ; netui1.dll
"?GetAuditEventInfo@LSA_POLICY@@QEAAJPEAVLSA_AUDIT_EVENT_INFO_MEM@@@Z" ; netui1.dll
"?GetComment@ALIAS_ENUM_OBJ@@QEAAJAEBVSAM_DOMAIN@@PEAVNLS_STR@@@Z" ; netui1.dll
"?GetComment@SAM_ALIAS@@QEAAJPEAVNLS_STR@@@Z" ; netui1.dll
"?GetComment@SAM_GROUP@@QEAAJPEAVNLS_STR@@@Z" ; netui1.dll
"?GetDeviceInfo@NET_NAME@@AEAAJXZ" ; netui1.dll
"?GetInfo@DEVICE@@UEAAJXZ" ; netui1.dll
"?GetInfo@DOMAIN@@UEAAJXZ" ; netui1.dll
"?GetInfo@DOMAIN_WITH_DC_CACHE@@UEAAJXZ" ; netui1.dll
"?GetInfo@LM_ENUM@@QEAAJXZ" ; netui1.dll
"?GetInfo@LM_RESUME_ENUM@@QEAAJH@Z" ; netui1.dll
"?GetInfo@NEW_LM_OBJ@@QEAAJXZ" ; netui1.dll
"?GetInfo@USER_MODALS@@UEAAJXZ" ; netui1.dll
"?GetInfo@USER_MODALS_3@@UEAAJXZ" ; netui1.dll
"?GetInfoMulti@LM_RESUME_ENUM@@AEAAJXZ" ; netui1.dll
"?GetInfoSingle@LM_RESUME_ENUM@@AEAAJH@Z" ; netui1.dll
"?GetLanmanDomains@BROWSE_DOMAIN_ENUM@@AEAAJK@Z" ; netui1.dll
"?GetLogonDomainDC@BROWSE_DOMAIN_ENUM@@AEAAJPEAVNLS_STR@@@Z" ; netui1.dll
"?GetMembers@SAM_ALIAS@@QEAAJPEAVSAM_SID_MEM@@@Z" ; netui1.dll
"?GetMembers@SAM_GROUP@@QEAAJPEAVSAM_RID_MEM@@@Z" ; netui1.dll
"?GetPasswordInfo@SAM_DOMAIN@@QEBAJPEAVSAM_PSWD_DOM_INFO_MEM@@@Z" ; netui1.dll
"?GetPrimaryDomain@LSA_POLICY@@QEBAJPEAVLSA_PRIMARY_DOM_INFO_MEM@@@Z" ; netui1.dll
"?GetQualifiedAccountNames@NT_ACCOUNTS_UTILITY@@SAJAEAVLSA_POLICY@@AEBVSAM_DOMAIN@@PEBQEAXKHPEAVSTRLIST@@PEAKPEAW4_SID_NAME_USE@@PEAJPEBG3333@Z" ; netui1.dll
"?GetQualifiedAccountNames@NT_ACCOUNTS_UTILITY@@SAJAEAVLSA_POLICY@@QEAXPEBQEAXKHPEAVSTRLIST@@PEAKPEAW4_SID_NAME_USE@@PEAJPEBG3333@Z" ; netui1.dll
"?GetResourceCount@LM_SRVRES@@SAJPEBGPEAK11111@Z" ; netui1.dll
"?GetServerRole@LSA_POLICY@@QEBAJPEAVLSA_SERVER_ROLE_INFO_MEM@@@Z" ; netui1.dll
"?GetSessionsCount@LM_SRVRES@@SAJPEBGPEAK@Z" ; netui1.dll
"?GetTrustingDomains@BROWSE_DOMAIN_ENUM@@AEAAJXZ" ; netui1.dll
"?GetW32ComputerName@@YAJAEAVNLS_STR@@@Z" ; netui1.dll
"?GetW32UserAndDomainName@@YAJAEAVNLS_STR@@0@Z" ; netui1.dll
"?GetW32UserName@@YAJAEAVNLS_STR@@@Z" ; netui1.dll
"?GetWorkgroupDomains@BROWSE_DOMAIN_ENUM@@AEAAJXZ" ; netui1.dll
"?HandleNullAccount@USER@@IEAAJXZ" ; netui1.dll
"?HasInheritOnlyAce@OS_DACL_SUBJECT_ITER@@QEBAHXZ" ; netui1.dll
"?HasInheritOnlyAuditAce_F@OS_SACL_SUBJECT_ITER@@QEBAHXZ" ; netui1.dll
"?HasInheritOnlyAuditAce_S@OS_SACL_SUBJECT_ITER@@QEBAHXZ" ; netui1.dll
"?HasMoreData@LM_RESUME_ENUM_ITER@@IEBAHXZ" ; netui1.dll
"?HasNewContainerAce@OS_DACL_SUBJECT_ITER@@QEBAHXZ" ; netui1.dll
"?HasNewContainerAuditAce_F@OS_SACL_SUBJECT_ITER@@QEBAHXZ" ; netui1.dll
"?HasNewContainerAuditAce_S@OS_SACL_SUBJECT_ITER@@QEBAHXZ" ; netui1.dll
"?HasNewObjectAce@OS_DACL_SUBJECT_ITER@@QEBAHXZ" ; netui1.dll
"?HasNewObjectAuditAce_F@OS_SACL_SUBJECT_ITER@@QEBAHXZ" ; netui1.dll
"?HasNewObjectAuditAce_S@OS_SACL_SUBJECT_ITER@@QEBAHXZ" ; netui1.dll
"?HasThisAce@OS_DACL_SUBJECT_ITER@@QEBAHXZ" ; netui1.dll
"?HasThisAuditAce_F@OS_SACL_SUBJECT_ITER@@QEBAHXZ" ; netui1.dll
"?HasThisAuditAce_S@OS_SACL_SUBJECT_ITER@@QEBAHXZ" ; netui1.dll
"?I_AppendToSTRLIST@@YAJPEAVSTRLIST@@AEAVNLS_STR@@@Z" ; netui1.dll
"?I_ChangeToNew@GROUP_1@@MEAAJXZ" ; netui1.dll
"?I_ChangeToNew@GROUP_MEMB@@MEAAJXZ" ; netui1.dll
"?I_ChangeToNew@NEW_LM_OBJ@@MEAAJXZ" ; netui1.dll
"?I_ChangeToNew@USER_2@@MEAAJXZ" ; netui1.dll
"?I_ChangeToNew@USER_3@@MEAAJXZ" ; netui1.dll
"?I_ChangeToNew@USER_MEMB@@MEAAJXZ" ; netui1.dll
"?I_CreateNew@GROUP_1@@MEAAJXZ" ; netui1.dll
"?I_CreateNew@GROUP_MEMB@@MEAAJXZ" ; netui1.dll
"?I_CreateNew@LSA_ACCOUNT@@MEAAJXZ" ; netui1.dll
"?I_CreateNew@NET_ACCESS_1@@MEAAJXZ" ; netui1.dll
"?I_CreateNew@NEW_LM_OBJ@@MEAAJXZ" ; netui1.dll
"?I_CreateNew@SHARE_2@@MEAAJXZ" ; netui1.dll
"?I_CreateNew@USER_2@@MEAAJXZ" ; netui1.dll
"?I_CreateNew@USER_3@@MEAAJXZ" ; netui1.dll
"?I_CreateNew@USER_MEMB@@MEAAJXZ" ; netui1.dll
"?I_Delete@GROUP@@MEAAJI@Z" ; netui1.dll
"?I_Delete@LM_SESSION@@MEAAJI@Z" ; netui1.dll
"?I_Delete@LSA_ACCOUNT@@MEAAJI@Z" ; netui1.dll
"?I_Delete@NEW_LM_OBJ@@MEAAJI@Z" ; netui1.dll
"?I_Delete@SHARE@@MEAAJI@Z" ; netui1.dll
"?I_Delete@USER@@MEAAJI@Z" ; netui1.dll
"?I_FetchAliasFields@@YAJPEAVNLS_STR@@PEAPEAVADMIN_AUTHORITY@@PEAVSLIST_OF_ADMIN_AUTHORITY@@KHAEBV1@PEBV1@PEAJ@Z" ; netui1.dll
"?I_FetchDCList@@YAJAEBVLSA_TRANSLATED_NAME_MEM@@AEBVLSA_REF_DOMAIN_MEM@@PEAX2PEAPEAVNLS_STR@@PEAVSTRLIST@@PEAHPEAJPEBGHHH@Z" ; netui1.dll
"?I_FetchGroupFields@@YAJPEAVNLS_STR@@AEBV1@PEBV1@PEAJ@Z" ; netui1.dll
"?I_FetchUserFields@@YAJPEAVNLS_STR@@0PEAKAEBV1@PEBV1@PEAJ@Z" ; netui1.dll
"?I_GetInfo@GROUP_1@@MEAAJXZ" ; netui1.dll
"?I_GetInfo@LM_FILE_2@@MEAAJXZ" ; netui1.dll
"?I_GetInfo@LM_FILE_3@@MEAAJXZ" ; netui1.dll
"?I_GetInfo@LM_SESSION_0@@MEAAJXZ" ; netui1.dll
"?I_GetInfo@LM_SESSION_10@@MEAAJXZ" ; netui1.dll
"?I_GetInfo@LM_SESSION_1@@MEAAJXZ" ; netui1.dll
"?I_GetInfo@LM_SESSION_2@@MEAAJXZ" ; netui1.dll
"?I_GetInfo@LOCAL_USER@@MEAAJXZ" ; netui1.dll
"?I_GetInfo@LSA_ACCOUNT@@MEAAJXZ" ; netui1.dll
"?I_GetInfo@MEMBERSHIP_LM_OBJ@@MEAAJXZ" ; netui1.dll
"?I_GetInfo@NET_ACCESS_1@@MEAAJXZ" ; netui1.dll
"?I_GetInfo@NEW_LM_OBJ@@MEAAJXZ" ; netui1.dll
"?I_GetInfo@SERVER_0@@MEAAJXZ" ; netui1.dll
"?I_GetInfo@SERVER_1@@MEAAJXZ" ; netui1.dll
"?I_GetInfo@SERVER_2@@MEAAJXZ" ; netui1.dll
"?I_GetInfo@SHARE_1@@MEAAJXZ" ; netui1.dll
"?I_GetInfo@SHARE_2@@MEAAJXZ" ; netui1.dll
"?I_GetInfo@TIME_OF_DAY@@MEAAJXZ" ; netui1.dll
"?I_GetInfo@USER_11@@MEAAJXZ" ; netui1.dll
"?I_GetInfo@USER_2@@MEAAJXZ" ; netui1.dll
"?I_GetInfo@USER_3@@MEAAJXZ" ; netui1.dll
"?I_GetInfo@WKSTA_10@@UEAAJXZ" ; netui1.dll
"?I_GetInfo@WKSTA_1@@UEAAJXZ" ; netui1.dll
"?I_GetInfo@WKSTA_USER_1@@MEAAJXZ" ; netui1.dll
"?I_WriteInfo@GROUP_1@@MEAAJXZ" ; netui1.dll
"?I_WriteInfo@GROUP_MEMB@@MEAAJXZ" ; netui1.dll
"?I_WriteInfo@LSA_ACCOUNT@@MEAAJXZ" ; netui1.dll
"?I_WriteInfo@NET_ACCESS_1@@MEAAJXZ" ; netui1.dll
"?I_WriteInfo@NEW_LM_OBJ@@MEAAJXZ" ; netui1.dll
"?I_WriteInfo@SERVER_1@@MEAAJXZ" ; netui1.dll
"?I_WriteInfo@SERVER_2@@MEAAJXZ" ; netui1.dll
"?I_WriteInfo@SHARE_1@@MEAAJXZ" ; netui1.dll
"?I_WriteInfo@SHARE_2@@MEAAJXZ" ; netui1.dll
"?I_WriteInfo@USER_2@@MEAAJXZ" ; netui1.dll
"?I_WriteInfo@USER_3@@MEAAJXZ" ; netui1.dll
"?I_WriteInfo@USER_MEMB@@MEAAJXZ" ; netui1.dll
"?I_WriteInfo@WKSTA_USER_1@@MEAAJXZ" ; netui1.dll
"?I_WriteInfoAux@NET_ACCESS_1@@AEAAJXZ" ; netui1.dll
"?I_WriteNew@GROUP_1@@MEAAJXZ" ; netui1.dll
"?I_WriteNew@LSA_ACCOUNT@@MEAAJXZ" ; netui1.dll
"?I_WriteNew@MEMBERSHIP_LM_OBJ@@MEAAJXZ" ; netui1.dll
"?I_WriteNew@NET_ACCESS_1@@MEAAJXZ" ; netui1.dll
"?I_WriteNew@NEW_LM_OBJ@@MEAAJXZ" ; netui1.dll
"?I_WriteNew@SHARE_2@@MEAAJXZ" ; netui1.dll
"?I_WriteNew@USER_2@@MEAAJXZ" ; netui1.dll
"?I_WriteNew@USER_3@@MEAAJXZ" ; netui1.dll
"?InitObjectAttributes@LSA_POLICY@@CAXPEAU_OBJECT_ATTRIBUTES@@PEAU_SECURITY_QUALITY_OF_SERVICE@@@Z" ; netui1.dll
"?InitToZero@OS_SACL_SUBJECT_DESCRIPTOR@@QEAAXXZ" ; netui1.dll
"?InitToZero@OS_SACL_SUBJECT_ITER@@AEAAXXZ" ; netui1.dll
"?InitializeMemory@OS_PRIVILEGE_SET@@AEAAXXZ" ; netui1.dll
"?InitializeMemory@OS_SID@@SAXPEAX@Z" ; netui1.dll
"?Insert@SLIST_OF_BROWSE_DOMAIN_INFO@@QEAAJPEBVBROWSE_DOMAIN_INFO@@AEAVITER_SL_BROWSE_DOMAIN_INFO@@@Z" ; netui1.dll
"?InsertPrivilege@LSA_ACCOUNT@@QEAAJU_LUID@@K@Z" ; netui1.dll
"?IsAccountsOperator@USER_11@@QEBAHXZ" ; netui1.dll
"?IsCommOperator@USER_11@@QEBAHXZ" ; netui1.dll
"?IsContainer@OS_ACL_SUBJECT_ITER@@QEBAHXZ" ; netui1.dll
"?IsContinuing@LM_SERVICE@@QEAAHPEAJ@Z" ; netui1.dll
"?IsDACLDefaulted@OS_SECURITY_DESCRIPTOR_CONTROL@@QEBAHXZ" ; netui1.dll
"?IsDACLPresent@OS_SECURITY_DESCRIPTOR@@QEBAHXZ" ; netui1.dll
"?IsDACLPresent@OS_SECURITY_DESCRIPTOR_CONTROL@@QEBAHXZ" ; netui1.dll
"?IsDefaultSettings@LSA_ACCOUNT@@QEAAHXZ" ; netui1.dll
"?IsDenyAll@OS_DACL_SUBJECT_ITER@@QEBAHXZ" ; netui1.dll
"?IsDomain@LOCATION@@QEBAHXZ" ; netui1.dll
"?IsEncrypted@LM_SESSION_1@@QEBAHXZ" ; netui1.dll
"?IsGroupDefaulted@OS_SECURITY_DESCRIPTOR_CONTROL@@QEBAHXZ" ; netui1.dll
"?IsGuest@LM_SESSION_1@@QEBAHXZ" ; netui1.dll
"?IsHandleValid@LSA_OBJECT@@QEBAHXZ" ; netui1.dll
"?IsInheritOnly@OS_ACE@@QEBAHXZ" ; netui1.dll
"?IsInheritOnlyDenyAll@OS_DACL_SUBJECT_ITER@@QEBAHXZ" ; netui1.dll
"?IsInheritancePropagated@OS_ACE@@QEBAHXZ" ; netui1.dll
"?IsInherittedByNewContainers@OS_ACE@@QEBAHXZ" ; netui1.dll
"?IsInherittedByNewObjects@OS_ACE@@QEBAHXZ" ; netui1.dll
"?IsInvalid@LM_OBJ@@IEBAHXZ" ; netui1.dll
"?IsInvalid@LM_OBJ_BASE@@AEBAHXZ" ; netui1.dll
"?IsKnownACE@OS_ACE@@QEBAHXZ" ; netui1.dll
"?IsLocal@NET_NAME@@QEAAHPEAJ@Z" ; netui1.dll
"?IsNew@NEW_LM_OBJ@@AEBAHXZ" ; netui1.dll
"?IsNewContainerDenyAll@OS_DACL_SUBJECT_ITER@@QEBAHXZ" ; netui1.dll
"?IsNewObjectDenyAll@OS_DACL_SUBJECT_ITER@@QEBAHXZ" ; netui1.dll
"?IsOKState@NEW_LM_OBJ@@IEBAHXZ" ; netui1.dll
"?IsOwnerAlloc@OS_ACE@@IEBAHXZ" ; netui1.dll
"?IsOwnerAlloc@OS_ACL@@IEBAHXZ" ; netui1.dll
"?IsOwnerAlloc@OS_PRIVILEGE_SET@@AEBAHXZ" ; netui1.dll
"?IsOwnerAlloc@OS_SID@@IEBAHXZ" ; netui1.dll
"?IsOwnerDefaulted@OS_SECURITY_DESCRIPTOR_CONTROL@@QEBAHXZ" ; netui1.dll
"?IsPaused@LM_SERVICE@@QEAAHPEAJ@Z" ; netui1.dll
"?IsPausing@LM_SERVICE@@QEAAHPEAJ@Z" ; netui1.dll
"?IsPermCreate@LM_FILE_3@@QEBAHXZ" ; netui1.dll
"?IsPermRead@LM_FILE_3@@QEBAHXZ" ; netui1.dll
"?IsPermWrite@LM_FILE_3@@QEBAHXZ" ; netui1.dll
"?IsPrintOperator@USER_11@@QEBAHXZ" ; netui1.dll
"?IsSACLDefaulted@OS_SECURITY_DESCRIPTOR_CONTROL@@QEBAHXZ" ; netui1.dll
"?IsSACLPresent@OS_SECURITY_DESCRIPTOR@@QEBAHXZ" ; netui1.dll
"?IsSACLPresent@OS_SECURITY_DESCRIPTOR_CONTROL@@QEBAHXZ" ; netui1.dll
"?IsServer@LOCATION@@QEBAHXZ" ; netui1.dll
"?IsServerOperator@USER_11@@QEBAHXZ" ; netui1.dll
"?IsSharable@NET_NAME@@QEAAHPEAJ@Z" ; netui1.dll
"?IsStarted@LM_SERVICE@@QEAAHPEAJ@Z" ; netui1.dll
"?IsStarting@LM_SERVICE@@QEAAHPEAJ@Z" ; netui1.dll
"?IsStopped@LM_SERVICE@@QEAAHPEAJ@Z" ; netui1.dll
"?IsStopping@LM_SERVICE@@QEAAHPEAJ@Z" ; netui1.dll
"?IsUnconstructed@LM_OBJ@@IEBAHXZ" ; netui1.dll
"?IsUnconstructed@LM_OBJ_BASE@@AEBAHXZ" ; netui1.dll
"?IsValid@LM_OBJ@@IEBAHXZ" ; netui1.dll
"?IsValid@LM_OBJ_BASE@@AEBAHXZ" ; netui1.dll
"?IsValid@OS_ACL@@QEBAHXZ" ; netui1.dll
"?IsValid@OS_SECURITY_DESCRIPTOR@@QEBAHXZ" ; netui1.dll
"?IsValid@OS_SID@@QEBAHXZ" ; netui1.dll
"?IsValidDC@DOMAIN@@SAHPEBG0@Z" ; netui1.dll
"?IsValidationOn@LM_OBJ_BASE@@QEAAHXZ" ; netui1.dll
"?IsWhiteSpace@@YAHG@Z" ; netui1.dll
"?JoinDomain@LSA_POLICY@@QEAAJAEBVNLS_STR@@0HPEBV2@PEBG@Z" ; netui1.dll
"?LMOTypeToNetType@@YAHW4LMO_DEVICE@@@Z" ; netui1.dll
"?LeaveCriticalSection@DOMAIN_WITH_DC_CACHE@@CAXXZ" ; netui1.dll
"?LeaveDomain@LSA_POLICY@@QEAAJXZ" ; netui1.dll
"?Lock@SC_MANAGER@@QEAAJXZ" ; netui1.dll
"?LsaxGetComputerName@@YAJPEAVNLS_STR@@@Z" ; netui1.dll
"?MakeConstructed@LM_OBJ@@IEAAXXZ" ; netui1.dll
"?MakeConstructed@LM_OBJ_BASE@@AEAAXXZ" ; netui1.dll
"?MakeInvalid@LM_OBJ@@IEAAXXZ" ; netui1.dll
"?MakeInvalid@LM_OBJ_BASE@@AEAAXXZ" ; netui1.dll
"?MakeNew@NEW_LM_OBJ@@AEAAXXZ" ; netui1.dll
"?MakeNullNull@@YAKPEBGPEAPEAG@Z" ; netui1.dll
"?MakeSecretName@LSA_POLICY@@CAJAEBVNLS_STR@@HPEAV2@@Z" ; netui1.dll
"?MakeUnconstructed@LM_OBJ@@IEAAXXZ" ; netui1.dll
"?MakeUnconstructed@LM_OBJ_BASE@@AEAAXXZ" ; netui1.dll
"?MakeValid@LM_OBJ@@IEAAXXZ" ; netui1.dll
"?MakeValid@LM_OBJ_BASE@@AEAAXXZ" ; netui1.dll
"?MapBrowserToTriple@TRIPLE_SERVER_ENUM@@AEAAXPEBU_SERVER_INFO_101@@PEAU_TRIPLE_SERVER_INFO@@@Z" ; netui1.dll
"?MapComm@@YAKPEBG@Z" ; netui1.dll
"?MapDrive@@YAKPEBG@Z" ; netui1.dll
"?MapGenericAllOnly@OS_ACL_SUBJECT_ITER@@QEBAHXZ" ; netui1.dll
"?MapKnownToTriple@TRIPLE_SERVER_ENUM@@AEAAXPEBU_KNOWN_SERVER_INFO@@PEAU_TRIPLE_SERVER_INFO@@@Z" ; netui1.dll
"?MapLPT@@YAKPEBG@Z" ; netui1.dll
"?MapLmStatusToNtState@SERVICE_ENUM@@AEAAXKPEAK0@Z" ; netui1.dll
"?MapLmToKnown@TRIPLE_SERVER_ENUM@@AEAAXPEBU_USER_INFO_0@@PEAU_KNOWN_SERVER_INFO@@@Z" ; netui1.dll
"?MapNtToKnown@TRIPLE_SERVER_ENUM@@AEAAXPEBU_DOMAIN_DISPLAY_MACHINE@@PEAU_KNOWN_SERVER_INFO@@@Z" ; netui1.dll
"?MapSpecificToGeneric@OS_ACL_SUBJECT_ITER@@QEAAJPEAKH@Z" ; netui1.dll
"?MapTypeMaskToRole@TRIPLE_SERVER_ENUM@@AEBA?AW4_SERVER_ROLE@@K@Z" ; netui1.dll
"?MapTypeMaskToType@TRIPLE_SERVER_ENUM@@AEBA?AW4_SERVER_TYPE@@K@Z" ; netui1.dll
"?NetTypeToLMOType@@YA?AW4LMO_DEVICE@@K@Z" ; netui1.dll
"?Next@ALIAS_ENUM_ITER@@QEAAPEBVALIAS_ENUM_OBJ@@PEAJH@Z" ; netui1.dll
"?Next@BROWSE_DOMAIN_ENUM@@QEAAPEBVBROWSE_DOMAIN_INFO@@XZ" ; netui1.dll
"?Next@FILE2_ENUM_ITER@@QEAAPEBVFILE2_ENUM_OBJ@@PEAJH@Z" ; netui1.dll
"?Next@FILE3_ENUM_ITER@@QEAAPEBVFILE3_ENUM_OBJ@@PEAJH@Z" ; netui1.dll
"?Next@ITER_DEVICE@@QEAAPEBGXZ" ; netui1.dll
"?Next@ITER_SL_BROWSE_DOMAIN_INFO@@QEAAPEAVBROWSE_DOMAIN_INFO@@XZ" ; netui1.dll
"?Next@ITER_SL_LM_RESUME_BUFFER@@QEAAPEAVLM_RESUME_BUFFER@@XZ" ; netui1.dll
"?Next@ITER_SL_NLS_STR@@QEAAPEAVNLS_STR@@XZ" ; netui1.dll
"?Next@LSA_ACCOUNTS_ENUM_ITER@@QEAAPEBVLSA_ACCOUNTS_ENUM_OBJ@@PEAJH@Z" ; netui1.dll
"?Next@LSA_PRIVILEGES_ENUM_ITER@@QEAAPEBVLSA_PRIVILEGES_ENUM_OBJ@@PEAJH@Z" ; netui1.dll
"?Next@NT_GROUP_ENUM_ITER@@QEAAPEBVNT_GROUP_ENUM_OBJ@@PEAJH@Z" ; netui1.dll
"?Next@NT_MACHINE_ENUM_ITER@@QEAAPEBVNT_MACHINE_ENUM_OBJ@@PEAJH@Z" ; netui1.dll
"?Next@NT_USER_ENUM_ITER@@QEAAPEBVNT_USER_ENUM_OBJ@@PEAJH@Z" ; netui1.dll
"?Next@OS_DACL_SUBJECT_ITER@@UEAAHPEAJ@Z" ; netui1.dll
"?Next@OS_SACL_SUBJECT_ITER@@UEAAHPEAJ@Z" ; netui1.dll
"?Next@SAM_USER_ENUM_ITER@@QEAAPEBVSAM_USER_ENUM_OBJ@@PEAJH@Z" ; netui1.dll
"?Next@TRUSTED_DOMAIN_ENUM_ITER@@QEAAPEBVTRUSTED_DOMAIN_ENUM_OBJ@@PEAJH@Z" ; netui1.dll
"?Next@USER0_ENUM_ITER@@QEAAPEBVUSER0_ENUM_OBJ@@PEAJH@Z" ; netui1.dll
"?Next@USER10_ENUM_ITER@@QEAAPEBVUSER10_ENUM_OBJ@@PEAJH@Z" ; netui1.dll
"?Next@USER1_ENUM_ITER@@QEAAPEBVUSER1_ENUM_OBJ@@PEAJH@Z" ; netui1.dll
"?Next@USER2_ENUM_ITER@@QEAAPEBVUSER2_ENUM_OBJ@@PEAJH@Z" ; netui1.dll
"?NextGetInfo@LM_RESUME_ENUM_ITER@@IEAAJXZ" ; netui1.dll
"?NukeBuffers@LM_RESUME_ENUM@@IEAAXXZ" ; netui1.dll
"?NukeUsersSession@LM_SRVRES@@SAJPEBG00@Z" ; netui1.dll
"?Open@LSA_POLICY@@QEAAJPEBGK@Z" ; netui1.dll
"?Open@LSA_SECRET@@QEAAJAEBVLSA_POLICY@@K@Z" ; netui1.dll
"?OpenDomain@SAM_DOMAIN@@AEAAJAEBVSAM_SERVER@@PEAXK@Z" ; netui1.dll
"?Pause@LM_SERVICE@@QEAAJII@Z" ; netui1.dll
"?Poll@LM_SERVICE@@QEAAJPEAH@Z" ; netui1.dll
"?PrintInfo@LSA_ACCOUNT@@IEAAXPEBG@Z" ; netui1.dll
"?QueryACE@NET_ACCESS_1@@QEBAPEAU_ACCESS_LIST@@I@Z" ; netui1.dll
"?QueryACE@OS_ACE@@QEBAPEAXXZ" ; netui1.dll
"?QueryACE@OS_ACL@@QEBAJKPEAVOS_ACE@@@Z" ; netui1.dll
"?QueryACECount@NET_ACCESS_1@@QEBAIXZ" ; netui1.dll
"?QueryACECount@OS_ACL@@QEBAJPEAK@Z" ; netui1.dll
"?QueryACL@OS_ACL_SUBJECT_ITER@@IEBAPEBVOS_ACL@@XZ" ; netui1.dll
"?QueryAccessAccountDomain@ADMIN_AUTHORITY@@QEBAKXZ" ; netui1.dll
"?QueryAccessBuiltinDomain@ADMIN_AUTHORITY@@QEBAKXZ" ; netui1.dll
"?QueryAccessLSAPolicy@ADMIN_AUTHORITY@@QEBAKXZ" ; netui1.dll
"?QueryAccessMask@OS_ACE@@QEBAKXZ" ; netui1.dll
"?QueryAccessMask@OS_DACL_SUBJECT_ITER@@QEBAKXZ" ; netui1.dll
"?QueryAccessSamServer@ADMIN_AUTHORITY@@QEBAKXZ" ; netui1.dll
"?QueryAccountCtrl@NT_MACHINE_ENUM_OBJ@@QEBAIXZ" ; netui1.dll
"?QueryAccountDisabled@USER_2@@QEBAHXZ" ; netui1.dll
"?QueryAccountDomain@ADMIN_AUTHORITY@@QEBAPEAVSAM_DOMAIN@@XZ" ; netui1.dll
"?QueryAccountExpires@USER_2@@QEBAJXZ" ; netui1.dll
"?QueryAccountType@USER_3@@QEBA?AW4_ACCOUNT_TYPE@@XZ" ; netui1.dll
"?QueryAceFlags@OS_ACE@@QEBAEXZ" ; netui1.dll
"?QueryAcl@OS_ACL@@QEBAPEAU_ACL@@XZ" ; netui1.dll
"?QueryAllocSize@OS_OBJECT_WITH_DATA@@IEBAIXZ" ; netui1.dll
"?QueryAnyDC@DOMAIN@@QEBAPEBGXZ" ; netui1.dll
"?QueryAssocName@MEMBERSHIP_LM_OBJ@@QEBAPEBGI@Z" ; netui1.dll
"?QueryAuditAccessMask_F@OS_SACL_SUBJECT_ITER@@QEBAKXZ" ; netui1.dll
"?QueryAuditAccessMask_S@OS_SACL_SUBJECT_ITER@@QEBAKXZ" ; netui1.dll
"?QueryAuthFlags@LOCAL_USER@@UEBAKXZ" ; netui1.dll
"?QueryAuthFlags@USER_11@@UEBAKXZ" ; netui1.dll
"?QueryBasePtr@LM_ENUM_ITER@@IEBAPEAEXZ" ; netui1.dll
"?QueryBasePtr@LM_RESUME_ENUM_ITER@@IEBAPEBEXZ" ; netui1.dll
"?QueryBufPtr@DEVICE@@IEAAPEAEXZ" ; netui1.dll
"?QueryBuffer@NT_MEMORY@@IEBAPEAXXZ" ; netui1.dll
"?QueryBuffer@SERVICE_CONTROL@@QEBAAEBVBUFFER@@XZ" ; netui1.dll
"?QueryBufferPtr@ALIAS_ENUM_OBJ@@QEBAPEBU_SAM_RID_ENUMERATION@@XZ" ; netui1.dll
"?QueryBufferPtr@DOMAIN0_ENUM_OBJ@@QEBAPEBU_SERVER_INFO_100@@XZ" ; netui1.dll
"?QueryBufferPtr@ENUM_OBJ_BASE@@IEBAPEBEXZ" ; netui1.dll
"?QueryBufferPtr@FILE3_ENUM_OBJ@@QEBAPEBU_FILE_INFO_3@@XZ" ; netui1.dll
"?QueryBufferPtr@GROUP0_ENUM_OBJ@@QEBAPEBU_GROUP_INFO_0@@XZ" ; netui1.dll
"?QueryBufferPtr@LM_RESUME_BUFFER@@QEBAPEBEXZ" ; netui1.dll
"?QueryBufferPtr@LSA_PRIVILEGES_ENUM_OBJ@@QEBAPEBU_POLICY_PRIVILEGE_DEFINITION@@XZ" ; netui1.dll
"?QueryBufferPtr@NEW_LM_OBJ@@IEBAPEAEXZ" ; netui1.dll
"?QueryBufferPtr@NT_MACHINE_ENUM_OBJ@@QEBAPEBU_DOMAIN_DISPLAY_MACHINE@@XZ" ; netui1.dll
"?QueryBufferPtr@SAM_USER_ENUM_OBJ@@QEBAPEBU_SAM_RID_ENUMERATION@@XZ" ; netui1.dll
"?QueryBufferPtr@SERVER1_ENUM_OBJ@@QEBAPEBU_SERVER_INFO_101@@XZ" ; netui1.dll
"?QueryBufferPtr@USER0_ENUM_OBJ@@QEBAPEBU_USER_INFO_0@@XZ" ; netui1.dll
"?QueryBufferSize@NEW_LM_OBJ@@IEBAIXZ" ; netui1.dll
"?QueryBuiltinDomain@ADMIN_AUTHORITY@@QEBAPEAVSAM_DOMAIN@@XZ" ; netui1.dll
"?QueryBytesInUse@OS_ACL@@QEBAJPEAK@Z" ; netui1.dll
"?QueryClientType@LM_SESSION_2@@QEBAPEBGXZ" ; netui1.dll
"?QueryComment@GROUP_1@@QEBAPEBGXZ" ; netui1.dll
"?QueryComment@SERVER1_ENUM_OBJ@@QEBAPEBGXZ" ; netui1.dll
"?QueryComment@SERVER_1@@QEBAPEBGXZ" ; netui1.dll
"?QueryComment@SHARE_1@@QEBAPEBGXZ" ; netui1.dll
"?QueryComment@USER_11@@QEBAPEBGXZ" ; netui1.dll
"?QueryComputerName@NET_NAME@@QEAAJPEAVNLS_STR@@@Z" ; netui1.dll
"?QueryConfig@SC_SERVICE@@QEAAJPEAPEAU_QUERY_SERVICE_CONFIGW@@@Z" ; netui1.dll
"?QueryControl@OS_SECURITY_DESCRIPTOR@@QEBAPEBVOS_SECURITY_DESCRIPTOR_CONTROL@@XZ" ; netui1.dll
"?QueryControllerList@LSA_TRUSTED_DC_LIST@@QEBAAEBU_TRUSTED_CONTROLLERS_INFO@@XZ" ; netui1.dll
"?QueryControllerList@LSA_TRUSTED_DOMAIN@@QEBAJPEAVLSA_REF_DOMAIN_MEM@@@Z" ; netui1.dll
"?QueryCount@ENUM_CALLER@@QEBAIXZ" ; netui1.dll
"?QueryCount@LM_ENUM_ITER@@IEBAIXZ" ; netui1.dll
"?QueryCount@LM_RESUME_ENUM_ITER@@IEBAIXZ" ; netui1.dll
"?QueryCount@LSA_TRUSTED_DC_LIST@@QEAAHXZ" ; netui1.dll
"?QueryCount@NT_MEMORY@@QEBAKXZ" ; netui1.dll
"?QueryCountPreferences2@NT_ACCOUNT_ENUM@@KAJPEAK0IKKK@Z" ; netui1.dll
"?QueryCountPreferences@NT_ACCOUNT_ENUM@@MEAAJPEAK0IKKK@Z" ; netui1.dll
"?QueryCurrentACE@OS_ACL_SUBJECT_ITER@@IEBAKXZ" ; netui1.dll
"?QueryCurrentUser@LSA_POLICY@@QEBAJPEAVNLS_STR@@@Z" ; netui1.dll
"?QueryCurrentUses@SHARE_2@@QEBAIXZ" ; netui1.dll
"?QueryDACL@OS_SECURITY_DESCRIPTOR@@QEBAJPEAHPEAPEAVOS_ACL@@0@Z" ; netui1.dll
"?QueryDcName@LSA_DOMAIN_INFO@@QEAAJPEAVNLS_STR@@@Z" ; netui1.dll
"?QueryDevType@DEVICE@@IEBA?AW4LMO_DEVICE@@XZ" ; netui1.dll
"?QueryDisplayName@LOCATION@@QEBAJPEAVNLS_STR@@@Z" ; netui1.dll
"?QueryDisplayName@LSA_PRIVILEGES_ENUM_OBJ@@QEBAJPEAVNLS_STR@@PEBVLSA_POLICY@@@Z" ; netui1.dll
"?QueryDomain@LOCATION@@QEBAPEBGXZ" ; netui1.dll
"?QueryDomainIndex@LSA_TRANSLATED_NAME_MEM@@QEBAJK@Z" ; netui1.dll
"?QueryDomainName@BROWSE_DOMAIN_INFO@@QEBAPEBGXZ" ; netui1.dll
"?QueryDomainSources@BROWSE_DOMAIN_INFO@@QEBAKXZ" ; netui1.dll
"?QueryDrive@NET_NAME@@QEAAJPEAVNLS_STR@@@Z" ; netui1.dll
"?QueryDuration@USER_MODALS_3@@QEBAKXZ" ; netui1.dll
"?QueryError@BASE@@QEBAJXZ" ; netui1.dll
"?QueryExitCode@LM_SERVICE@@QEBAJXZ" ; netui1.dll
"?QueryFailingName@NET_ACCESS_1@@QEBAJPEAVNLS_STR@@PEAW4PERMNAME_TYPE@@@Z" ; netui1.dll
"?QueryFailingNameIndex@LSA_TRANSLATED_SID_MEM@@QEAAHPEAK@Z" ; netui1.dll
"?QueryFileId@LM_FILE@@QEBAKXZ" ; netui1.dll
"?QueryForceLogoff@USER_MODALS@@QEBAKXZ" ; netui1.dll
"?QueryFullName@USER_11@@QEBAPEBGXZ" ; netui1.dll
"?QueryFullStatus@LM_SERVICE@@QEAAJPEAW4LM_SERVICE_STATUS@@PEAULM_SERVICE_OTHER_STATUS@@@Z" ; netui1.dll
"?QueryGroup@OS_SECURITY_DESCRIPTOR@@QEBAJPEAHPEAPEAVOS_SID@@0@Z" ; netui1.dll
"?QueryHandle@LSA_OBJECT@@QEBAPEAXXZ" ; netui1.dll
"?QueryHandle@SAM_OBJECT@@QEBAPEAXXZ" ; netui1.dll
"?QueryHandle@SERVICE_CONTROL@@QEBAPEAUSC_HANDLE__@@XZ" ; netui1.dll
"?QueryHomeDir@USER_11@@QEBAPEBGXZ" ; netui1.dll
"?QueryHomedirDrive@USER_3@@QEBAPEBGXZ" ; netui1.dll
"?QueryHoursBlock@LOGON_HOURS_SETTING@@QEBAPEAEXZ" ; netui1.dll
"?QueryIdleTime@LM_SESSION_10@@QEBAKXZ" ; netui1.dll
"?QueryInfo@LSA_SECRET@@QEBAJPEAVNLS_STR@@0PEAT_LARGE_INTEGER@@1@Z" ; netui1.dll
"?QueryInfo@LSA_TRUSTED_DC_LIST@@AEAAJAEBVNLS_STR@@PEBG@Z" ; netui1.dll
"?QueryInfoLevel@LM_ENUM@@QEBAIXZ" ; netui1.dll
"?QueryInfoLevel@LM_RESUME_ENUM@@QEBAIXZ" ; netui1.dll
"?QueryInheritOnlyAccessMask@OS_DACL_SUBJECT_ITER@@QEBAKXZ" ; netui1.dll
"?QueryInheritOnlyAuditAccessMask_F@OS_SACL_SUBJECT_ITER@@QEBAKXZ" ; netui1.dll
"?QueryInheritOnlyAuditAccessMask_S@OS_SACL_SUBJECT_ITER@@QEBAKXZ" ; netui1.dll
"?QueryItemCount@LM_RESUME_BUFFER@@QEBAIXZ" ; netui1.dll
"?QueryItemSize@MEMBERSHIP_LM_OBJ@@MEBAIXZ" ; netui1.dll
"?QueryLMRoot@WKSTA_1@@QEBAPEBGXZ" ; netui1.dll
"?QueryLSAPolicy@ADMIN_AUTHORITY@@QEBAPEAVLSA_POLICY@@XZ" ; netui1.dll
"?QueryLastComponent@NET_NAME@@QEAAJPEAVNLS_STR@@@Z" ; netui1.dll
"?QueryLastSubAuthority@OS_SID@@QEBAJPEAPEAK@Z" ; netui1.dll
"?QueryLength@OS_SID@@QEBAKXZ" ; netui1.dll
"?QueryLocalDrive@NET_NAME@@QEAAJPEAVNLS_STR@@@Z" ; netui1.dll
"?QueryLocalPath@NET_NAME@@QEAAJPEAVNLS_STR@@@Z" ; netui1.dll
"?QueryLockStatus@SC_MANAGER@@QEAAJPEAPEAU_QUERY_SERVICE_LOCK_STATUSW@@@Z" ; netui1.dll
"?QueryLockout@USER_2@@QEBAHXZ" ; netui1.dll
"?QueryLogonDomain@WKSTA_10@@QEBAPEBGXZ" ; netui1.dll
"?QueryLogonDomain@WKSTA_USER_1@@QEBAPEBGXZ" ; netui1.dll
"?QueryLogonHours@USER_11@@QEBAAEBVLOGON_HOURS_SETTING@@XZ" ; netui1.dll
"?QueryLogonServer@WKSTA_1@@QEBAPEBGXZ" ; netui1.dll
"?QueryLogonServer@WKSTA_USER_1@@QEBAPEBGXZ" ; netui1.dll
"?QueryLogonUser@WKSTA_10@@QEBAPEBGXZ" ; netui1.dll
"?QueryLuid@OS_LUID@@QEBA?AU_LUID@@XZ" ; netui1.dll
"?QueryMajorVer@SERVER1_ENUM_OBJ@@QEBAIXZ" ; netui1.dll
"?QueryMajorVer@SERVER_1@@QEBAIXZ" ; netui1.dll
"?QueryMajorVer@WKSTA_10@@QEBAIXZ" ; netui1.dll
"?QueryMaxPasswdAge@USER_MODALS@@QEBAKXZ" ; netui1.dll
"?QueryMaxUsers@SERVER_2@@QEBAIXZ" ; netui1.dll
"?QueryMaxUses@SHARE_2@@QEBAIXZ" ; netui1.dll
"?QueryMinPasswdAge@USER_MODALS@@QEBAKXZ" ; netui1.dll
"?QueryMinPasswdLen@USER_MODALS@@QEBAIXZ" ; netui1.dll
"?QueryMinorVer@SERVER1_ENUM_OBJ@@QEBAIXZ" ; netui1.dll
"?QueryMinorVer@SERVER_1@@QEBAIXZ" ; netui1.dll
"?QueryMinorVer@WKSTA_10@@QEBAIXZ" ; netui1.dll
"?QueryNOSVersion@LOCATION@@QEAAJPEAI0@Z" ; netui1.dll
"?QueryName@COMPUTER@@UEBAPEBGXZ" ; netui1.dll
"?QueryName@DEVICE@@UEBAPEBGXZ" ; netui1.dll
"?QueryName@DOMAIN0_ENUM_OBJ@@QEBAPEBGXZ" ; netui1.dll
"?QueryName@DOMAIN@@UEBAPEBGXZ" ; netui1.dll
"?QueryName@GROUP0_ENUM_OBJ@@QEBAPEBGXZ" ; netui1.dll
"?QueryName@GROUP@@UEBAPEBGXZ" ; netui1.dll
"?QueryName@GROUP_MEMB@@UEBAPEBGXZ" ; netui1.dll
"?QueryName@LM_SERVICE@@QEBAPEBGXZ" ; netui1.dll
"?QueryName@LM_SESSION@@UEBAPEBGXZ" ; netui1.dll
"?QueryName@LOCATION@@QEBAPEBGXZ" ; netui1.dll
"?QueryName@LSA_ACCOUNT@@UEBAPEBGXZ" ; netui1.dll
"?QueryName@LSA_ACCT_DOM_INFO_MEM@@QEBAJPEAVNLS_STR@@@Z" ; netui1.dll
"?QueryName@LSA_PRIMARY_DOM_INFO_MEM@@QEBAJPEAVNLS_STR@@@Z" ; netui1.dll
"?QueryName@LSA_REF_DOMAIN_MEM@@QEBAJKPEAVNLS_STR@@@Z" ; netui1.dll
"?QueryName@LSA_TRANSLATED_NAME_MEM@@QEBAJKPEAVNLS_STR@@@Z" ; netui1.dll
"?QueryName@LSA_TRUST_INFO_MEM@@QEBAJKPEAVNLS_STR@@@Z" ; netui1.dll
"?QueryName@NET_ACCESS@@UEBAPEBGXZ" ; netui1.dll
"?QueryName@NEW_LM_OBJ@@UEBAPEBGXZ" ; netui1.dll
"?QueryName@OS_SID@@QEBAJPEAVNLS_STR@@PEBGPEAX@Z" ; netui1.dll
"?QueryName@SERVER1_ENUM_OBJ@@QEBAPEBGXZ" ; netui1.dll
"?QueryName@SERVER_0@@UEBAPEBGXZ" ; netui1.dll
"?QueryName@SHARE@@UEBAPEBGXZ" ; netui1.dll
"?QueryName@USER0_ENUM_OBJ@@QEBAPEBGXZ" ; netui1.dll
"?QueryName@USER@@UEBAPEBGXZ" ; netui1.dll
"?QueryName@USER_MEMB@@UEBAPEBGXZ" ; netui1.dll
"?QueryName@USER_MODALS@@UEBAPEBGXZ" ; netui1.dll
"?QueryName@USER_MODALS_3@@UEBAPEBGXZ" ; netui1.dll
"?QueryNewContainerAccessMask@OS_DACL_SUBJECT_ITER@@QEBAKXZ" ; netui1.dll
"?QueryNewContainerAuditAccessMask_F@OS_SACL_SUBJECT_ITER@@QEBAKXZ" ; netui1.dll
"?QueryNewContainerAuditAccessMask_S@OS_SACL_SUBJECT_ITER@@QEBAKXZ" ; netui1.dll
"?QueryNewObjectAccessMask@OS_DACL_SUBJECT_ITER@@QEBAKXZ" ; netui1.dll
"?QueryNewObjectAuditAccessMask_F@OS_SACL_SUBJECT_ITER@@QEBAKXZ" ; netui1.dll
"?QueryNewObjectAuditAccessMask_S@OS_SACL_SUBJECT_ITER@@QEBAKXZ" ; netui1.dll
"?QueryNoAnonChange@SAM_PSWD_DOM_INFO_MEM@@QEAAHXZ" ; netui1.dll
"?QueryNoPasswordExpire@USER_2@@QEBAHXZ" ; netui1.dll
"?QueryNumLock@LM_FILE_3@@QEBAIXZ" ; netui1.dll
"?QueryNumLocks@FILE3_ENUM_OBJ@@QEBAKXZ" ; netui1.dll
"?QueryNumOpens@LM_SESSION_1@@QEBAIXZ" ; netui1.dll
"?QueryNumberOfPrivileges@OS_PRIVILEGE_SET@@QEBAKXZ" ; netui1.dll
"?QueryObservation@USER_MODALS_3@@QEBAKXZ" ; netui1.dll
"?QueryOtherDomains@WKSTA_10@@QEBAPEAVSTRLIST@@XZ" ; netui1.dll
"?QueryOtherDomains@WKSTA_USER_1@@QEBAPEBGXZ" ; netui1.dll
"?QueryOwner@OS_SECURITY_DESCRIPTOR@@QEBAJPEAHPEAPEAVOS_SID@@0@Z" ; netui1.dll
"?QueryPDC@DOMAIN@@QEBAPEBGXZ" ; netui1.dll
"?QueryPSID@LSA_ACCT_DOM_INFO_MEM@@QEBAPEAXXZ" ; netui1.dll
"?QueryPSID@LSA_DOMAIN_INFO@@QEBAQEAXXZ" ; netui1.dll
"?QueryPSID@LSA_PRIMARY_DOM_INFO_MEM@@QEBAPEAXXZ" ; netui1.dll
"?QueryPSID@LSA_REF_DOMAIN_MEM@@QEBAPEAXK@Z" ; netui1.dll
"?QueryPSID@LSA_TRUST_INFO_MEM@@QEBAPEAXK@Z" ; netui1.dll
"?QueryPSID@OS_SID@@QEBAPEAXXZ" ; netui1.dll
"?QueryPSID@SAM_DOMAIN@@QEBAPEAXXZ" ; netui1.dll
"?QueryParms@USER_11@@QEBAPEBGXZ" ; netui1.dll
"?QueryPasswdHistLen@USER_MODALS@@QEBAIXZ" ; netui1.dll
"?QueryPassword@SHARE_2@@QEBAPEBGXZ" ; netui1.dll
"?QueryPassword@USER_2@@QEBAPEBGXZ" ; netui1.dll
"?QueryPasswordExpired@USER_3@@QEBAKXZ" ; netui1.dll
"?QueryPath@SHARE_2@@QEBAPEBGXZ" ; netui1.dll
"?QueryPathName@FILE3_ENUM_OBJ@@QEBAPEBGXZ" ; netui1.dll
"?QueryPathname@LM_FILE_3@@QEBAPEBGXZ" ; netui1.dll
"?QueryPch@NLS_STR@@QEBAPEBGXZ" ; netui1.dll
"?QueryPerm@NET_ACCESS_1@@QEBAIPEBGW4PERMNAME_TYPE@@@Z" ; netui1.dll
"?QueryPermission@LM_FILE_3@@QEBAIXZ" ; netui1.dll
"?QueryPermissions@SHARE_2@@QEBAIXZ" ; netui1.dll
"?QueryPosixOffset@LSA_TRUSTED_DOMAIN@@QEBAJPEAK@Z" ; netui1.dll
"?QueryPrimaryBrowserGroup@LSA_POLICY@@QEBAJPEAVNLS_STR@@@Z" ; netui1.dll
"?QueryPrimaryDomainName@LSA_POLICY@@QEBAJPEAVNLS_STR@@@Z" ; netui1.dll
"?QueryPrimaryGroupId@USER_3@@QEBAKXZ" ; netui1.dll
"?QueryPriv@LOCAL_USER@@UEBAIXZ" ; netui1.dll
"?QueryPriv@USER_11@@UEBAIXZ" ; netui1.dll
"?QueryPrivSet@OS_PRIVILEGE_SET@@QEBAPEAU_PRIVILEGE_SET@@XZ" ; netui1.dll
"?QueryPrivilege@OS_PRIVILEGE_SET@@QEAAPEBVOS_LUID_AND_ATTRIBUTES@@J@Z" ; netui1.dll
"?QueryPrivilegeEnumIter@LSA_ACCOUNT@@QEAAJPEAPEAVLSA_ACCOUNT_PRIVILEGE_ENUM_ITER@@@Z" ; netui1.dll
"?QueryProductType@LSA_POLICY@@SAJPEAW4LSPL_PROD_TYPE@@@Z" ; netui1.dll
"?QueryProfile@USER_3@@QEBAPEBGXZ" ; netui1.dll
"?QueryPtr@LM_ENUM@@IEBAPEAEXZ" ; netui1.dll
"?QueryPtr@LSA_ACCT_DOM_INFO_MEM@@QEBAPEBU_POLICY_ACCOUNT_DOMAIN_INFO@@XZ" ; netui1.dll
"?QueryPtr@LSA_AUDIT_EVENT_INFO_MEM@@QEBAPEAU_POLICY_AUDIT_EVENTS_INFO@@XZ" ; netui1.dll
"?QueryPtr@LSA_PRIMARY_DOM_INFO_MEM@@QEBAPEBU_POLICY_PRIMARY_DOMAIN_INFO@@XZ" ; netui1.dll
"?QueryPtr@LSA_REF_DOMAIN_MEM@@AEBAPEBU_LSA_TRUST_INFORMATION@@XZ" ; netui1.dll
"?QueryPtr@LSA_SERVER_ROLE_INFO_MEM@@QEBAPEBU_POLICY_LSA_SERVER_ROLE_INFO@@XZ" ; netui1.dll
"?QueryPtr@LSA_TRANSLATED_NAME_MEM@@AEBAPEBU_LSA_TRANSLATED_NAME@@XZ" ; netui1.dll
"?QueryPtr@LSA_TRANSLATED_SID_MEM@@AEBAPEBU_LSA_TRANSLATED_SID@@XZ" ; netui1.dll
"?QueryPtr@LSA_TRUST_INFO_MEM@@QEBAPEBU_LSA_TRUST_INFORMATION@@XZ" ; netui1.dll
"?QueryPtr@OS_OBJECT_WITH_DATA@@IEBAPEAXXZ" ; netui1.dll
"?QueryPtr@SAM_PSWD_DOM_INFO_MEM@@QEBAPEBU_DOMAIN_PASSWORD_INFORMATION@@XZ" ; netui1.dll
"?QueryPtr@SAM_RID_ENUMERATION_MEM@@QEBAPEBU_SAM_RID_ENUMERATION@@XZ" ; netui1.dll
"?QueryRID@SAM_ALIAS@@QEAAKXZ" ; netui1.dll
"?QueryRawID@OS_SID@@QEBAJPEAVNLS_STR@@@Z" ; netui1.dll
"?QueryRelativePath@NET_NAME@@QEAAJPEAVNLS_STR@@@Z" ; netui1.dll
"?QueryRemoteName@DEVICE@@QEBAPEBGXZ" ; netui1.dll
"?QueryRemoteType@DEVICE@@QEBAIXZ" ; netui1.dll
"?QueryRequiredSpace@NET_ACCESS_1@@AEBAII@Z" ; netui1.dll
"?QueryResourceType@SHARE_1@@QEBAIXZ" ; netui1.dll
"?QueryRevision@OS_ACE@@SAKXZ" ; netui1.dll
"?QueryRid@ALIAS_ENUM_OBJ@@QEBA?BKXZ" ; netui1.dll
"?QuerySACL@OS_SECURITY_DESCRIPTOR@@QEBAJPEAHPEAPEAVOS_ACL@@0@Z" ; netui1.dll
"?QuerySID@OS_ACE@@QEBAJPEAPEAVOS_SID@@@Z" ; netui1.dll
"?QuerySID@OS_ACL_SUBJECT_ITER@@QEBAPEBVOS_SID@@XZ" ; netui1.dll
"?QuerySIDMemory@OS_ACE@@IEBAPEAXXZ" ; netui1.dll
"?QuerySamServer@ADMIN_AUTHORITY@@QEBAPEAVSAM_SERVER@@XZ" ; netui1.dll
"?QueryScriptPath@USER_2@@QEBAPEBGXZ" ; netui1.dll
"?QuerySecurity@SC_SERVICE@@QEAAJKPEAPEAX@Z" ; netui1.dll
"?QuerySecurity@SERVER_2@@QEBAIXZ" ; netui1.dll
"?QueryServer@DEVICE@@QEBAPEBGXZ" ; netui1.dll
"?QueryServer@LM_FILE@@QEBAPEBGXZ" ; netui1.dll
"?QueryServer@LM_SESSION@@QEBAPEBGXZ" ; netui1.dll
"?QueryServer@LOCATION@@QEBAPEBGXZ" ; netui1.dll
"?QueryServer@LOC_LM_ENUM@@QEBAPEBGXZ" ; netui1.dll
"?QueryServer@LOC_LM_OBJ@@IEBAPEBGXZ" ; netui1.dll
"?QueryServer@LOC_LM_RESUME_ENUM@@QEBAPEBGXZ" ; netui1.dll
"?QueryServer@SHARE@@QEBAPEBGXZ" ; netui1.dll
"?QueryServerName@LM_SERVICE@@QEBAPEBGXZ" ; netui1.dll
"?QueryServerName@NET_ACCESS@@QEBAPEBGXZ" ; netui1.dll
"?QueryServerShare@NET_NAME@@QEAAJPEAVNLS_STR@@@Z" ; netui1.dll
"?QueryServerType@SERVER1_ENUM_OBJ@@QEBAKXZ" ; netui1.dll
"?QueryServerType@SERVER_1@@QEBAKXZ" ; netui1.dll
"?QueryServiceDisplayName@SC_MANAGER@@QEAAJPEBGPEAVNLS_STR@@@Z" ; netui1.dll
"?QueryServiceKeyName@SC_MANAGER@@QEAAJPEBGPEAVNLS_STR@@@Z" ; netui1.dll
"?QueryShare@NET_NAME@@QEAAJPEAVNLS_STR@@@Z" ; netui1.dll
"?QuerySid@OS_SID@@QEBAPEAXXZ" ; netui1.dll
"?QuerySize@OS_ACE@@QEBAGXZ" ; netui1.dll
"?QuerySizeInformation@OS_ACL@@QEBAJPEAU_ACL_SIZE_INFORMATION@@@Z" ; netui1.dll
"?QueryState@DEVICE@@QEBA?AW4LMO_DEV_STATE@@XZ" ; netui1.dll
"?QueryStatus@DEVICE@@QEBAIXZ" ; netui1.dll
"?QueryStatus@LM_SERVICE@@QEAA?AW4LM_SERVICE_STATUS@@PEAJ@Z" ; netui1.dll
"?QueryStatus@SC_SERVICE@@QEAAJPEAU_SERVICE_STATUS@@@Z" ; netui1.dll
"?QuerySubAuthority@OS_SID@@QEBAJEPEAPEAK@Z" ; netui1.dll
"?QuerySubAuthorityCount@OS_SID@@QEBAJPEAPEAE@Z" ; netui1.dll
"?QuerySystemSid@NT_ACCOUNTS_UTILITY@@SAJW4UI_SystemSid@@PEAVOS_SID@@PEBG@Z" ; netui1.dll
"?QueryTextLength@NLS_STR@@QEBAIXZ" ; netui1.dll
"?QueryThreshold@USER_MODALS_3@@QEBAKXZ" ; netui1.dll
"?QueryTime@LM_SESSION_10@@QEBAKXZ" ; netui1.dll
"?QueryTotalAceCount@OS_ACL_SUBJECT_ITER@@IEBAKXZ" ; netui1.dll
"?QueryTotalItemCount@LM_RESUME_ENUM@@QEBAIXZ" ; netui1.dll
"?QueryType@DEVICE@@QEBAIXZ" ; netui1.dll
"?QueryType@OS_ACE@@QEBAEXZ" ; netui1.dll
"?QueryUNCPath@NET_NAME@@QEAAJPEAVNLS_STR@@@Z" ; netui1.dll
"?QueryUnicodeMachine@NT_MACHINE_ENUM_OBJ@@QEBAPEBU_UNICODE_STRING@@XZ" ; netui1.dll
"?QueryUnicodeName@LSA_ACCT_DOM_INFO_MEM@@QEBAPEBU_UNICODE_STRING@@XZ" ; netui1.dll
"?QueryUnicodeName@LSA_PRIMARY_DOM_INFO_MEM@@QEBAPEBU_UNICODE_STRING@@XZ" ; netui1.dll
"?QueryUnicodeName@LSA_REF_DOMAIN_MEM@@AEBAPEBU_UNICODE_STRING@@K@Z" ; netui1.dll
"?QueryUnicodeName@LSA_TRANSLATED_NAME_MEM@@AEBAPEBU_UNICODE_STRING@@K@Z" ; netui1.dll
"?QueryUnicodeName@LSA_TRUST_INFO_MEM@@QEBAPEBU_UNICODE_STRING@@K@Z" ; netui1.dll
"?QueryUnicodeUserName@SAM_USER_ENUM_OBJ@@QEBAPEBU_UNICODE_STRING@@XZ" ; netui1.dll
"?QueryUnitsPerWeek@LOGON_HOURS_SETTING@@QEBAIXZ" ; netui1.dll
"?QueryUpdatePtr@SAM_PSWD_DOM_INFO_MEM@@AEBAPEAU_DOMAIN_PASSWORD_INFORMATION@@XZ" ; netui1.dll
"?QueryUse@LSA_TRANSLATED_NAME_MEM@@QEBA?AW4_SID_NAME_USE@@K@Z" ; netui1.dll
"?QueryUserCantChangePass@USER_2@@QEBAHXZ" ; netui1.dll
"?QueryUserComment@USER_11@@QEBAPEBGXZ" ; netui1.dll
"?QueryUserFlag@USER_2@@IEBAHI@Z" ; netui1.dll
"?QueryUserFlags@LM_SESSION_1@@QEBAKXZ" ; netui1.dll
"?QueryUserFlags@USER_2@@QEBAIXZ" ; netui1.dll
"?QueryUserId@USER_3@@QEBAKXZ" ; netui1.dll
"?QueryUserName@SAM_USER_ENUM_OBJ@@QEBAJPEAVNLS_STR@@@Z" ; netui1.dll
"?QueryUserName@WKSTA_USER_1@@QEBAPEBGXZ" ; netui1.dll
"?QueryUserPassRequired@USER_2@@QEBAHXZ" ; netui1.dll
"?QueryUsername@LM_FILE_3@@QEBAPEBGXZ" ; netui1.dll
"?QueryUsername@LM_SESSION_10@@QEBAPEBGXZ" ; netui1.dll
"?QueryValue@LM_CONFIG@@QEAAJPEAVNLS_STR@@PEBG@Z" ; netui1.dll
"?QueryWkstaDomain@WKSTA_10@@QEBAPEBGXZ" ; netui1.dll
"?QueryWorkstations@USER_11@@QEBAPEBGXZ" ; netui1.dll
"?RegisterIter@LM_ENUM@@AEAAXXZ" ; netui1.dll
"?RegisterIter@LM_RESUME_ENUM@@AEAAXXZ" ; netui1.dll
"?Remove@SLIST_OF_NLS_STR@@QEAAPEAVNLS_STR@@AEAVITER_SL_NLS_STR@@@Z" ; netui1.dll
"?RemoveMember@SAM_ALIAS@@QEAAJPEAX@Z" ; netui1.dll
"?RemoveMember@SAM_GROUP@@QEAAJK@Z" ; netui1.dll
"?RemoveMemberFromAliases@SAM_DOMAIN@@QEAAJPEAX@Z" ; netui1.dll
"?RemoveMembers@SAM_ALIAS@@QEAAJPEAPEAXI@Z" ; netui1.dll
"?RemoveMembers@SAM_GROUP@@QEAAJPEAKI@Z" ; netui1.dll
"?RemovePrivilege@OS_PRIVILEGE_SET@@QEAAJJ@Z" ; netui1.dll
"?RemovePrivilege@OS_PRIVILEGE_SET@@QEAAJU_LUID@@@Z" ; netui1.dll
"?Rename@USER@@QEAAJPEBG@Z" ; netui1.dll
"?ReplaceAccountDomain@ADMIN_AUTHORITY@@QEAAJK@Z" ; netui1.dll
"?ReplaceBuiltinDomain@ADMIN_AUTHORITY@@QEAAJK@Z" ; netui1.dll
"?ReplaceLSAPolicy@ADMIN_AUTHORITY@@QEAAJK@Z" ; netui1.dll
"?ReplaceSamServer@ADMIN_AUTHORITY@@QEAAJK@Z" ; netui1.dll
"?ReportError@BASE@@IEAAXJ@Z" ; netui1.dll
"?ReportError@NEW_LM_OBJ@@IEAAXJ@Z" ; netui1.dll
"?Reset@BROWSE_DOMAIN_ENUM@@QEAAXXZ" ; netui1.dll
"?Reset@OS_ACL_SUBJECT_ITER@@QEAAXXZ" ; netui1.dll
"?ResetHandle@LSA_OBJECT@@IEAAXXZ" ; netui1.dll
"?ResetHandle@SAM_OBJECT@@IEAAXXZ" ; netui1.dll
"?Resize@OS_OBJECT_WITH_DATA@@IEAAJI@Z" ; netui1.dll
"?ResizeBuffer@NEW_LM_OBJ@@IEAAJI@Z" ; netui1.dll
"?SendBuffer@LM_MESSAGE@@QEAAJPEBG0I@Z" ; netui1.dll
"?SendBuffer@LM_MESSAGE@@QEAAJPEBGAEBVBUFFER@@@Z" ; netui1.dll
"?Set@LOCATION@@QEAAJAEBV1@@Z" ; netui1.dll
"?Set@LSA_MEMORY@@UEAAXPEAXK@Z" ; netui1.dll
"?Set@NT_MEMORY@@UEAAXPEAXK@Z" ; netui1.dll
"?Set@SAM_MEMORY@@UEAAXPEAXK@Z" ; netui1.dll
"?SetABSPath@NET_NAME@@AEAAJPEBG@Z" ; netui1.dll
"?SetAccessMask@OS_ACE@@QEAAXK@Z" ; netui1.dll
"?SetAccountDisabled@USER_2@@QEAAJH@Z" ; netui1.dll
"?SetAccountDomain@LSA_POLICY@@QEAAJPEBVLSA_ACCT_DOM_INFO_MEM@@@Z" ; netui1.dll
"?SetAccountDomainName@LSA_POLICY@@QEAAJPEBVNLS_STR@@PEBQEAX@Z" ; netui1.dll
"?SetAccountExpires@USER_2@@QEAAJJ@Z" ; netui1.dll
"?SetAccountType@USER_3@@QEAAJW4_ACCOUNT_TYPE@@@Z" ; netui1.dll
"?SetAdminOnly@SHARE_1@@IEAAXH@Z" ; netui1.dll
"?SetAuditEventInfo@LSA_POLICY@@QEAAJPEAVLSA_AUDIT_EVENT_INFO_MEM@@@Z" ; netui1.dll
"?SetAuditFlags@NET_ACCESS_1@@QEAAJF@Z" ; netui1.dll
"?SetAuthFlags@USER_11@@QEAAJK@Z" ; netui1.dll
"?SetBufPtr@DEVICE@@IEAAXPEAE@Z" ; netui1.dll
"?SetBufferPtr@ALIAS_ENUM_OBJ@@QEAAXPEBU_SAM_RID_ENUMERATION@@@Z" ; netui1.dll
"?SetBufferPtr@CHARDEVQ1_ENUM_OBJ@@QEAAXPEBU_CHARDEVQ_INFO_1@@@Z" ; netui1.dll
"?SetBufferPtr@CONN0_ENUM_OBJ@@QEAAXPEBU_CONNECTION_INFO_0@@@Z" ; netui1.dll
"?SetBufferPtr@CONN1_ENUM_OBJ@@QEAAXPEBU_CONNECTION_INFO_1@@@Z" ; netui1.dll
"?SetBufferPtr@CONTEXT_ENUM_OBJ@@QEAAXPEBU_SERVER_INFO_101@@@Z" ; netui1.dll
"?SetBufferPtr@DOMAIN0_ENUM_OBJ@@QEAAXPEBU_SERVER_INFO_100@@@Z" ; netui1.dll
"?SetBufferPtr@ENUM_OBJ_BASE@@IEAAXPEBE@Z" ; netui1.dll
"?SetBufferPtr@FILE2_ENUM_OBJ@@QEAAXPEBU_FILE_INFO_2@@@Z" ; netui1.dll
"?SetBufferPtr@FILE3_ENUM_OBJ@@QEAAXPEBU_FILE_INFO_3@@@Z" ; netui1.dll
"?SetBufferPtr@GROUP0_ENUM_OBJ@@QEAAXPEBU_GROUP_INFO_0@@@Z" ; netui1.dll
"?SetBufferPtr@GROUP1_ENUM_OBJ@@QEAAXPEBU_GROUP_INFO_1@@@Z" ; netui1.dll
"?SetBufferPtr@LSA_ACCOUNTS_ENUM_OBJ@@QEAAXPEBQEAX@Z" ; netui1.dll
"?SetBufferPtr@LSA_PRIVILEGES_ENUM_OBJ@@QEAAXPEBU_POLICY_PRIVILEGE_DEFINITION@@@Z" ; netui1.dll
"?SetBufferPtr@NEW_LM_OBJ@@IEAAXPEAE@Z" ; netui1.dll
"?SetBufferPtr@NT_GROUP_ENUM_OBJ@@QEAAXPEBU_DOMAIN_DISPLAY_GROUP@@@Z" ; netui1.dll
"?SetBufferPtr@NT_MACHINE_ENUM_OBJ@@QEAAXPEBU_DOMAIN_DISPLAY_MACHINE@@@Z" ; netui1.dll
"?SetBufferPtr@NT_USER_ENUM_OBJ@@QEAAXPEBU_DOMAIN_DISPLAY_USER@@@Z" ; netui1.dll
"?SetBufferPtr@SAM_USER_ENUM_OBJ@@QEAAXPEBU_SAM_RID_ENUMERATION@@@Z" ; netui1.dll
"?SetBufferPtr@SERVER1_ENUM_OBJ@@QEAAXPEBU_SERVER_INFO_101@@@Z" ; netui1.dll
"?SetBufferPtr@SERVICE_ENUM_OBJ@@IEAAXPEBU_ENUM_SVC_STATUS@@@Z" ; netui1.dll
"?SetBufferPtr@SESSION0_ENUM_OBJ@@QEAAXPEBU_SESSION_INFO_0@@@Z" ; netui1.dll
"?SetBufferPtr@SESSION1_ENUM_OBJ@@QEAAXPEBU_SESSION_INFO_1@@@Z" ; netui1.dll
"?SetBufferPtr@SHARE1_ENUM_OBJ@@QEAAXPEBU_SHARE_INFO_1@@@Z" ; netui1.dll
"?SetBufferPtr@SHARE2_ENUM_OBJ@@QEAAXPEBU_SHARE_INFO_2@@@Z" ; netui1.dll
"?SetBufferPtr@TRIPLE_SERVER_ENUM_OBJ@@QEAAXPEBU_TRIPLE_SERVER_INFO@@@Z" ; netui1.dll
"?SetBufferPtr@TRUSTED_DOMAIN_ENUM_OBJ@@QEAAXPEBU_LSA_TRUST_INFORMATION@@@Z" ; netui1.dll
"?SetBufferPtr@USE1_ENUM_OBJ@@QEAAXPEBU_USE_INFO_1@@@Z" ; netui1.dll
"?SetBufferPtr@USER0_ENUM_OBJ@@QEAAXPEBU_USER_INFO_0@@@Z" ; netui1.dll
"?SetBufferPtr@USER10_ENUM_OBJ@@QEAAXPEBU_USER_INFO_10@@@Z" ; netui1.dll
"?SetBufferPtr@USER1_ENUM_OBJ@@QEAAXPEBU_USER_INFO_1@@@Z" ; netui1.dll
"?SetBufferPtr@USER2_ENUM_OBJ@@QEAAXPEBU_USER_INFO_2@@@Z" ; netui1.dll
"?SetClientType@LM_SESSION_2@@IEAAJPEBG@Z" ; netui1.dll
"?SetComment@GROUP_1@@QEAAJPEBG@Z" ; netui1.dll
"?SetComment@SAM_ALIAS@@QEAAJPEBVNLS_STR@@@Z" ; netui1.dll
"?SetComment@SERVER_1@@QEAAJPEBG@Z" ; netui1.dll
"?SetComment@SHARE_1@@QEAAJPEBG@Z" ; netui1.dll
"?SetComment@USER_11@@QEAAJPEBG@Z" ; netui1.dll
"?SetControllerList@LSA_TRUSTED_DOMAIN@@QEAAJAEBU_TRUSTED_CONTROLLERS_INFO@@@Z" ; netui1.dll
"?SetControllerList@LSA_TRUSTED_DOMAIN@@QEAAJPEAVLSA_REF_DOMAIN_MEM@@@Z" ; netui1.dll
"?SetCount@ENUM_CALLER@@IEAAXI@Z" ; netui1.dll
"?SetCurrentACE@OS_ACL_SUBJECT_ITER@@IEAAXK@Z" ; netui1.dll
"?SetCurrentUses@SHARE_2@@IEAAJI@Z" ; netui1.dll
"?SetDACL@OS_SECURITY_DESCRIPTOR@@QEAAJHPEBVOS_ACL@@H@Z" ; netui1.dll
"?SetDevState@DEVICE@@IEAAXW4LMO_DEV_STATE@@@Z" ; netui1.dll
"?SetDevType@DEVICE@@IEAAXW4LMO_DEVICE@@@Z" ; netui1.dll
"?SetDomainName@DEVICE2@@IEAAJPEBG@Z" ; netui1.dll
"?SetDuration@USER_MODALS_3@@QEAAJK@Z" ; netui1.dll
"?SetFileId@LM_FILE@@IEAAJK@Z" ; netui1.dll
"?SetForceLogoff@USER_MODALS@@QEAAJK@Z" ; netui1.dll
"?SetFullName@USER_11@@QEAAJPEBG@Z" ; netui1.dll
"?SetGroup@OS_SECURITY_DESCRIPTOR@@QEAAJAEBVOS_SID@@H@Z" ; netui1.dll
"?SetGroup@OS_SECURITY_DESCRIPTOR@@QEAAJHPEBVOS_SID@@H@Z" ; netui1.dll
"?SetGroupname@SAM_GROUP@@QEAAJPEBVNLS_STR@@@Z" ; netui1.dll
"?SetHandle@LSA_OBJECT@@IEAAXPEAX@Z" ; netui1.dll
"?SetHandle@SAM_OBJECT@@IEAAXPEAX@Z" ; netui1.dll
"?SetHandle@SERVICE_CONTROL@@IEAAXPEAUSC_HANDLE__@@@Z" ; netui1.dll
"?SetHomeDir@USER_11@@QEAAJPEBG@Z" ; netui1.dll
"?SetHomedirDrive@USER_3@@QEAAJPEBG@Z" ; netui1.dll
"?SetIdleTime@LM_SESSION_10@@IEAAXK@Z" ; netui1.dll
"?SetInfo@DEVICE2@@MEAAXXZ" ; netui1.dll
"?SetInfo@DEVICE@@MEAAXXZ" ; netui1.dll
"?SetInfo@LSA_SECRET@@QEAAJPEBVNLS_STR@@0@Z" ; netui1.dll
"?SetInheritOnly@OS_ACE@@QEAAXH@Z" ; netui1.dll
"?SetLockout@USER_2@@QEAAJH@Z" ; netui1.dll
"?SetLogonDomain@WKSTA_USER_1@@QEAAJPEBG@Z" ; netui1.dll
"?SetLogonHours@USER_11@@QEAAJAEBVLOGON_HOURS_SETTING@@@Z" ; netui1.dll
"?SetLogonHours@USER_11@@QEAAJPEBEI@Z" ; netui1.dll
"?SetLogonServer@WKSTA_USER_1@@QEAAJPEBG@Z" ; netui1.dll
"?SetLuidAndAttrib@OS_LUID_AND_ATTRIBUTES@@QEAAXU_LUID_AND_ATTRIBUTES@@@Z" ; netui1.dll
"?SetMajorMinorVer@SERVER_1@@IEAAXII@Z" ; netui1.dll
"?SetMaxPasswdAge@USER_MODALS@@QEAAJK@Z" ; netui1.dll
"?SetMaxUsers@SERVER_2@@IEAAXI@Z" ; netui1.dll
"?SetMaxUses@SHARE_2@@QEAAJI@Z" ; netui1.dll
"?SetMinPasswdAge@USER_MODALS@@QEAAJK@Z" ; netui1.dll
"?SetMinPasswdLen@USER_MODALS@@QEAAJI@Z" ; netui1.dll
"?SetName@COMPUTER@@QEAAJPEBG@Z" ; netui1.dll
"?SetName@GROUP@@QEAAJPEBG@Z" ; netui1.dll
"?SetName@GROUP_MEMB@@QEAAJPEBG@Z" ; netui1.dll
"?SetName@LM_SERVICE@@IEAAJPEBG@Z" ; netui1.dll
"?SetName@LM_SESSION@@IEAAJPEBG@Z" ; netui1.dll
"?SetName@NET_ACCESS@@QEAAJPEBG@Z" ; netui1.dll
"?SetName@SHARE@@IEAAJPEBG@Z" ; netui1.dll
"?SetName@USER@@QEAAJPEBG@Z" ; netui1.dll
"?SetName@USER_MEMB@@QEAAJPEBG@Z" ; netui1.dll
"?SetNoAnonChange@SAM_PSWD_DOM_INFO_MEM@@QEAAXH@Z" ; netui1.dll
"?SetNoPasswordExpire@USER_2@@QEAAJH@Z" ; netui1.dll
"?SetNumOpens@LM_SESSION_1@@IEAAXI@Z" ; netui1.dll
"?SetObservation@USER_MODALS_3@@QEAAJK@Z" ; netui1.dll
"?SetOtherDomains@WKSTA_USER_1@@QEAAJPEBG@Z" ; netui1.dll
"?SetOwner@OS_SECURITY_DESCRIPTOR@@QEAAJAEBVOS_SID@@H@Z" ; netui1.dll
"?SetOwner@OS_SECURITY_DESCRIPTOR@@QEAAJHPEBVOS_SID@@H@Z" ; netui1.dll
"?SetParms@USER_11@@QEAAJPEBG@Z" ; netui1.dll
"?SetPasswdHistLen@USER_MODALS@@QEAAJI@Z" ; netui1.dll
"?SetPassword@SAM_USER@@QEAAJAEBVNLS_STR@@0@Z" ; netui1.dll
"?SetPassword@SAM_USER@@QEAAJAEBVNLS_STR@@H@Z" ; netui1.dll
"?SetPassword@SHARE_2@@QEAAJPEBG@Z" ; netui1.dll
"?SetPassword@USER_2@@QEAAJPEBG@Z" ; netui1.dll
"?SetPasswordExpired@USER_3@@QEAAJK@Z" ; netui1.dll
"?SetPasswordInfo@SAM_DOMAIN@@QEAAJPEBVSAM_PSWD_DOM_INFO_MEM@@@Z" ; netui1.dll
"?SetPath@SHARE_2@@QEAAJPEBG@Z" ; netui1.dll
"?SetPerm@NET_ACCESS_1@@QEAAJPEBGW4PERMNAME_TYPE@@I@Z" ; netui1.dll
"?SetPermissions@SHARE_2@@QEAAJI@Z" ; netui1.dll
"?SetPosixOffset@LSA_TRUSTED_DOMAIN@@QEAAJK@Z" ; netui1.dll
"?SetPrimaryBrowserGroup@LSA_POLICY@@QEAAJAEBVNLS_STR@@@Z" ; netui1.dll
"?SetPrimaryDomain@LSA_POLICY@@QEAAJPEBVLSA_PRIMARY_DOM_INFO_MEM@@@Z" ; netui1.dll
"?SetPrimaryDomainName@LSA_POLICY@@QEAAJPEBVNLS_STR@@PEBQEAX@Z" ; netui1.dll
"?SetPrimaryGroupId@USER_3@@QEAAJK@Z" ; netui1.dll
"?SetPriv@USER_11@@QEAAJI@Z" ; netui1.dll
"?SetProfile@USER_3@@QEAAJPEBG@Z" ; netui1.dll
"?SetPtr@OS_ACE@@QEAAJPEAX@Z" ; netui1.dll
"?SetPtr@OS_PRIVILEGE_SET@@QEAAXPEAU_PRIVILEGE_SET@@@Z" ; netui1.dll
"?SetPtr@OS_SID@@QEAAJPEAX@Z" ; netui1.dll
"?SetRemoteName@DEVICE@@IEAAXPEBG@Z" ; netui1.dll
"?SetRemoteType@DEVICE@@IEAAXI@Z" ; netui1.dll
"?SetResourceType@SHARE_1@@IEAAJI@Z" ; netui1.dll
"?SetResourceType@SHARE_2@@QEAAJI@Z" ; netui1.dll
"?SetSACL@OS_SECURITY_DESCRIPTOR@@QEAAJHPEBVOS_ACL@@H@Z" ; netui1.dll
"?SetSID@OS_ACE@@QEAAJAEBVOS_SID@@@Z" ; netui1.dll
"?SetScriptPath@USER_2@@QEAAJPEBG@Z" ; netui1.dll
"?SetSecurity@SC_SERVICE@@QEAAJKQEAX@Z" ; netui1.dll
"?SetSecurity@SERVER_2@@IEAAXI@Z" ; netui1.dll
"?SetServer@LM_FILE@@IEAAJPEBG@Z" ; netui1.dll
"?SetServerName@DEVICE@@IEAAXPEBG@Z" ; netui1.dll
"?SetServerName@LM_SERVICE@@IEAAJPEBG@Z" ; netui1.dll
"?SetServerName@NET_ACCESS@@QEAAJPEBG@Z" ; netui1.dll
"?SetServerRole@LSA_POLICY@@QEAAJPEBVLSA_SERVER_ROLE_INFO_MEM@@@Z" ; netui1.dll
"?SetServerType@SERVER_1@@IEAAXK@Z" ; netui1.dll
"?SetShutDownOnFull@LSA_POLICY@@QEAAJH@Z" ; netui1.dll
"?SetSize@OS_ACE@@QEAAJI@Z" ; netui1.dll
"?SetSize@OS_ACL@@IEAAJIH@Z" ; netui1.dll
"?SetStatus@DEVICE@@IEAAXI@Z" ; netui1.dll
"?SetThreshold@USER_MODALS_3@@QEAAJK@Z" ; netui1.dll
"?SetTime@LM_SESSION_10@@IEAAXK@Z" ; netui1.dll
"?SetUNCPath@NET_NAME@@AEAAJPEBG@Z" ; netui1.dll
"?SetUserCantChangePass@USER_2@@QEAAJH@Z" ; netui1.dll
"?SetUserComment@USER_11@@QEAAJPEBG@Z" ; netui1.dll
"?SetUserFlag@USER_2@@IEAAJHI@Z" ; netui1.dll
"?SetUserFlags@LM_SESSION_1@@IEAAXK@Z" ; netui1.dll
"?SetUserFlags@USER_2@@QEAAJI@Z" ; netui1.dll
"?SetUserId@USER_3@@IEAAJK@Z" ; netui1.dll
"?SetUserName@WKSTA_USER_1@@QEAAJPEBG@Z" ; netui1.dll
"?SetUserPassRequired@USER_2@@QEAAJH@Z" ; netui1.dll
"?SetUsername@DEVICE2@@IEAAJPEBG@Z" ; netui1.dll
"?SetUsername@LM_SESSION_10@@IEAAJPEBG@Z" ; netui1.dll
"?SetUsername@SAM_USER@@QEAAJPEBVNLS_STR@@@Z" ; netui1.dll
"?SetValue@LM_CONFIG@@QEAAJPEAVNLS_STR@@@Z" ; netui1.dll
"?SetWorkstations@USER_11@@QEAAJPEBG@Z" ; netui1.dll
"?SetWriteBuffer@SHARE_2@@IEAAJH@Z" ; netui1.dll
"?SkipWhiteSpace@@YAXPEAPEAG@Z" ; netui1.dll
"?Sort@DOMAIN0_ENUM@@QEAAXXZ" ; netui1.dll
"?Start@LM_SERVICE@@QEAAJPEBGII@Z" ; netui1.dll
"?Start@SC_SERVICE@@QEAAJIPEAPEBG@Z" ; netui1.dll
"?Stop@LM_SERVICE@@QEAAJII@Z" ; netui1.dll
"?TcharArrayToUnistrArray@LSA_POLICY@@IEAAJPEBQEBGPEAU_UNICODE_STRING@@K@Z" ; netui1.dll
"?TranslateNamesToRids@SAM_DOMAIN@@QEBAJPEBQEBGKPEAVSAM_RID_MEM@@PEAVSAM_SID_NAME_USE_MEM@@@Z" ; netui1.dll
"?TranslateNamesToSids@LSA_POLICY@@QEAAJPEBQEBGKPEAVLSA_TRANSLATED_SID_MEM@@PEAVLSA_REF_DOMAIN_MEM@@@Z" ; netui1.dll
"?TranslateSidsToNames@LSA_POLICY@@QEAAJPEBQEAXKPEAVLSA_TRANSLATED_NAME_MEM@@PEAVLSA_REF_DOMAIN_MEM@@@Z" ; netui1.dll
"?TrimLastSubAuthority@OS_SID@@QEAAJPEAK@Z" ; netui1.dll
"?TrimParams@USER_11@@QEAAJXZ" ; netui1.dll
"?TrustDomain@LSA_POLICY@@QEAAJAEAV1@AEBVNLS_STR@@HPEBG@Z" ; netui1.dll
"?TrustDomain@LSA_POLICY@@QEAAJAEBVNLS_STR@@QEAX0HPEBGH@Z" ; netui1.dll
"?Unlock@SC_MANAGER@@QEAAJXZ" ; netui1.dll
"?UpdateControl@OS_SECURITY_DESCRIPTOR@@IEAAJXZ" ; netui1.dll
"?UpdateReferencedSecurityObject@OS_SECURITY_DESCRIPTOR@@IEAAJPEAVOS_OBJECT_WITH_DATA@@@Z" ; netui1.dll
"?UpgradeAccountDomain@ADMIN_AUTHORITY@@QEAAJK@Z" ; netui1.dll
"?UpgradeBuiltinDomain@ADMIN_AUTHORITY@@QEAAJK@Z" ; netui1.dll
"?UpgradeLSAPolicy@ADMIN_AUTHORITY@@QEAAJK@Z" ; netui1.dll
"?UpgradeSamServer@ADMIN_AUTHORITY@@QEAAJK@Z" ; netui1.dll
"?ValidateName@COMPUTER@@AEAAJPEBG@Z" ; netui1.dll
"?ValidateName@DEVICE@@MEAAJXZ" ; netui1.dll
"?ValidateName@DOMAIN@@MEAAJXZ" ; netui1.dll
"?ValidateName@LM_OBJ@@MEAAJXZ" ; netui1.dll
"?ValidateQualifiedAccountName@NT_ACCOUNTS_UTILITY@@SAJAEBVNLS_STR@@PEAH@Z" ; netui1.dll
"?VerifyLsa@LSA_POLICY@@QEBAJPEAVLSA_PRIMARY_DOM_INFO_MEM@@PEBVNLS_STR@@@Z" ; netui1.dll
"?W_BuildQualifiedAccountName@NT_ACCOUNTS_UTILITY@@CAJPEAVNLS_STR@@AEBV2@PEBV2@W4_SID_NAME_USE@@@Z" ; netui1.dll
"?W_ChangeToNew@NEW_LM_OBJ@@MEAAJXZ" ; netui1.dll
"?W_CloneFrom@ENUM_CALLER_LM_OBJ@@IEAAJAEBV1@@Z" ; netui1.dll
"?W_CloneFrom@GROUP@@IEAAJAEBV1@@Z" ; netui1.dll
"?W_CloneFrom@GROUP_1@@IEAAJAEBV1@@Z" ; netui1.dll
"?W_CloneFrom@LOC_LM_OBJ@@IEAAJAEBV1@@Z" ; netui1.dll
"?W_CloneFrom@MEMBERSHIP_LM_OBJ@@IEAAJAEBV1@@Z" ; netui1.dll
"?W_CloneFrom@NEW_LM_OBJ@@IEAAJAEBV1@@Z" ; netui1.dll
"?W_CloneFrom@SHARE@@IEAAJAEBV1@@Z" ; netui1.dll
"?W_CloneFrom@SHARE_1@@IEAAJAEBV1@@Z" ; netui1.dll
"?W_CloneFrom@SHARE_2@@IEAAJAEBV1@@Z" ; netui1.dll
"?W_CloneFrom@USER@@IEAAJAEBV1@@Z" ; netui1.dll
"?W_CloneFrom@USER_11@@IEAAJAEBV1@@Z" ; netui1.dll
"?W_CloneFrom@USER_2@@IEAAJAEBV1@@Z" ; netui1.dll
"?W_CloneFrom@USER_3@@IEAAJAEBV1@@Z" ; netui1.dll
"?W_ComputeOtherStatus@LM_SERVICE@@AEAAXPEAULM_SERVICE_OTHER_STATUS@@@Z" ; netui1.dll
"?W_CreateNew@ENUM_CALLER_LM_OBJ@@MEAAJXZ" ; netui1.dll
"?W_CreateNew@GROUP_1@@MEAAJXZ" ; netui1.dll
"?W_CreateNew@GROUP_MEMB@@MEAAJXZ" ; netui1.dll
"?W_CreateNew@LSA_ACCOUNT@@MEAAJXZ" ; netui1.dll
"?W_CreateNew@NEW_LM_OBJ@@MEAAJXZ" ; netui1.dll
"?W_CreateNew@SHARE@@MEAAJXZ" ; netui1.dll
"?W_CreateNew@SHARE_1@@MEAAJXZ" ; netui1.dll
"?W_CreateNew@SHARE_2@@MEAAJXZ" ; netui1.dll
"?W_CreateNew@USER_11@@MEAAJXZ" ; netui1.dll
"?W_CreateNew@USER_2@@MEAAJXZ" ; netui1.dll
"?W_CreateNew@USER_3@@MEAAJXZ" ; netui1.dll
"?W_CreateNew@USER_MEMB@@MEAAJXZ" ; netui1.dll
"?W_GetInfo@ENUM_CALLER@@IEAAJXZ" ; netui1.dll
"?W_InterpretStatus@LM_SERVICE@@AEAAXPEBU_SERVICE_INFO_2@@PEAW4LM_SERVICE_STATUS@@PEAULM_SERVICE_OTHER_STATUS@@@Z" ; netui1.dll
"?W_IsWellKnownService@LM_SERVICE@@AEBAHXZ" ; netui1.dll
"?W_QueryStatus@LM_SERVICE@@AEAAJPEAW4LM_SERVICE_STATUS@@PEAULM_SERVICE_OTHER_STATUS@@@Z" ; netui1.dll
"?W_ServiceControl@LM_SERVICE@@AEAAJII@Z" ; netui1.dll
"?W_ServiceStart@LM_SERVICE@@AEAAJPEBG@Z" ; netui1.dll
"?W_Set@LOCATION@@AEAAJPEBGW4LOCATION_TYPE@@H@Z" ; netui1.dll
"?W_Write@GROUP_1@@AEAAJXZ" ; netui1.dll
"?W_Write@SERVER_1@@AEAAJXZ" ; netui1.dll
"?W_Write@SERVER_2@@AEAAJXZ" ; netui1.dll
"?W_Write@USER_2@@IEAAJXZ" ; netui1.dll
"?W_Write@USER_3@@IEAAJXZ" ; netui1.dll
"?W_Write@WKSTA_USER_1@@AEAAJXZ" ; netui1.dll
"?Write@NEW_LM_OBJ@@QEAAJXZ" ; netui1.dll
"?WriteInfo@DEVICE@@UEAAJXZ" ; netui1.dll
"?WriteInfo@DOMAIN@@UEAAJXZ" ; netui1.dll
"?WriteInfo@NEW_LM_OBJ@@QEAAJXZ" ; netui1.dll
"?WriteInfo@USER_MODALS@@UEAAJXZ" ; netui1.dll
"?WriteInfo@USER_MODALS_3@@UEAAJXZ" ; netui1.dll
"?WriteNew@NEW_LM_OBJ@@QEAAJXZ" ; netui1.dll
"?_DbgPrint@OS_ACE@@QEBAXXZ" ; netui1.dll
"?_DbgPrint@OS_ACL@@QEBAXXZ" ; netui1.dll
"?_DbgPrint@OS_SECURITY_DESCRIPTOR@@QEBAXXZ" ; netui1.dll
"?_DbgPrint@OS_SID@@QEBAXXZ" ; netui1.dll
"?_DeregisterIter@LM_ENUM@@AEAAXXZ" ; netui1.dll
"?_DeregisterIter@LM_RESUME_ENUM@@AEAAXXZ" ; netui1.dll
"?_RegisterIter@LM_ENUM@@AEAAXXZ" ; netui1.dll
"?_RegisterIter@LM_RESUME_ENUM@@AEAAXXZ" ; netui1.dll
"DestroySession" ; netui1.dll
"FreeArgv" ; netui1.dll
"I_MNetComputerNameCompare" ; netui1.dll
"I_MNetLogonControl" ; netui1.dll
"I_MNetNameCanonicalize" ; netui1.dll
"I_MNetNameCompare" ; netui1.dll
"I_MNetNameValidate" ; netui1.dll
"I_MNetPathCanonicalize" ; netui1.dll
"I_MNetPathCompare" ; netui1.dll
"I_MNetPathType" ; netui1.dll
"IsSlowTransport" ; netui1.dll
"MAllocMem" ; netui1.dll
"MDosPrintQEnum" ; netui1.dll
"MFreeMem" ; netui1.dll
"MNetAccessAdd" ; netui1.dll
"MNetAccessCheck" ; netui1.dll
"MNetAccessDel" ; netui1.dll
"MNetAccessEnum" ; netui1.dll
"MNetAccessGetInfo" ; netui1.dll
"MNetAccessGetUserPerms" ; netui1.dll
"MNetAccessSetInfo" ; netui1.dll
"MNetApiBufferAlloc" ; netui1.dll
"MNetApiBufferFree" ; netui1.dll
"MNetApiBufferReAlloc" ; netui1.dll
"MNetApiBufferSize" ; netui1.dll
"MNetAuditClear" ; netui1.dll
"MNetAuditRead" ; netui1.dll
"MNetAuditWrite" ; netui1.dll
"MNetCharDevControl" ; netui1.dll
"MNetCharDevGetInfo" ; netui1.dll
"MNetCharDevQEnum" ; netui1.dll
"MNetCharDevQGetInfo" ; netui1.dll
"MNetCharDevQPurge" ; netui1.dll
"MNetCharDevQPurgeSelf" ; netui1.dll
"MNetCharDevQSetInfo" ; netui1.dll
"MNetConfigGet" ; netui1.dll
"MNetConfigGetAll" ; netui1.dll
"MNetConfigSet" ; netui1.dll
"MNetConnectionEnum" ; netui1.dll
"MNetErrorLogClear" ; netui1.dll
"MNetErrorLogRead" ; netui1.dll
"MNetErrorLogWrite" ; netui1.dll
"MNetFileClose" ; netui1.dll
"MNetFileEnum" ; netui1.dll
"MNetFileGetInfo" ; netui1.dll
"MNetGetDCName" ; netui1.dll
"MNetGroupAdd" ; netui1.dll
"MNetGroupAddUser" ; netui1.dll
"MNetGroupDel" ; netui1.dll
"MNetGroupDelUser" ; netui1.dll
"MNetGroupEnum" ; netui1.dll
"MNetGroupGetInfo" ; netui1.dll
"MNetGroupGetUsers" ; netui1.dll
"MNetGroupSetInfo" ; netui1.dll
"MNetGroupSetUsers" ; netui1.dll
"MNetLocalGroupAddMember" ; netui1.dll
"MNetLogonEnum" ; netui1.dll
"MNetMessageBufferSend" ; netui1.dll
"MNetRemoteTOD" ; netui1.dll
"MNetServerDiskEnum" ; netui1.dll
"MNetServerEnum" ; netui1.dll
"MNetServerGetInfo" ; netui1.dll
"MNetServerSetInfo" ; netui1.dll
"MNetServiceControl" ; netui1.dll
"MNetServiceEnum" ; netui1.dll
"MNetServiceGetInfo" ; netui1.dll
"MNetServiceInstall" ; netui1.dll
"MNetSessionDel" ; netui1.dll
"MNetSessionEnum" ; netui1.dll
"MNetSessionGetInfo" ; netui1.dll
"MNetShareAdd" ; netui1.dll
"MNetShareCheck" ; netui1.dll
"MNetShareDel" ; netui1.dll
"MNetShareDelSticky" ; netui1.dll
"MNetShareEnum" ; netui1.dll
"MNetShareEnumSticky" ; netui1.dll
"MNetShareGetInfo" ; netui1.dll
"MNetShareSetInfo" ; netui1.dll
"MNetUseAdd" ; netui1.dll
"MNetUseDel" ; netui1.dll
"MNetUseEnum" ; netui1.dll
"MNetUseGetInfo" ; netui1.dll
"MNetUserAdd" ; netui1.dll
"MNetUserDel" ; netui1.dll
"MNetUserEnum" ; netui1.dll
"MNetUserGetGroups" ; netui1.dll
"MNetUserGetInfo" ; netui1.dll
"MNetUserModalsGet" ; netui1.dll
"MNetUserModalsSet" ; netui1.dll
"MNetUserPasswordSet" ; netui1.dll
"MNetUserSetGroups" ; netui1.dll
"MNetUserSetInfo" ; netui1.dll
"MNetWkstaGetInfo" ; netui1.dll
"MNetWkstaSetInfo" ; netui1.dll
"MNetWkstaSetUID" ; netui1.dll
"MNetWkstaUserEnum" ; netui1.dll
"MNetWkstaUserGetInfo" ; netui1.dll
"MakeArgvArgc" ; netui1.dll
"SetupNormalSession" ; netui1.dll
"SetupNullSession" ; netui1.dll
"SetupSession" ; netui1.dll
"SlowTransportWorkerThread" ; netui1.dll
