LIBRARY "ntmsdba.dll"
EXPORTS
"??0Map@NtmsDbList@@QEAA@XZ" ; ntmsdba.dll
"??0NtmsDatabase@@QEAA@AEBV0@@Z" ; ntmsdba.dll
"??0NtmsDbChanger@@QEAA@PEAVNtmsDbDataCtxt@@AEBVNtmsDbGuid@@@Z" ; ntmsdba.dll
"??0NtmsDbChanger@@QEAA@XZ" ; ntmsdba.dll
"??0NtmsDbChangerType@@QEAA@PEAVNtmsDbDataCtxt@@AEBVNtmsDbGuid@@@Z" ; ntmsdba.dll
"??0NtmsDbChangerType@@QEAA@XZ" ; ntmsdba.dll
"??0NtmsDbComputer@@QEAA@PEAVNtmsDbDataCtxt@@AEBVNtmsDbGuid@@@Z" ; ntmsdba.dll
"??0NtmsDbComputer@@QEAA@XZ" ; ntmsdba.dll
"??0NtmsDbDataCtxt@@QEAA@PEBG0@Z" ; ntmsdba.dll
"??0NtmsDbDrive@@QEAA@PEAVNtmsDbDataCtxt@@AEBVNtmsDbGuid@@@Z" ; ntmsdba.dll
"??0NtmsDbDrive@@QEAA@XZ" ; ntmsdba.dll
"??0NtmsDbDriveType@@QEAA@PEAVNtmsDbDataCtxt@@AEBVNtmsDbGuid@@@Z" ; ntmsdba.dll
"??0NtmsDbDriveType@@QEAA@XZ" ; ntmsdba.dll
"??0NtmsDbError@@QEAA@XZ" ; ntmsdba.dll
"??0NtmsDbFile@@QEAA@AEBV0@@Z" ; ntmsdba.dll
"??0NtmsDbGuid@@QEAA@AEBU_GUID@@@Z" ; ntmsdba.dll
"??0NtmsDbGuid@@QEAA@AEBV0@@Z" ; ntmsdba.dll
"??0NtmsDbGuid@@QEAA@PEBD@Z" ; ntmsdba.dll
"??0NtmsDbGuid@@QEAA@PEBE@Z" ; ntmsdba.dll
"??0NtmsDbGuid@@QEAA@PEBU_GUID@@@Z" ; ntmsdba.dll
"??0NtmsDbGuid@@QEAA@XZ" ; ntmsdba.dll
"??0NtmsDbIEDoor@@QEAA@PEAVNtmsDbDataCtxt@@AEBVNtmsDbGuid@@@Z" ; ntmsdba.dll
"??0NtmsDbIEDoor@@QEAA@XZ" ; ntmsdba.dll
"??0NtmsDbIEPort@@QEAA@PEAVNtmsDbDataCtxt@@AEBVNtmsDbGuid@@@Z" ; ntmsdba.dll
"??0NtmsDbIEPort@@QEAA@XZ" ; ntmsdba.dll
"??0NtmsDbLibWorkItem@@QEAA@PEAVNtmsDbDataCtxt@@AEBVNtmsDbGuid@@@Z" ; ntmsdba.dll
"??0NtmsDbLibWorkItem@@QEAA@XZ" ; ntmsdba.dll
"??0NtmsDbLibrary@@QEAA@PEAVNtmsDbDataCtxt@@AEBVNtmsDbGuid@@@Z" ; ntmsdba.dll
"??0NtmsDbLibrary@@QEAA@XZ" ; ntmsdba.dll
"??0NtmsDbLinkedGuid@@QEAA@AEBV0@@Z" ; ntmsdba.dll
"??0NtmsDbLinkedGuid@@QEAA@XZ" ; ntmsdba.dll
"??0NtmsDbList@@QEAA@AEBV0@@Z" ; ntmsdba.dll
"??0NtmsDbList@@QEAA@H@Z" ; ntmsdba.dll
"??0NtmsDbLogicalMedia@@QEAA@PEAVNtmsDbDataCtxt@@AEBVNtmsDbGuid@@@Z" ; ntmsdba.dll
"??0NtmsDbLogicalMedia@@QEAA@XZ" ; ntmsdba.dll
"??0NtmsDbMediaPool@@QEAA@PEAVNtmsDbDataCtxt@@AEBVNtmsDbGuid@@@Z" ; ntmsdba.dll
"??0NtmsDbMediaPool@@QEAA@XZ" ; ntmsdba.dll
"??0NtmsDbMediaType@@QEAA@PEAVNtmsDbDataCtxt@@AEBVNtmsDbGuid@@@Z" ; ntmsdba.dll
"??0NtmsDbMediaType@@QEAA@XZ" ; ntmsdba.dll
"??0NtmsDbObjTypeDef@@QEAA@PEAD0KKPEAVNtmsDbRecordType@@@Z" ; ntmsdba.dll
"??0NtmsDbObject@@QEAA@AEBV0@@Z" ; ntmsdba.dll
"??0NtmsDbObject@@QEAA@K@Z" ; ntmsdba.dll
"??0NtmsDbObject@@QEAA@PEAVNtmsDbDataCtxt@@KAEBVNtmsDbGuid@@@Z" ; ntmsdba.dll
"??0NtmsDbObject@@QEAA@XZ" ; ntmsdba.dll
"??0NtmsDbOpRequest@@QEAA@PEAVNtmsDbDataCtxt@@AEBVNtmsDbGuid@@@Z" ; ntmsdba.dll
"??0NtmsDbOpRequest@@QEAA@XZ" ; ntmsdba.dll
"??0NtmsDbPartition@@QEAA@PEAVNtmsDbDataCtxt@@AEBVNtmsDbGuid@@@Z" ; ntmsdba.dll
"??0NtmsDbPartition@@QEAA@XZ" ; ntmsdba.dll
"??0NtmsDbPhysicalMedia@@QEAA@PEAVNtmsDbDataCtxt@@AEBVNtmsDbGuid@@@Z" ; ntmsdba.dll
"??0NtmsDbPhysicalMedia@@QEAA@XZ" ; ntmsdba.dll
"??0NtmsDbPropBinary@@QEAA@XZ" ; ntmsdba.dll
"??0NtmsDbPropChar@@QEAA@XZ" ; ntmsdba.dll
"??0NtmsDbPropDataType@@QEAA@F@Z" ; ntmsdba.dll
"??0NtmsDbPropDataType@@QEAA@XZ" ; ntmsdba.dll
"??0NtmsDbPropDouble@@QEAA@XZ" ; ntmsdba.dll
"??0NtmsDbPropGuid@@QEAA@XZ" ; ntmsdba.dll
"??0NtmsDbPropHeader@@QEAA@XZ" ; ntmsdba.dll
"??0NtmsDbPropLargeInt@@QEAA@XZ" ; ntmsdba.dll
"??0NtmsDbPropLong@@QEAA@XZ" ; ntmsdba.dll
"??0NtmsDbPropRelation@@QEAA@XZ" ; ntmsdba.dll
"??0NtmsDbPropShort@@QEAA@XZ" ; ntmsdba.dll
"??0NtmsDbPropTimeDate@@QEAA@XZ" ; ntmsdba.dll
"??0NtmsDbProperty@@QEAA@PEAVNtmsDbRecordProp@@@Z" ; ntmsdba.dll
"??0NtmsDbProperty@@QEAA@XZ" ; ntmsdba.dll
"??0NtmsDbPropertyValue@@QEAA@J@Z" ; ntmsdba.dll
"??0NtmsDbPropertyValue@@QEAA@PEAVNtmsDbRecordPropList@@J@Z" ; ntmsdba.dll
"??0NtmsDbRecordKey@@QEAA@AEBV0@@Z" ; ntmsdba.dll
"??0NtmsDbRecordKey@@QEAA@AEBVNtmsDbRecordType@@@Z" ; ntmsdba.dll
"??0NtmsDbRecordKey@@QEAA@FK@Z" ; ntmsdba.dll
"??0NtmsDbRecordKey@@QEAA@XZ" ; ntmsdba.dll
"??0NtmsDbRecordKeyList@@QEAA@AEBV0@@Z" ; ntmsdba.dll
"??0NtmsDbRecordKeyList@@QEAA@XZ" ; ntmsdba.dll
"??0NtmsDbRecordProp@@QEAA@XZ" ; ntmsdba.dll
"??0NtmsDbRecordPropList@@QEAA@AEBV0@@Z" ; ntmsdba.dll
"??0NtmsDbRecordPropList@@QEAA@J@Z" ; ntmsdba.dll
"??0NtmsDbRecordPropList@@QEAA@XZ" ; ntmsdba.dll
"??0NtmsDbRecordRev@@QEAA@K@Z" ; ntmsdba.dll
"??0NtmsDbRecordRev@@QEAA@XZ" ; ntmsdba.dll
"??0NtmsDbRecordType@@QEAA@F@Z" ; ntmsdba.dll
"??0NtmsDbRecordType@@QEAA@XZ" ; ntmsdba.dll
"??0NtmsDbRecordUniqueKey@@QEAA@AEBV0@@Z" ; ntmsdba.dll
"??0NtmsDbRecordUniqueKey@@QEAA@AEBVNtmsDbGuid@@@Z" ; ntmsdba.dll
"??0NtmsDbRecordUniqueKey@@QEAA@AEBVNtmsDbRecordKey@@AEBVNtmsDbGuid@@@Z" ; ntmsdba.dll
"??0NtmsDbRecordUniqueKey@@QEAA@XZ" ; ntmsdba.dll
"??0NtmsDbSelectionSet@@QEAA@AEBV0@@Z" ; ntmsdba.dll
"??0NtmsDbSelectionSet@@QEAA@PEAVNtmsDbDataCtxt@@K@Z" ; ntmsdba.dll
"??0NtmsDbSelectionSet@@QEAA@XZ" ; ntmsdba.dll
"??0NtmsDbStorageSlot@@QEAA@PEAVNtmsDbDataCtxt@@AEBVNtmsDbGuid@@@Z" ; ntmsdba.dll
"??0NtmsDbStorageSlot@@QEAA@XZ" ; ntmsdba.dll
"??0NtmsDbString@@QEAA@AEBV0@@Z" ; ntmsdba.dll
"??0NtmsDbString@@QEAA@PEBD@Z" ; ntmsdba.dll
"??0NtmsDbString@@QEAA@XZ" ; ntmsdba.dll
"??0NtmsDbString@@QEAA@_K@Z" ; ntmsdba.dll
"??0NtmsDbTypeGuid@@QEAA@AEBU_GUID@@@Z" ; ntmsdba.dll
"??0NtmsDbTypeGuid@@QEAA@AEBV0@@Z" ; ntmsdba.dll
"??0NtmsDbTypeGuid@@QEAA@AEBVNtmsDbGuid@@@Z" ; ntmsdba.dll
"??0NtmsDbTypeGuid@@QEAA@PEBD@Z" ; ntmsdba.dll
"??0NtmsDbTypeGuid@@QEAA@XZ" ; ntmsdba.dll
"??0NtmsDbUIDestination@@QEAA@PEAVNtmsDbDataCtxt@@AEBVNtmsDbGuid@@@Z" ; ntmsdba.dll
"??0NtmsDbUIDestination@@QEAA@XZ" ; ntmsdba.dll
"??0NtmsPropMetaInfo@@QEAA@JPEBD@Z" ; ntmsdba.dll
"??0NtmsTransaction@@QEAA@AEBV0@@Z" ; ntmsdba.dll
"??1Map@NtmsDbList@@QEAA@XZ" ; ntmsdba.dll
"??1NtmsDbChanger@@UEAA@XZ" ; ntmsdba.dll
"??1NtmsDbChangerType@@UEAA@XZ" ; ntmsdba.dll
"??1NtmsDbComputer@@UEAA@XZ" ; ntmsdba.dll
"??1NtmsDbDataCtxt@@QEAA@XZ" ; ntmsdba.dll
"??1NtmsDbDrive@@UEAA@XZ" ; ntmsdba.dll
"??1NtmsDbDriveType@@UEAA@XZ" ; ntmsdba.dll
"??1NtmsDbIEDoor@@UEAA@XZ" ; ntmsdba.dll
"??1NtmsDbIEPort@@UEAA@XZ" ; ntmsdba.dll
"??1NtmsDbLibWorkItem@@UEAA@XZ" ; ntmsdba.dll
"??1NtmsDbLibrary@@UEAA@XZ" ; ntmsdba.dll
"??1NtmsDbLinkedGuid@@QEAA@XZ" ; ntmsdba.dll
"??1NtmsDbList@@UEAA@XZ" ; ntmsdba.dll
"??1NtmsDbLogicalMedia@@UEAA@XZ" ; ntmsdba.dll
"??1NtmsDbMediaPool@@UEAA@XZ" ; ntmsdba.dll
"??1NtmsDbMediaType@@UEAA@XZ" ; ntmsdba.dll
"??1NtmsDbObject@@UEAA@XZ" ; ntmsdba.dll
"??1NtmsDbOpRequest@@UEAA@XZ" ; ntmsdba.dll
"??1NtmsDbPartition@@UEAA@XZ" ; ntmsdba.dll
"??1NtmsDbPhysicalMedia@@UEAA@XZ" ; ntmsdba.dll
"??1NtmsDbPropBinary@@QEAA@XZ" ; ntmsdba.dll
"??1NtmsDbPropChar@@QEAA@XZ" ; ntmsdba.dll
"??1NtmsDbPropDouble@@QEAA@XZ" ; ntmsdba.dll
"??1NtmsDbPropGuid@@QEAA@XZ" ; ntmsdba.dll
"??1NtmsDbPropHeader@@QEAA@XZ" ; ntmsdba.dll
"??1NtmsDbPropLargeInt@@QEAA@XZ" ; ntmsdba.dll
"??1NtmsDbPropLong@@QEAA@XZ" ; ntmsdba.dll
"??1NtmsDbPropRecordClass@@QEAA@XZ" ; ntmsdba.dll
"??1NtmsDbPropRelation@@QEAA@XZ" ; ntmsdba.dll
"??1NtmsDbPropShort@@QEAA@XZ" ; ntmsdba.dll
"??1NtmsDbPropTimeDate@@QEAA@XZ" ; ntmsdba.dll
"??1NtmsDbPropertyValue@@UEAA@XZ" ; ntmsdba.dll
"??1NtmsDbRecordKeyList@@UEAA@XZ" ; ntmsdba.dll
"??1NtmsDbRecordProp@@QEAA@XZ" ; ntmsdba.dll
"??1NtmsDbRecordPropList@@QEAA@XZ" ; ntmsdba.dll
"??1NtmsDbSelectionSet@@UEAA@XZ" ; ntmsdba.dll
"??1NtmsDbStorageSlot@@UEAA@XZ" ; ntmsdba.dll
"??1NtmsDbString@@QEAA@XZ" ; ntmsdba.dll
"??1NtmsDbUIDestination@@UEAA@XZ" ; ntmsdba.dll
"??4Map@NtmsDbList@@QEAAAEAV01@AEBV01@@Z" ; ntmsdba.dll
"??4NtmsDatabase@@QEAAAEAV0@AEBV0@@Z" ; ntmsdba.dll
"??4NtmsDbChanger@@QEAAAEAV0@AEAV0@@Z" ; ntmsdba.dll
"??4NtmsDbChangerType@@QEAAAEAV0@AEAV0@@Z" ; ntmsdba.dll
"??4NtmsDbComputer@@QEAAAEAV0@AEBV0@@Z" ; ntmsdba.dll
"??4NtmsDbDataCtxt@@QEAAAEBV0@AEBV0@@Z" ; ntmsdba.dll
"??4NtmsDbDrive@@QEAAAEAV0@AEAV0@@Z" ; ntmsdba.dll
"??4NtmsDbDriveType@@QEAAAEAV0@AEAV0@@Z" ; ntmsdba.dll
"??4NtmsDbError@@QEAAAEAV0@AEBV0@@Z" ; ntmsdba.dll
"??4NtmsDbError@@QEAAAEAV0@K@Z" ; ntmsdba.dll
"??4NtmsDbFile@@QEAAAEAV0@AEBV0@@Z" ; ntmsdba.dll
"??4NtmsDbGuid@@QEAAAEAV0@AEBU_GUID@@@Z" ; ntmsdba.dll
"??4NtmsDbGuid@@QEAAAEAV0@AEBV0@@Z" ; ntmsdba.dll
"??4NtmsDbGuid@@QEAAAEAV0@PEBD@Z" ; ntmsdba.dll
"??4NtmsDbIEDoor@@QEAAAEAV0@AEBV0@@Z" ; ntmsdba.dll
"??4NtmsDbIEPort@@QEAAAEAV0@AEBV0@@Z" ; ntmsdba.dll
"??4NtmsDbLibWorkItem@@QEAAAEAV0@AEBV0@@Z" ; ntmsdba.dll
"??4NtmsDbLibrary@@QEAAAEAV0@AEBV0@@Z" ; ntmsdba.dll
"??4NtmsDbLinkedGuid@@QEAAAEAV0@AEBV0@@Z" ; ntmsdba.dll
"??4NtmsDbLinkedGuid@@QEAAAEAVNtmsDbGuid@@AEBV1@@Z" ; ntmsdba.dll
"??4NtmsDbList@@QEAAAEAV0@AEBV0@@Z" ; ntmsdba.dll
"??4NtmsDbListItem@@QEAAAEAV0@AEBV0@@Z" ; ntmsdba.dll
"??4NtmsDbLogicalMedia@@QEAAAEAV0@AEBV0@@Z" ; ntmsdba.dll
"??4NtmsDbMediaPool@@QEAAAEAV0@AEBV0@@Z" ; ntmsdba.dll
"??4NtmsDbMediaType@@QEAAAEAV0@AEBV0@@Z" ; ntmsdba.dll
"??4NtmsDbObjTypeDef@@QEAAAEAV0@AEBV0@@Z" ; ntmsdba.dll
"??4NtmsDbObject@@QEAAAEAV0@AEBV0@@Z" ; ntmsdba.dll
"??4NtmsDbOpRequest@@QEAAAEAV0@AEBV0@@Z" ; ntmsdba.dll
"??4NtmsDbPartition@@QEAAAEAV0@AEBV0@@Z" ; ntmsdba.dll
"??4NtmsDbPhysicalMedia@@QEAAAEAV0@AEAV0@@Z" ; ntmsdba.dll
"??4NtmsDbPropBinary@@QEAAAEAV0@AEBV0@@Z" ; ntmsdba.dll
"??4NtmsDbPropChar@@QEAAAEAV0@AEBV0@@Z" ; ntmsdba.dll
"??4NtmsDbPropDataType@@QEAAAEAV0@AEAV0@@Z" ; ntmsdba.dll
"??4NtmsDbPropDataType@@QEAAAEAV0@F@Z" ; ntmsdba.dll
"??4NtmsDbPropDouble@@QEAAAEAV0@AEBV0@@Z" ; ntmsdba.dll
"??4NtmsDbPropGuid@@QEAAAEAV0@AEBV0@@Z" ; ntmsdba.dll
"??4NtmsDbPropHeader@@QEAAAEBV0@AEBV0@@Z" ; ntmsdba.dll
"??4NtmsDbPropLargeInt@@QEAAAEAV0@AEBV0@@Z" ; ntmsdba.dll
"??4NtmsDbPropLong@@QEAAAEAV0@AEBV0@@Z" ; ntmsdba.dll
"??4NtmsDbPropRecordClass@@QEAAAEAV0@AEBV0@@Z" ; ntmsdba.dll
"??4NtmsDbPropRelation@@QEAAAEAV0@AEAV0@@Z" ; ntmsdba.dll
"??4NtmsDbPropShort@@QEAAAEAV0@AEBV0@@Z" ; ntmsdba.dll
"??4NtmsDbPropTimeDate@@QEAAAEAV0@AEBV0@@Z" ; ntmsdba.dll
"??4NtmsDbProperty@@QEAAAEAV0@AEBV0@@Z" ; ntmsdba.dll
"??4NtmsDbPropertyValue@@QEAAAEBV0@F@Z" ; ntmsdba.dll
"??4NtmsDbPropertyValue@@QEAAAEBV0@G@Z" ; ntmsdba.dll
"??4NtmsDbPropertyValue@@QEAAAEBV0@H@Z" ; ntmsdba.dll
"??4NtmsDbPropertyValue@@QEAAAEBV0@I@Z" ; ntmsdba.dll
"??4NtmsDbPropertyValue@@QEAAAEBV0@J@Z" ; ntmsdba.dll
"??4NtmsDbPropertyValue@@QEAAAEBV0@K@Z" ; ntmsdba.dll
"??4NtmsDbPropertyValue@@QEAAAEBV0@M@Z" ; ntmsdba.dll
"??4NtmsDbPropertyValue@@QEAAAEBV0@N@Z" ; ntmsdba.dll
"??4NtmsDbPropertyValue@@QEAAAEBV0@PEBD@Z" ; ntmsdba.dll
"??4NtmsDbPropertyValue@@UEAAAEBVNtmsDbRecordProp@@AEBVNtmsDbGuid@@@Z" ; ntmsdba.dll
"??4NtmsDbRecordKey@@QEAAAEAV0@AEAVNtmsDbRecordType@@@Z" ; ntmsdba.dll
"??4NtmsDbRecordKey@@QEAAAEAV0@AEBV0@@Z" ; ntmsdba.dll
"??4NtmsDbRecordKey@@QEAAAEAV0@F@Z" ; ntmsdba.dll
"??4NtmsDbRecordKey@@QEAAAEAV0@K@Z" ; ntmsdba.dll
"??4NtmsDbRecordKeyList@@QEAAAEAV0@AEBV0@@Z" ; ntmsdba.dll
"??4NtmsDbRecordProp@@QEAAAEBV0@AEBV0@@Z" ; ntmsdba.dll
"??4NtmsDbRecordProp@@QEAAAEBV0@AEBVNtmsDbGuid@@@Z" ; ntmsdba.dll
"??4NtmsDbRecordProp@@QEAAAEBV0@F@Z" ; ntmsdba.dll
"??4NtmsDbRecordProp@@QEAAAEBV0@G@Z" ; ntmsdba.dll
"??4NtmsDbRecordProp@@QEAAAEBV0@H@Z" ; ntmsdba.dll
"??4NtmsDbRecordProp@@QEAAAEBV0@I@Z" ; ntmsdba.dll
"??4NtmsDbRecordProp@@QEAAAEBV0@J@Z" ; ntmsdba.dll
"??4NtmsDbRecordProp@@QEAAAEBV0@K@Z" ; ntmsdba.dll
"??4NtmsDbRecordProp@@QEAAAEBV0@M@Z" ; ntmsdba.dll
"??4NtmsDbRecordProp@@QEAAAEBV0@N@Z" ; ntmsdba.dll
"??4NtmsDbRecordProp@@QEAAAEBV0@PEAG@Z" ; ntmsdba.dll
"??4NtmsDbRecordProp@@QEAAAEBV0@PEBD@Z" ; ntmsdba.dll
"??4NtmsDbRecordProp@@QEAAAEBV0@T_LARGE_INTEGER@@@Z" ; ntmsdba.dll
"??4NtmsDbRecordProp@@QEAAAEBV0@U_SYSTEMTIME@@@Z" ; ntmsdba.dll
"??4NtmsDbRecordPropList@@QEAAAEBV0@AEBV0@@Z" ; ntmsdba.dll
"??4NtmsDbRecordRev@@QEAAAEAV0@AEBV0@@Z" ; ntmsdba.dll
"??4NtmsDbRecordType@@QEAAAEAV0@AEBV0@@Z" ; ntmsdba.dll
"??4NtmsDbRecordType@@QEAAXF@Z" ; ntmsdba.dll
"??4NtmsDbRecordUniqueKey@@QEAAAEBV0@AEBV0@@Z" ; ntmsdba.dll
"??4NtmsDbSelectionSet@@QEAAAEAV0@AEBV0@@Z" ; ntmsdba.dll
"??4NtmsDbStorageSlot@@QEAAAEAV0@AEBV0@@Z" ; ntmsdba.dll
"??4NtmsDbString@@QEAAAEAV0@AEAV0@@Z" ; ntmsdba.dll
"??4NtmsDbString@@QEAAAEAV0@PEBD@Z" ; ntmsdba.dll
"??4NtmsDbString@@QEAAAEAV0@PEBG@Z" ; ntmsdba.dll
"??4NtmsDbTypeGuid@@QEAAAEAV0@AEBU_GUID@@@Z" ; ntmsdba.dll
"??4NtmsDbTypeGuid@@QEAAAEAV0@AEBV0@@Z" ; ntmsdba.dll
"??4NtmsDbUIDestination@@QEAAAEAV0@AEBV0@@Z" ; ntmsdba.dll
"??4NtmsPropMetaInfo@@QEAAAEAV0@AEBV0@@Z" ; ntmsdba.dll
"??4NtmsTransaction@@QEAAAEAV0@AEBV0@@Z" ; ntmsdba.dll
"??5NtmsDbList@@QEAAXAEAPEAVNtmsDbListItem@@@Z" ; ntmsdba.dll
"??5NtmsDbPropRelation@@QEAAXAEAPEAVNtmsDbRecordUniqueKey@@@Z" ; ntmsdba.dll
"??5NtmsDbRecordKeyList@@QEAAXAEAPEAVNtmsDbRecordUniqueKey@@@Z" ; ntmsdba.dll
"??5NtmsDbRecordPropList@@QEAAXAEAPEAVNtmsDbPropChar@@@Z" ; ntmsdba.dll
"??5NtmsDbRecordPropList@@QEAAXAEAPEAVNtmsDbPropGuid@@@Z" ; ntmsdba.dll
"??5NtmsDbRecordPropList@@QEAAXAEAPEAVNtmsDbPropLargeInt@@@Z" ; ntmsdba.dll
"??5NtmsDbRecordPropList@@QEAAXAEAPEAVNtmsDbPropLong@@@Z" ; ntmsdba.dll
"??5NtmsDbRecordPropList@@QEAAXAEAPEAVNtmsDbPropRelation@@@Z" ; ntmsdba.dll
"??5NtmsDbRecordPropList@@QEAAXAEAPEAVNtmsDbPropShort@@@Z" ; ntmsdba.dll
"??5NtmsDbRecordPropList@@QEAAXAEAPEAVNtmsDbRecordProp@@@Z" ; ntmsdba.dll
"??6NtmsDbList@@QEAAXAEAVNtmsDbListItem@@@Z" ; ntmsdba.dll
"??6NtmsDbPropRelation@@QEAAXAEAVNtmsDbRecordUniqueKey@@@Z" ; ntmsdba.dll
"??6NtmsDbRecordKeyList@@QEAAXAEBVNtmsDbRecordUniqueKey@@@Z" ; ntmsdba.dll
"??6NtmsDbSelectionSet@@QEAAXAEBVNtmsDbGuid@@@Z" ; ntmsdba.dll
"??6NtmsDbSelectionSet@@QEAAXAEBVNtmsDbRecordUniqueKey@@@Z" ; ntmsdba.dll
"??8NtmsDbGuid@@QEBAHAEBU_GUID@@@Z" ; ntmsdba.dll
"??8NtmsDbGuid@@QEBAHAEBV0@@Z" ; ntmsdba.dll
"??8NtmsDbPropDataType@@QEAAHAEAV0@@Z" ; ntmsdba.dll
"??8NtmsDbPropDataType@@QEAAHF@Z" ; ntmsdba.dll
"??8NtmsDbPropHeader@@QEBAHAEBV0@@Z" ; ntmsdba.dll
"??8NtmsDbRecordKey@@QEBAHAEBV0@@Z" ; ntmsdba.dll
"??8NtmsDbRecordRev@@QEAAHAEBV0@@Z" ; ntmsdba.dll
"??8NtmsDbRecordUniqueKey@@QEBAHAEBVNtmsDbGuid@@@Z" ; ntmsdba.dll
"??9NtmsDbGuid@@QEBAHAEBU_GUID@@@Z" ; ntmsdba.dll
"??9NtmsDbGuid@@QEBAHAEBV0@@Z" ; ntmsdba.dll
"??9NtmsDbPropDataType@@QEAAHAEAV0@@Z" ; ntmsdba.dll
"??9NtmsDbPropDataType@@QEAAHF@Z" ; ntmsdba.dll
"??9NtmsDbPropHeader@@QEBAHAEBV0@@Z" ; ntmsdba.dll
"??9NtmsDbRecordKey@@QEBAHAEBV0@@Z" ; ntmsdba.dll
"??9NtmsDbRecordRev@@QEAAHAEBV0@@Z" ; ntmsdba.dll
"??9NtmsDbRecordUniqueKey@@QEBAHAEBVNtmsDbGuid@@@Z" ; ntmsdba.dll
"??ANtmsDbList@@QEBAPEAVNtmsDbListItem@@J@Z" ; ntmsdba.dll
"??ANtmsDbRecordKeyList@@QEBAPEAVNtmsDbRecordUniqueKey@@J@Z" ; ntmsdba.dll
"??ANtmsDbRecordPropList@@QEAAPEAVNtmsDbRecordProp@@J@Z" ; ntmsdba.dll
"??ANtmsDbRecordPropList@@QEBAPEBVNtmsDbRecordProp@@J@Z" ; ntmsdba.dll
"??BNtmsDbError@@QEBAKXZ" ; ntmsdba.dll
"??BNtmsDbGuid@@QEBAPEAU_GUID@@XZ" ; ntmsdba.dll
"??BNtmsDbPropDataType@@QEBAFXZ" ; ntmsdba.dll
"??BNtmsDbPropGuid@@QEAAAEAVNtmsDbGuid@@XZ" ; ntmsdba.dll
"??BNtmsDbPropRelation@@QEAAPEAVNtmsDbRecordKeyList@@XZ" ; ntmsdba.dll
"??BNtmsDbRecordProp@@QEBA?AT_LARGE_INTEGER@@XZ" ; ntmsdba.dll
"??BNtmsDbRecordProp@@QEBA?AU_SYSTEMTIME@@XZ" ; ntmsdba.dll
"??BNtmsDbRecordProp@@QEBA?AVNtmsDbGuid@@XZ" ; ntmsdba.dll
"??BNtmsDbRecordProp@@QEBAFXZ" ; ntmsdba.dll
"??BNtmsDbRecordProp@@QEBAGXZ" ; ntmsdba.dll
"??BNtmsDbRecordProp@@QEBAJXZ" ; ntmsdba.dll
"??BNtmsDbRecordProp@@QEBAKXZ" ; ntmsdba.dll
"??BNtmsDbRecordProp@@QEBAMXZ" ; ntmsdba.dll
"??BNtmsDbRecordProp@@QEBANXZ" ; ntmsdba.dll
"??BNtmsDbRecordProp@@QEBAPEAGXZ" ; ntmsdba.dll
"??BNtmsDbRecordProp@@QEBAPEBDXZ" ; ntmsdba.dll
"??BNtmsDbRecordRev@@QEAAKXZ" ; ntmsdba.dll
"??BNtmsDbRecordType@@QEBAFXZ" ; ntmsdba.dll
"??BNtmsDbRecordUniqueKey@@QEAAAEAVNtmsDbGuid@@XZ" ; ntmsdba.dll
"??BNtmsDbRecordUniqueKey@@QEAAPEAVNtmsDbGuid@@XZ" ; ntmsdba.dll
"??BNtmsDbRecordUniqueKey@@QEAAPEAVNtmsDbRecordKey@@XZ" ; ntmsdba.dll
"??BNtmsDbString@@QEBAPEBDXZ" ; ntmsdba.dll
"??BNtmsDbTypeGuid@@QEAAAEAVNtmsDbGuid@@XZ" ; ntmsdba.dll
"??ENtmsDbRecordRev@@QEAAXH@Z" ; ntmsdba.dll
"??ENtmsDbRecordRev@@QEAAXXZ" ; ntmsdba.dll
"??GNtmsDbList@@QEAAAEAV0@J@Z" ; ntmsdba.dll
"??GNtmsDbList@@QEAAAEAV0@PEAVNtmsDbListItem@@@Z" ; ntmsdba.dll
"??HNtmsDbList@@QEAAAEAV0@PEAVNtmsDbListItem@@@Z" ; ntmsdba.dll
"??YNtmsDbList@@QEAAAEAV0@AEAVNtmsDbListItem@@@Z" ; ntmsdba.dll
"??YNtmsDbList@@QEAAAEAV0@PEAVNtmsDbListItem@@@Z" ; ntmsdba.dll
"??YNtmsDbString@@QEAAAEAV0@AEAV0@@Z" ; ntmsdba.dll
"??YNtmsDbString@@QEAAAEAV0@PEBD@Z" ; ntmsdba.dll
"??ZNtmsDbList@@QEAAAEAV0@AEAVNtmsDbListItem@@@Z" ; ntmsdba.dll
"??ZNtmsDbList@@QEAAAEAV0@J@Z" ; ntmsdba.dll
"??ZNtmsDbList@@QEAAAEAV0@PEAVNtmsDbListItem@@@Z" ; ntmsdba.dll
"??_7NtmsDatabase@@6B@" ; ntmsdba.dll
"??_7NtmsDbChanger@@6B@" ; ntmsdba.dll
"??_7NtmsDbChangerType@@6B@" ; ntmsdba.dll
"??_7NtmsDbComputer@@6B@" ; ntmsdba.dll
"??_7NtmsDbDrive@@6B@" ; ntmsdba.dll
"??_7NtmsDbDriveType@@6B@" ; ntmsdba.dll
"??_7NtmsDbFile@@6B@" ; ntmsdba.dll
"??_7NtmsDbIEDoor@@6B@" ; ntmsdba.dll
"??_7NtmsDbIEPort@@6B@" ; ntmsdba.dll
"??_7NtmsDbLibWorkItem@@6B@" ; ntmsdba.dll
"??_7NtmsDbLibrary@@6B@" ; ntmsdba.dll
"??_7NtmsDbList@@6B@" ; ntmsdba.dll
"??_7NtmsDbLogicalMedia@@6B@" ; ntmsdba.dll
"??_7NtmsDbMediaPool@@6B@" ; ntmsdba.dll
"??_7NtmsDbMediaType@@6B@" ; ntmsdba.dll
"??_7NtmsDbObject@@6B@" ; ntmsdba.dll
"??_7NtmsDbOpRequest@@6B@" ; ntmsdba.dll
"??_7NtmsDbPartition@@6B@" ; ntmsdba.dll
"??_7NtmsDbPhysicalMedia@@6B@" ; ntmsdba.dll
"??_7NtmsDbPropertyValue@@6B@" ; ntmsdba.dll
"??_7NtmsDbRecordKeyList@@6B@" ; ntmsdba.dll
"??_7NtmsDbSelectionSet@@6B@" ; ntmsdba.dll
"??_7NtmsDbStorageSlot@@6B@" ; ntmsdba.dll
"??_7NtmsDbUIDestination@@6B@" ; ntmsdba.dll
"??_7NtmsTransaction@@6B@" ; ntmsdba.dll
"??_FNtmsDbDataCtxt@@QEAAXXZ" ; ntmsdba.dll
"??_FNtmsDbList@@QEAAXXZ" ; ntmsdba.dll
"?AccessAllowed@NtmsDatabase@@QEAAKXZ" ; ntmsdba.dll
"?AcquireChangeMutex@NtmsDbDataCtxt@@SAKK@Z" ; ntmsdba.dll
"?AddMediaType@NtmsDbLibrary@@QEAAKAEBVNtmsDbGuid@@@Z" ; ntmsdba.dll
"?AddUIDestination@NtmsDbComputer@@QEAAKKAEBVNtmsDbGuid@@@Z" ; ntmsdba.dll
"?AddUIDestination@NtmsDbLibrary@@QEAAKKAEBVNtmsDbGuid@@@Z" ; ntmsdba.dll
"?AllocateCount@NtmsDbPartition@@QEBA?BKXZ" ; ntmsdba.dll
"?AllocationPolicy@NtmsDbMediaPool@@QEBA?BKXZ" ; ntmsdba.dll
"?Application@NtmsDbLibWorkItem@@QEBAPEBGXZ" ; ntmsdba.dll
"?Application@NtmsDbOpRequest@@QEBAPEBGXZ" ; ntmsdba.dll
"?Arg1@NtmsDbOpRequest@@QEBAAEBVNtmsDbGuid@@XZ" ; ntmsdba.dll
"?Arg1Type@NtmsDbOpRequest@@QEBAKXZ" ; ntmsdba.dll
"?Arg2@NtmsDbOpRequest@@QEBAAEBVNtmsDbGuid@@XZ" ; ntmsdba.dll
"?Arg2Type@NtmsDbOpRequest@@QEBAKXZ" ; ntmsdba.dll
"?AssocWorkItem_IsNotNull@NtmsDbLibWorkItem@@QEAAJXZ" ; ntmsdba.dll
"?AssocWorkItem_n@NtmsDbLibWorkItem@@QEBAAEBVNtmsDbGuid@@XZ" ; ntmsdba.dll
"?AutoRecovery@NtmsDbLibrary@@QEBA?BFXZ" ; ntmsdba.dll
"?BarCodeReader@NtmsDbLibrary@@QEBA?BFXZ" ; ntmsdba.dll
"?BarcodeState@NtmsDbPhysicalMedia@@QEBA?BKXZ" ; ntmsdba.dll
"?BarcodeW@NtmsDbPhysicalMedia@@QEBAPEBGXZ" ; ntmsdba.dll
"?Barcode_IsNotNull@NtmsDbPhysicalMedia@@QEAAJXZ" ; ntmsdba.dll
"?Barcode_n@NtmsDbPhysicalMedia@@QEAAPEBDXZ" ; ntmsdba.dll
"?BuildPropertyList@NtmsDbChanger@@AEAAXXZ" ; ntmsdba.dll
"?BuildPropertyList@NtmsDbChangerType@@AEAAXXZ" ; ntmsdba.dll
"?BuildPropertyList@NtmsDbComputer@@AEAAXXZ" ; ntmsdba.dll
"?BuildPropertyList@NtmsDbDrive@@AEAAXXZ" ; ntmsdba.dll
"?BuildPropertyList@NtmsDbDriveType@@AEAAXXZ" ; ntmsdba.dll
"?BuildPropertyList@NtmsDbIEDoor@@AEAAXXZ" ; ntmsdba.dll
"?BuildPropertyList@NtmsDbIEPort@@AEAAXXZ" ; ntmsdba.dll
"?BuildPropertyList@NtmsDbLibWorkItem@@AEAAXXZ" ; ntmsdba.dll
"?BuildPropertyList@NtmsDbLibrary@@AEAAXXZ" ; ntmsdba.dll
"?BuildPropertyList@NtmsDbLogicalMedia@@AEAAXXZ" ; ntmsdba.dll
"?BuildPropertyList@NtmsDbMediaPool@@AEAAXXZ" ; ntmsdba.dll
"?BuildPropertyList@NtmsDbMediaType@@AEAAXXZ" ; ntmsdba.dll
"?BuildPropertyList@NtmsDbObject@@AEAAXXZ" ; ntmsdba.dll
"?BuildPropertyList@NtmsDbOpRequest@@AEAAXXZ" ; ntmsdba.dll
"?BuildPropertyList@NtmsDbPartition@@AEAAXXZ" ; ntmsdba.dll
"?BuildPropertyList@NtmsDbPhysicalMedia@@AEAAXXZ" ; ntmsdba.dll
"?BuildPropertyList@NtmsDbStorageSlot@@AEAAXXZ" ; ntmsdba.dll
"?BuildPropertyList@NtmsDbUIDestination@@AEAAXXZ" ; ntmsdba.dll
"?Capacity@NtmsDbPartition@@QEAAAEAT_LARGE_INTEGER@@XZ" ; ntmsdba.dll
"?ChangerType@NtmsDbChanger@@QEBAAEBVNtmsDbGuid@@XZ" ; ntmsdba.dll
"?Changers@NtmsDbLibrary@@QEAAKPEAVNtmsDbDataCtxt@@AEAVNtmsDbSelectionSet@@@Z" ; ntmsdba.dll
"?CleanerSlot_IsNotNull@NtmsDbLibrary@@QEBAJXZ" ; ntmsdba.dll
"?CleanerSlot_n@NtmsDbLibrary@@QEBAAEBVNtmsDbGuid@@XZ" ; ntmsdba.dll
"?CleansRemaining@NtmsDbLibrary@@QEBA?BKXZ" ; ntmsdba.dll
"?Clear@NtmsDbList@@QEAAXXZ" ; ntmsdba.dll
"?ClearModified@NtmsDbRecordProp@@QEAAXXZ" ; ntmsdba.dll
"?Code@NtmsDbRecordProp@@QEBA?BFXZ" ; ntmsdba.dll
"?Code@NtmsDbRecordType@@QEBAFXZ" ; ntmsdba.dll
"?CommitTransaction@NtmsDbDataCtxt@@QEAAKXZ" ; ntmsdba.dll
"?ComputeProps@NtmsDbObject@@UEAAXW4ObjectOperationType@1@@Z" ; ntmsdba.dll
"?ComputeProps@NtmsDbObject@@UEAAXW4ObjectOperationType@1@J@Z" ; ntmsdba.dll
"?Computer@NtmsDbLibWorkItem@@QEBAPEBGXZ" ; ntmsdba.dll
"?Computer@NtmsDbOpRequest@@QEBAPEBGXZ" ; ntmsdba.dll
"?Computer_IsNotNull@NtmsDbDrive@@QEBAJXZ" ; ntmsdba.dll
"?Computer_IsNotNull@NtmsDbLibrary@@QEBAJXZ" ; ntmsdba.dll
"?Computer_n@NtmsDbDrive@@QEBAAEBVNtmsDbGuid@@XZ" ; ntmsdba.dll
"?Computer_n@NtmsDbLibrary@@QEBAAEBVNtmsDbGuid@@XZ" ; ntmsdba.dll
"?ConcatString@NtmsDbString@@IEAAXPEBD@Z" ; ntmsdba.dll
"?Connect@NtmsDbDataCtxt@@QEAAKPEBG0@Z" ; ntmsdba.dll
"?ConvertMBString@NtmsDbString@@IEAAXPEBGKAEAPEADAEA_K@Z" ; ntmsdba.dll
"?CopyData@NtmsDbRecordProp@@QEAAXPEAXJ@Z" ; ntmsdba.dll
"?Count@NtmsDbList@@QEBAJXZ" ; ntmsdba.dll
"?Count@NtmsDbObject@@QEBAJXZ" ; ntmsdba.dll
"?Count@NtmsDbPropHeader@@QEBAJXZ" ; ntmsdba.dll
"?Count@NtmsDbRecordProp@@QEBAKXZ" ; ntmsdba.dll
"?Count@NtmsDbRecordPropList@@QEBAJXZ" ; ntmsdba.dll
"?Count@NtmsDbSelectionSet@@UEBAJXZ" ; ntmsdba.dll
"?CreateTs@NtmsDbObject@@QEBA?AU_SYSTEMTIME@@XZ" ; ntmsdba.dll
"?DataSize@NtmsDbRecordProp@@QEBAKXZ" ; ntmsdba.dll
"?Database@NtmsDbDataCtxt@@QEAAPEAVNtmsDatabase@@XZ" ; ntmsdba.dll
"?DeallocationPolicy@NtmsDbMediaPool@@QEBA?BKXZ" ; ntmsdba.dll
"?DecCount@NtmsDbPropHeader@@QEAAXXZ" ; ntmsdba.dll
"?DecReference@NtmsDbUIDestination@@QEAAJXZ" ; ntmsdba.dll
"?DefCleanerSlot_IsNotNull@NtmsDbLibrary@@QEBAJXZ" ; ntmsdba.dll
"?DefCleanerSlot_n@NtmsDbLibrary@@QEBAAEBVNtmsDbGuid@@XZ" ; ntmsdba.dll
"?DeferDelay@NtmsDbDrive@@QEBA?BKXZ" ; ntmsdba.dll
"?DeleteDbObject@NtmsDbChanger@@MEAAXPEAVNtmsDbDataCtxt@@@Z" ; ntmsdba.dll
"?DeleteDbObject@NtmsDbChangerType@@MEAAXPEAVNtmsDbDataCtxt@@@Z" ; ntmsdba.dll
"?DeleteDbObject@NtmsDbComputer@@MEAAXPEAVNtmsDbDataCtxt@@@Z" ; ntmsdba.dll
"?DeleteDbObject@NtmsDbDrive@@MEAAXPEAVNtmsDbDataCtxt@@@Z" ; ntmsdba.dll
"?DeleteDbObject@NtmsDbDriveType@@MEAAXPEAVNtmsDbDataCtxt@@@Z" ; ntmsdba.dll
"?DeleteDbObject@NtmsDbIEDoor@@MEAAXPEAVNtmsDbDataCtxt@@@Z" ; ntmsdba.dll
"?DeleteDbObject@NtmsDbIEPort@@MEAAXPEAVNtmsDbDataCtxt@@@Z" ; ntmsdba.dll
"?DeleteDbObject@NtmsDbLibWorkItem@@MEAAXPEAVNtmsDbDataCtxt@@@Z" ; ntmsdba.dll
"?DeleteDbObject@NtmsDbLibrary@@MEAAXPEAVNtmsDbDataCtxt@@@Z" ; ntmsdba.dll
"?DeleteDbObject@NtmsDbLogicalMedia@@MEAAXPEAVNtmsDbDataCtxt@@@Z" ; ntmsdba.dll
"?DeleteDbObject@NtmsDbMediaPool@@MEAAXPEAVNtmsDbDataCtxt@@@Z" ; ntmsdba.dll
"?DeleteDbObject@NtmsDbMediaType@@MEAAXPEAVNtmsDbDataCtxt@@@Z" ; ntmsdba.dll
"?DeleteDbObject@NtmsDbObject@@MEAAXPEAVNtmsDbDataCtxt@@@Z" ; ntmsdba.dll
"?DeleteDbObject@NtmsDbOpRequest@@MEAAXPEAVNtmsDbDataCtxt@@@Z" ; ntmsdba.dll
"?DeleteDbObject@NtmsDbPartition@@MEAAXPEAVNtmsDbDataCtxt@@@Z" ; ntmsdba.dll
"?DeleteDbObject@NtmsDbPhysicalMedia@@MEAAXPEAVNtmsDbDataCtxt@@@Z" ; ntmsdba.dll
"?DeleteDbObject@NtmsDbStorageSlot@@MEAAXPEAVNtmsDbDataCtxt@@@Z" ; ntmsdba.dll
"?DeleteDbObject@NtmsDbUIDestination@@MEAAXPEAVNtmsDbDataCtxt@@@Z" ; ntmsdba.dll
"?DeleteObjects@NtmsDbSelectionSet@@UEAAKPEAVNtmsDbDataCtxt@@@Z" ; ntmsdba.dll
"?DeleteReferences@NtmsDbObject@@IEAAXPEAVNtmsDbDataCtxt@@PEAVNtmsDbRecordPropList@@@Z" ; ntmsdba.dll
"?DensityCode@NtmsDbPhysicalMedia@@QEAAKXZ" ; ntmsdba.dll
"?DescriptionW@NtmsDbObject@@QEAAPEBGXZ" ; ntmsdba.dll
"?DescriptionW@NtmsDbObject@@QEBAPEBGXZ" ; ntmsdba.dll
"?Description_IsNotNull@NtmsDbObject@@QEAAJXZ" ; ntmsdba.dll
"?Description_n@NtmsDbObject@@QEAAPEBDXZ" ; ntmsdba.dll
"?DestroyMutex@NtmsDbDataCtxt@@SAXXZ" ; ntmsdba.dll
"?Destruct@NtmsDbList@@UEAAXPEAVNtmsDbListItem@@@Z" ; ntmsdba.dll
"?DeviceType@NtmsDbChangerType@@QEBA?BKXZ" ; ntmsdba.dll
"?DeviceType@NtmsDbMediaType@@QEBA?BKXZ" ; ntmsdba.dll
"?DisableNotification@NtmsDbDataCtxt@@SAXPEAVChangeRegistration@@@Z" ; ntmsdba.dll
"?Disconnect@NtmsDbDataCtxt@@QEAAKXZ" ; ntmsdba.dll
"?DriveId_IsNotNull@NtmsDbLibWorkItem@@QEAAJXZ" ; ntmsdba.dll
"?DriveId_n@NtmsDbLibWorkItem@@QEBAAEBVNtmsDbGuid@@XZ" ; ntmsdba.dll
"?DriveNumber@NtmsDbDrive@@QEBA?BKXZ" ; ntmsdba.dll
"?DriveState@NtmsDbDrive@@QEBA?BKXZ" ; ntmsdba.dll
"?DriveType@NtmsDbDrive@@QEBAAEBVNtmsDbGuid@@XZ" ; ntmsdba.dll
"?DriveType@NtmsDbDriveType@@QEBA?BKXZ" ; ntmsdba.dll
"?Drives@NtmsDbComputer@@QEAAKPEAVNtmsDbDataCtxt@@AEAVNtmsDbSelectionSet@@@Z" ; ntmsdba.dll
"?Drives@NtmsDbLibrary@@QEAAKPEAVNtmsDbDataCtxt@@AEAVNtmsDbSelectionSet@@@Z" ; ntmsdba.dll
"?Dynamic@NtmsDbList@@QEBAHXZ" ; ntmsdba.dll
"?Dynamic@NtmsDbRecordProp@@QEBAHXZ" ; ntmsdba.dll
"?EnableNotification@NtmsDbDataCtxt@@SAPEAVChangeRegistration@@P6AXHAEBVNtmsDbGuid@@HPEAX@Z1@Z" ; ntmsdba.dll
"?Enabled@NtmsDbObject@@QEBA?BFXZ" ; ntmsdba.dll
"?EnterConnCritSection@NtmsDbDataCtxt@@QEAAXXZ" ; ntmsdba.dll
"?Error@NtmsDbDataCtxt@@QEBAAEBVNtmsDbError@@XZ" ; ntmsdba.dll
"?Error@NtmsDbError@@QEBA?BHXZ" ; ntmsdba.dll
"?Error@NtmsDbObject@@QEAAAEAVNtmsDbError@@XZ" ; ntmsdba.dll
"?ErrorCode@NtmsDbLibWorkItem@@QEAAKXZ" ; ntmsdba.dll
"?ExplicitAddRelation@NtmsDbObject@@QEAAKJFAEBVNtmsDbGuid@@@Z" ; ntmsdba.dll
"?ExplicitRemoveRelation@NtmsDbObject@@QEAAKJAEBVNtmsDbGuid@@@Z" ; ntmsdba.dll
"?ExportDatabase@NtmsDbDataCtxt@@QEAAKXZ" ; ntmsdba.dll
"?ExtendState@NtmsDbIEPort@@QEBA?BKXZ" ; ntmsdba.dll
"?Fetch@NtmsDbObject@@UEAAKPEAVNtmsDbDataCtxt@@@Z" ; ntmsdba.dll
"?FileEnd@NtmsDatabase@@AEAAKXZ" ; ntmsdba.dll
"?FileHandle@NtmsDbFile@@QEAAPEAXXZ" ; ntmsdba.dll
"?FilePosition@NtmsDatabase@@AEAAKK@Z" ; ntmsdba.dll
"?FileStatus@NtmsDbFile@@QEAAKXZ" ; ntmsdba.dll
"?Filename@NtmsDbFile@@QEAAPEAGXZ" ; ntmsdba.dll
"?Fill@NtmsDbTypeGuid@@AEAAXAEAU_GUID@@PEAD@Z" ; ntmsdba.dll
"?Find@Map@NtmsDbList@@QEBAJPEAVNtmsDbListItem@@@Z" ; ntmsdba.dll
"?FindObType@NtmsDbDataCtxt@@SAHAEAVNtmsDbRecordKey@@@Z" ; ntmsdba.dll
"?FindObType@NtmsDbDataCtxt@@SAHF@Z" ; ntmsdba.dll
"?FirstChangerNumber@NtmsDbLibrary@@QEBA?BKXZ" ; ntmsdba.dll
"?FirstDriveNumber@NtmsDbLibrary@@QEBA?BKXZ" ; ntmsdba.dll
"?FirstPortNumber@NtmsDbLibrary@@QEBA?BKXZ" ; ntmsdba.dll
"?FirstSlotNumber@NtmsDbLibrary@@QEBA?BKXZ" ; ntmsdba.dll
"?FixedOffline@NtmsDbLibrary@@QEBA?BFXZ" ; ntmsdba.dll
"?Flags@NtmsDbLibrary@@QEBA?BKXZ" ; ntmsdba.dll
"?Folders@NtmsDbMediaPool@@QEAAKPEAVNtmsDbDataCtxt@@AEAVNtmsDbSelectionSet@@@Z" ; ntmsdba.dll
"?Full@Map@NtmsDbList@@QEBAHXZ" ; ntmsdba.dll
"?FullState@NtmsDbIEPort@@QEBA?BKXZ" ; ntmsdba.dll
"?GenerateHash@NtmsDbGuid@@QEAAFXZ" ; ntmsdba.dll
"?Get@Map@NtmsDbList@@QEBAJJAEAPEAVNtmsDbListItem@@@Z" ; ntmsdba.dll
"?GetAllocOption@NtmsDbPartition@@QEAAKXZ" ; ntmsdba.dll
"?GetApplicationA@NtmsDbLibWorkItem@@QEAAXPEADH@Z" ; ntmsdba.dll
"?GetApplicationA@NtmsDbOpRequest@@QEAAXPEADH@Z" ; ntmsdba.dll
"?GetApplicationW@NtmsDbLibWorkItem@@QEAAXPEAGH@Z" ; ntmsdba.dll
"?GetApplicationW@NtmsDbOpRequest@@QEAAXPEAGH@Z" ; ntmsdba.dll
"?GetAttribute@NtmsDbObject@@QEAAKPEAVNtmsDbDataCtxt@@PEBDPEAXPEAK@Z" ; ntmsdba.dll
"?GetBarcodeA@NtmsDbPhysicalMedia@@QEAAXPEADH@Z" ; ntmsdba.dll
"?GetBarcodeW@NtmsDbPhysicalMedia@@QEAAXPEAGH@Z" ; ntmsdba.dll
"?GetComputer@NtmsDbUIDestination@@QEAAXPEAGH@Z" ; ntmsdba.dll
"?GetComputerA@NtmsDbLibWorkItem@@QEAAXPEADH@Z" ; ntmsdba.dll
"?GetComputerA@NtmsDbOpRequest@@QEAAXPEADH@Z" ; ntmsdba.dll
"?GetComputerW@NtmsDbLibWorkItem@@QEAAXPEAGH@Z" ; ntmsdba.dll
"?GetComputerW@NtmsDbOpRequest@@QEAAXPEAGH@Z" ; ntmsdba.dll
"?GetData@NtmsDbRecordProp@@QEBAPEAXPEAH@Z" ; ntmsdba.dll
"?GetDbObject@NtmsDbChanger@@MEAAXPEAVNtmsDbDataCtxt@@@Z" ; ntmsdba.dll
"?GetDbObject@NtmsDbChangerType@@MEAAXPEAVNtmsDbDataCtxt@@@Z" ; ntmsdba.dll
"?GetDbObject@NtmsDbComputer@@MEAAXPEAVNtmsDbDataCtxt@@@Z" ; ntmsdba.dll
"?GetDbObject@NtmsDbDrive@@MEAAXPEAVNtmsDbDataCtxt@@@Z" ; ntmsdba.dll
"?GetDbObject@NtmsDbDriveType@@MEAAXPEAVNtmsDbDataCtxt@@@Z" ; ntmsdba.dll
"?GetDbObject@NtmsDbIEDoor@@MEAAXPEAVNtmsDbDataCtxt@@@Z" ; ntmsdba.dll
"?GetDbObject@NtmsDbIEPort@@MEAAXPEAVNtmsDbDataCtxt@@@Z" ; ntmsdba.dll
"?GetDbObject@NtmsDbLibWorkItem@@MEAAXPEAVNtmsDbDataCtxt@@@Z" ; ntmsdba.dll
"?GetDbObject@NtmsDbLibrary@@MEAAXPEAVNtmsDbDataCtxt@@@Z" ; ntmsdba.dll
"?GetDbObject@NtmsDbLogicalMedia@@MEAAXPEAVNtmsDbDataCtxt@@@Z" ; ntmsdba.dll
"?GetDbObject@NtmsDbMediaPool@@MEAAXPEAVNtmsDbDataCtxt@@@Z" ; ntmsdba.dll
"?GetDbObject@NtmsDbMediaType@@MEAAXPEAVNtmsDbDataCtxt@@@Z" ; ntmsdba.dll
"?GetDbObject@NtmsDbObject@@MEAAXPEAVNtmsDbDataCtxt@@@Z" ; ntmsdba.dll
"?GetDbObject@NtmsDbOpRequest@@MEAAXPEAVNtmsDbDataCtxt@@@Z" ; ntmsdba.dll
"?GetDbObject@NtmsDbPartition@@MEAAXPEAVNtmsDbDataCtxt@@@Z" ; ntmsdba.dll
"?GetDbObject@NtmsDbPhysicalMedia@@MEAAXPEAVNtmsDbDataCtxt@@@Z" ; ntmsdba.dll
"?GetDbObject@NtmsDbStorageSlot@@MEAAXPEAVNtmsDbDataCtxt@@@Z" ; ntmsdba.dll
"?GetDbObject@NtmsDbUIDestination@@MEAAXPEAVNtmsDbDataCtxt@@@Z" ; ntmsdba.dll
"?GetDbProperty@NtmsDbChanger@@MEBAPEAVNtmsDbRecordProp@@J@Z" ; ntmsdba.dll
"?GetDbProperty@NtmsDbChangerType@@MEBAPEAVNtmsDbRecordProp@@J@Z" ; ntmsdba.dll
"?GetDbProperty@NtmsDbComputer@@MEBAPEAVNtmsDbRecordProp@@J@Z" ; ntmsdba.dll
"?GetDbProperty@NtmsDbDrive@@MEBAPEAVNtmsDbRecordProp@@J@Z" ; ntmsdba.dll
"?GetDbProperty@NtmsDbDriveType@@MEBAPEAVNtmsDbRecordProp@@J@Z" ; ntmsdba.dll
"?GetDbProperty@NtmsDbIEDoor@@MEBAPEAVNtmsDbRecordProp@@J@Z" ; ntmsdba.dll
"?GetDbProperty@NtmsDbIEPort@@MEBAPEAVNtmsDbRecordProp@@J@Z" ; ntmsdba.dll
"?GetDbProperty@NtmsDbLibWorkItem@@MEBAPEAVNtmsDbRecordProp@@J@Z" ; ntmsdba.dll
"?GetDbProperty@NtmsDbLibrary@@MEBAPEAVNtmsDbRecordProp@@J@Z" ; ntmsdba.dll
"?GetDbProperty@NtmsDbLogicalMedia@@MEBAPEAVNtmsDbRecordProp@@J@Z" ; ntmsdba.dll
"?GetDbProperty@NtmsDbMediaPool@@MEBAPEAVNtmsDbRecordProp@@J@Z" ; ntmsdba.dll
"?GetDbProperty@NtmsDbMediaType@@MEBAPEAVNtmsDbRecordProp@@J@Z" ; ntmsdba.dll
"?GetDbProperty@NtmsDbObject@@MEBAPEAVNtmsDbRecordProp@@J@Z" ; ntmsdba.dll
"?GetDbProperty@NtmsDbOpRequest@@MEBAPEAVNtmsDbRecordProp@@J@Z" ; ntmsdba.dll
"?GetDbProperty@NtmsDbPartition@@MEBAPEAVNtmsDbRecordProp@@J@Z" ; ntmsdba.dll
"?GetDbProperty@NtmsDbPhysicalMedia@@MEBAPEAVNtmsDbRecordProp@@J@Z" ; ntmsdba.dll
"?GetDbProperty@NtmsDbStorageSlot@@MEBAPEAVNtmsDbRecordProp@@J@Z" ; ntmsdba.dll
"?GetDbProperty@NtmsDbUIDestination@@MEBAPEAVNtmsDbRecordProp@@J@Z" ; ntmsdba.dll
"?GetDescriptionA@NtmsDbObject@@QEAAXPEADH@Z" ; ntmsdba.dll
"?GetDescriptionW@NtmsDbObject@@QEAAXPEAGH@Z" ; ntmsdba.dll
"?GetDriveLetter@NtmsDbDrive@@QEAAXPEAGH@Z" ; ntmsdba.dll
"?GetDriveLetterA@NtmsDbDrive@@QEAAXPEADH@Z" ; ntmsdba.dll
"?GetMessageA@NtmsDbOpRequest@@QEAAXPEADH@Z" ; ntmsdba.dll
"?GetMessageW@NtmsDbOpRequest@@QEAAXPEAGH@Z" ; ntmsdba.dll
"?GetNameA@NtmsDbObject@@QEAAXPEADH@Z" ; ntmsdba.dll
"?GetNameW@NtmsDbObject@@QEAAXPEAGH@Z" ; ntmsdba.dll
"?GetNull@NtmsDbRecordPropList@@SAAEAVNtmsDbRecordProp@@XZ" ; ntmsdba.dll
"?GetOmidLabelInfoA@NtmsDbPartition@@QEBAXPEADH@Z" ; ntmsdba.dll
"?GetOmidLabelInfoW@NtmsDbPartition@@QEBAXPEAGH@Z" ; ntmsdba.dll
"?GetOmidLabelTypeA@NtmsDbPartition@@QEBAXPEADH@Z" ; ntmsdba.dll
"?GetOmidLabelTypeW@NtmsDbPartition@@QEBAXPEAGH@Z" ; ntmsdba.dll
"?GetPathNameA@NtmsDbChanger@@QEAAXPEADH@Z" ; ntmsdba.dll
"?GetPathNameA@NtmsDbDrive@@QEAAXPEADH@Z" ; ntmsdba.dll
"?GetPathNameW@NtmsDbChanger@@QEAAXPEAGH@Z" ; ntmsdba.dll
"?GetPathNameW@NtmsDbDrive@@QEAAXPEAGH@Z" ; ntmsdba.dll
"?GetProductA@NtmsDbChangerType@@QEAAXPEADH@Z" ; ntmsdba.dll
"?GetProductA@NtmsDbDriveType@@QEAAXPEADH@Z" ; ntmsdba.dll
"?GetProductW@NtmsDbChangerType@@QEAAXPEAGH@Z" ; ntmsdba.dll
"?GetProductW@NtmsDbDriveType@@QEAAXPEAGH@Z" ; ntmsdba.dll
"?GetProperty@NtmsDbObject@@IEAAAEAVNtmsDbRecordProp@@PEAVNtmsDbRecordPropList@@J@Z" ; ntmsdba.dll
"?GetProperty@NtmsDbObject@@QEAAPEAVNtmsDbRecordProp@@J@Z" ; ntmsdba.dll
"?GetProperty@NtmsDbRecordPropList@@QEAAAEAVNtmsDbRecordProp@@J@Z" ; ntmsdba.dll
"?GetPropertyType@NtmsDbRecordPropList@@QEAAAEBVNtmsDbPropDataType@@J@Z" ; ntmsdba.dll
"?GetRevisionA@NtmsDbChanger@@QEAAXPEADH@Z" ; ntmsdba.dll
"?GetRevisionA@NtmsDbDrive@@QEAAXPEADH@Z" ; ntmsdba.dll
"?GetRevisionW@NtmsDbChanger@@QEAAXPEAGH@Z" ; ntmsdba.dll
"?GetRevisionW@NtmsDbDrive@@QEAAXPEAGH@Z" ; ntmsdba.dll
"?GetSecurityDescriptor@NtmsDbObject@@QEAAKPEAXAEAK@Z" ; ntmsdba.dll
"?GetSequenceNumberA@NtmsDbPhysicalMedia@@QEBAXPEADH@Z" ; ntmsdba.dll
"?GetSequenceNumberW@NtmsDbPhysicalMedia@@QEBAXPEAGH@Z" ; ntmsdba.dll
"?GetSerialNumberA@NtmsDbChanger@@QEAAXPEADH@Z" ; ntmsdba.dll
"?GetSerialNumberA@NtmsDbDrive@@QEAAXPEADH@Z" ; ntmsdba.dll
"?GetSerialNumberW@NtmsDbChanger@@QEAAXPEAGH@Z" ; ntmsdba.dll
"?GetSerialNumberW@NtmsDbDrive@@QEAAXPEAGH@Z" ; ntmsdba.dll
"?GetUIDestinations@NtmsDbComputer@@QEAAKPEAVNtmsDbDataCtxt@@KAEAVNtmsDbSelectionSet@@@Z" ; ntmsdba.dll
"?GetUIDestinations@NtmsDbLibrary@@QEAAKPEAVNtmsDbDataCtxt@@KAEAVNtmsDbSelectionSet@@@Z" ; ntmsdba.dll
"?GetUserA@NtmsDbLibWorkItem@@QEAAXPEADH@Z" ; ntmsdba.dll
"?GetUserA@NtmsDbOpRequest@@QEAAXPEADH@Z" ; ntmsdba.dll
"?GetUserW@NtmsDbLibWorkItem@@QEAAXPEAGH@Z" ; ntmsdba.dll
"?GetUserW@NtmsDbOpRequest@@QEAAXPEAGH@Z" ; ntmsdba.dll
"?GetVendorA@NtmsDbChangerType@@QEAAXPEADH@Z" ; ntmsdba.dll
"?GetVendorA@NtmsDbDriveType@@QEAAXPEADH@Z" ; ntmsdba.dll
"?GetVendorW@NtmsDbChangerType@@QEAAXPEAGH@Z" ; ntmsdba.dll
"?GetVendorW@NtmsDbDriveType@@QEAAXPEAGH@Z" ; ntmsdba.dll
"?Handle@NtmsDbDataCtxt@@QEBAPEAVNtmsDatabase@@XZ" ; ntmsdba.dll
"?HasChanged@NtmsDbPropGuid@@QEBAHXZ" ; ntmsdba.dll
"?HasNewRelation@NtmsDbPropGuid@@QEBAHXZ" ; ntmsdba.dll
"?HasPreviousRelation@NtmsDbPropGuid@@QEBAHXZ" ; ntmsdba.dll
"?HasRelatedProperty@NtmsDbPropGuid@@QEBAHXZ" ; ntmsdba.dll
"?Header@NtmsDbRecordProp@@QEAAAEAVNtmsDbPropHeader@@XZ" ; ntmsdba.dll
"?HomeSlotId_IsNotNull@NtmsDbPhysicalMedia@@QEAAJXZ" ; ntmsdba.dll
"?HomeSlotId_n@NtmsDbPhysicalMedia@@QEBAAEBVNtmsDbGuid@@XZ" ; ntmsdba.dll
"?IEDoorNumber@NtmsDbIEDoor@@QEBA?BKXZ" ; ntmsdba.dll
"?IEDoorState@NtmsDbIEDoor@@QEBA?BKXZ" ; ntmsdba.dll
"?IEDoors@NtmsDbLibrary@@QEAAKPEAVNtmsDbDataCtxt@@AEAVNtmsDbSelectionSet@@@Z" ; ntmsdba.dll
"?IEPortNumber@NtmsDbIEPort@@QEBA?BKXZ" ; ntmsdba.dll
"?IEPorts@NtmsDbLibrary@@QEAAKPEAVNtmsDbDataCtxt@@AEAVNtmsDbSelectionSet@@@Z" ; ntmsdba.dll
"?ImportDatabase@NtmsDbDataCtxt@@QEAAKXZ" ; ntmsdba.dll
"?IncCount@NtmsDbPropHeader@@QEAAXXZ" ; ntmsdba.dll
"?IncReference@NtmsDbUIDestination@@QEAAJXZ" ; ntmsdba.dll
"?Index@NtmsDbRecordKey@@QEBAKXZ" ; ntmsdba.dll
"?Init@NtmsDbRecordProp@@QEAAXF@Z" ; ntmsdba.dll
"?Init@NtmsDbRecordProp@@QEAAXFAEAVNtmsDbGuid@@H@Z" ; ntmsdba.dll
"?Init@NtmsDbRecordProp@@QEAAXFAEAVNtmsDbLinkedGuid@@PEAVNtmsDbRecordType@@F@Z" ; ntmsdba.dll
"?Init@NtmsDbRecordProp@@QEAAXFPEADHH@Z" ; ntmsdba.dll
"?Init@NtmsDbRecordProp@@QEAAXFPEAEHH@Z" ; ntmsdba.dll
"?Init@NtmsDbRecordProp@@QEAAXFPEAFHH@Z" ; ntmsdba.dll
"?Init@NtmsDbRecordProp@@QEAAXFPEAGHH@Z" ; ntmsdba.dll
"?Init@NtmsDbRecordProp@@QEAAXFPEAJHH@Z" ; ntmsdba.dll
"?Init@NtmsDbRecordProp@@QEAAXFPEAKHH@Z" ; ntmsdba.dll
"?Init@NtmsDbRecordProp@@QEAAXFPEAT_LARGE_INTEGER@@HH@Z" ; ntmsdba.dll
"?Init@NtmsDbRecordProp@@QEAAXFPEAU_SYSTEMTIME@@H@Z" ; ntmsdba.dll
"?Init@NtmsDbRecordProp@@QEAAXFPEAVNtmsDbRecordKeyList@@H@Z" ; ntmsdba.dll
"?Init@NtmsDbRecordProp@@QEAAXFPEAXHH@Z" ; ntmsdba.dll
"?InitDbObject@NtmsDbChanger@@MEAAXPEAVNtmsDbDataCtxt@@@Z" ; ntmsdba.dll
"?InitDbObject@NtmsDbChangerType@@MEAAXPEAVNtmsDbDataCtxt@@@Z" ; ntmsdba.dll
"?InitDbObject@NtmsDbComputer@@MEAAXPEAVNtmsDbDataCtxt@@@Z" ; ntmsdba.dll
"?InitDbObject@NtmsDbDrive@@MEAAXPEAVNtmsDbDataCtxt@@@Z" ; ntmsdba.dll
"?InitDbObject@NtmsDbDriveType@@MEAAXPEAVNtmsDbDataCtxt@@@Z" ; ntmsdba.dll
"?InitDbObject@NtmsDbIEDoor@@MEAAXPEAVNtmsDbDataCtxt@@@Z" ; ntmsdba.dll
"?InitDbObject@NtmsDbIEPort@@MEAAXPEAVNtmsDbDataCtxt@@@Z" ; ntmsdba.dll
"?InitDbObject@NtmsDbLibWorkItem@@MEAAXPEAVNtmsDbDataCtxt@@@Z" ; ntmsdba.dll
"?InitDbObject@NtmsDbLibrary@@MEAAXPEAVNtmsDbDataCtxt@@@Z" ; ntmsdba.dll
"?InitDbObject@NtmsDbLogicalMedia@@MEAAXPEAVNtmsDbDataCtxt@@@Z" ; ntmsdba.dll
"?InitDbObject@NtmsDbMediaPool@@MEAAXPEAVNtmsDbDataCtxt@@@Z" ; ntmsdba.dll
"?InitDbObject@NtmsDbMediaType@@MEAAXPEAVNtmsDbDataCtxt@@@Z" ; ntmsdba.dll
"?InitDbObject@NtmsDbObject@@MEAAXPEAVNtmsDbDataCtxt@@@Z" ; ntmsdba.dll
"?InitDbObject@NtmsDbOpRequest@@MEAAXPEAVNtmsDbDataCtxt@@@Z" ; ntmsdba.dll
"?InitDbObject@NtmsDbPartition@@MEAAXPEAVNtmsDbDataCtxt@@@Z" ; ntmsdba.dll
"?InitDbObject@NtmsDbPhysicalMedia@@MEAAXPEAVNtmsDbDataCtxt@@@Z" ; ntmsdba.dll
"?InitDbObject@NtmsDbStorageSlot@@MEAAXPEAVNtmsDbDataCtxt@@@Z" ; ntmsdba.dll
"?InitDbObject@NtmsDbUIDestination@@MEAAXPEAVNtmsDbDataCtxt@@@Z" ; ntmsdba.dll
"?InitDefaults@NtmsDbChanger@@AEAAXXZ" ; ntmsdba.dll
"?InitDefaults@NtmsDbChangerType@@AEAAXXZ" ; ntmsdba.dll
"?InitDefaults@NtmsDbComputer@@AEAAXXZ" ; ntmsdba.dll
"?InitDefaults@NtmsDbDrive@@AEAAXXZ" ; ntmsdba.dll
"?InitDefaults@NtmsDbDriveType@@AEAAXXZ" ; ntmsdba.dll
"?InitDefaults@NtmsDbIEDoor@@AEAAXXZ" ; ntmsdba.dll
"?InitDefaults@NtmsDbIEPort@@AEAAXXZ" ; ntmsdba.dll
"?InitDefaults@NtmsDbLibWorkItem@@AEAAXXZ" ; ntmsdba.dll
"?InitDefaults@NtmsDbLibrary@@AEAAXXZ" ; ntmsdba.dll
"?InitDefaults@NtmsDbLogicalMedia@@AEAAXXZ" ; ntmsdba.dll
"?InitDefaults@NtmsDbMediaPool@@AEAAXXZ" ; ntmsdba.dll
"?InitDefaults@NtmsDbMediaType@@AEAAXXZ" ; ntmsdba.dll
"?InitDefaults@NtmsDbObject@@AEAAXXZ" ; ntmsdba.dll
"?InitDefaults@NtmsDbOpRequest@@AEAAXXZ" ; ntmsdba.dll
"?InitDefaults@NtmsDbPartition@@AEAAXXZ" ; ntmsdba.dll
"?InitDefaults@NtmsDbPhysicalMedia@@AEAAXXZ" ; ntmsdba.dll
"?InitDefaults@NtmsDbStorageSlot@@AEAAXXZ" ; ntmsdba.dll
"?InitDefaults@NtmsDbUIDestination@@AEAAXXZ" ; ntmsdba.dll
"?InitMutex@NtmsDbDataCtxt@@SAHXZ" ; ntmsdba.dll
"?InitializeObject@NtmsDbObject@@MEAAKK@Z" ; ntmsdba.dll
"?Insert@NtmsDbObject@@UEAAKPEAVNtmsDbDataCtxt@@@Z" ; ntmsdba.dll
"?InstanceNameW@NtmsDbChanger@@QEBAPEBGXZ" ; ntmsdba.dll
"?InstanceNameW@NtmsDbDrive@@QEBAPEBGXZ" ; ntmsdba.dll
"?InventoryMethod@NtmsDbLibrary@@QEBA?BKXZ" ; ntmsdba.dll
"?InventoryState@NtmsDbPhysicalMedia@@QEBA?BKXZ" ; ntmsdba.dll
"?IsBufferValid@NtmsDbRecordProp@@QEBAHXZ" ; ntmsdba.dll
"?IsModified@NtmsDbObject@@QEBAHXZ" ; ntmsdba.dll
"?IsModified@NtmsDbRecordProp@@QEBAHXZ" ; ntmsdba.dll
"?IsNew@NtmsDbObject@@QEBAHXZ" ; ntmsdba.dll
"?IsNew@NtmsDbRecordKey@@QEAAHXZ" ; ntmsdba.dll
"?IsNull@NtmsDbRecordProp@@QEBAHXZ" ; ntmsdba.dll
"?IsSuccess@NtmsDbError@@QEBAHXZ" ; ntmsdba.dll
"?IsValid@NtmsDatabase@@QEAAHXZ" ; ntmsdba.dll
"?IsValid@NtmsDbDataCtxt@@QEBAHXZ" ; ntmsdba.dll
"?IsValid@NtmsDbObject@@QEBAHXZ" ; ntmsdba.dll
"?IsValid@NtmsDbRecordKey@@QEAAHXZ" ; ntmsdba.dll
"?IsValid@NtmsDbRecordProp@@QEBAHXZ" ; ntmsdba.dll
"?IsValid@NtmsDbRecordPropList@@QEBAHXZ" ; ntmsdba.dll
"?IsValid@NtmsDbRecordType@@QEBAHXZ" ; ntmsdba.dll
"?IsValid@NtmsDbSelectionSet@@QEBAHXZ" ; ntmsdba.dll
"?KeyCount@NtmsDbPropRelation@@QEAAJXZ" ; ntmsdba.dll
"?LastCleanedTs_IsNotNull@NtmsDbDrive@@QEAAJXZ" ; ntmsdba.dll
"?LastCleanedTs_n@NtmsDbDrive@@QEBA?BU_SYSTEMTIME@@XZ" ; ntmsdba.dll
"?LastError@NtmsDbObject@@QEBAKXZ" ; ntmsdba.dll
"?LastErrorCode@NtmsDbDataCtxt@@QEBAKXZ" ; ntmsdba.dll
"?LastErrorString@NtmsDbObject@@QEBAPEBDXZ" ; ntmsdba.dll
"?LastStatus@NtmsDbPropertyValue@@QEAAKXZ" ; ntmsdba.dll
"?LeaveConnCritSection@NtmsDbDataCtxt@@QEAAXXZ" ; ntmsdba.dll
"?Length@NtmsDbString@@QEBA_KXZ" ; ntmsdba.dll
"?LibCurrentMedia@NtmsDbLibrary@@QEAAKPEAVNtmsDbDataCtxt@@AEAVNtmsDbSelectionSet@@@Z" ; ntmsdba.dll
"?LibCurrentMedia_IsNotNull@NtmsDbPhysicalMedia@@QEBAJXZ" ; ntmsdba.dll
"?LibCurrentMedia_n@NtmsDbPhysicalMedia@@QEBAAEBVNtmsDbGuid@@XZ" ; ntmsdba.dll
"?LibReqCleanTime@NtmsDbComputer@@QEBAJXZ" ; ntmsdba.dll
"?LibReqFlags@NtmsDbComputer@@QEBAKXZ" ; ntmsdba.dll
"?LibWorkItems@NtmsDbLibrary@@QEAAKPEAVNtmsDbDataCtxt@@AEAVNtmsDbSelectionSet@@@Z" ; ntmsdba.dll
"?LibraryType@NtmsDbLibrary@@QEBA?BKXZ" ; ntmsdba.dll
"?Library_IsNotNull@NtmsDbChanger@@QEBAJXZ" ; ntmsdba.dll
"?Library_IsNotNull@NtmsDbDrive@@QEBAJXZ" ; ntmsdba.dll
"?Library_IsNotNull@NtmsDbIEDoor@@QEBAJXZ" ; ntmsdba.dll
"?Library_IsNotNull@NtmsDbIEPort@@QEBAJXZ" ; ntmsdba.dll
"?Library_IsNotNull@NtmsDbLibWorkItem@@QEBAJXZ" ; ntmsdba.dll
"?Library_IsNotNull@NtmsDbStorageSlot@@QEBAJXZ" ; ntmsdba.dll
"?Library_n@NtmsDbChanger@@QEBAAEBVNtmsDbGuid@@XZ" ; ntmsdba.dll
"?Library_n@NtmsDbDrive@@QEBAAEBVNtmsDbGuid@@XZ" ; ntmsdba.dll
"?Library_n@NtmsDbIEDoor@@QEBAAEBVNtmsDbGuid@@XZ" ; ntmsdba.dll
"?Library_n@NtmsDbIEPort@@QEBAAEBVNtmsDbGuid@@XZ" ; ntmsdba.dll
"?Library_n@NtmsDbLibWorkItem@@QEBAAEBVNtmsDbGuid@@XZ" ; ntmsdba.dll
"?Library_n@NtmsDbStorageSlot@@QEBAAEBVNtmsDbGuid@@XZ" ; ntmsdba.dll
"?Librarys@NtmsDbComputer@@QEAAKPEAVNtmsDbDataCtxt@@AEAVNtmsDbSelectionSet@@@Z" ; ntmsdba.dll
"?LifeCycleState@NtmsDbPartition@@QEBA?BKXZ" ; ntmsdba.dll
"?List@NtmsDbPropRelation@@QEAAPEAVNtmsDbRecordKeyList@@XZ" ; ntmsdba.dll
"?List@NtmsDbSelectionSet@@AEAAPEAVNtmsDbRecordKeyList@@XZ" ; ntmsdba.dll
"?Load@NtmsDbRecordProp@@QEAAIPEAEAEAK@Z" ; ntmsdba.dll
"?LogicalPoolMember@NtmsDbMediaPool@@QEAAKPEAVNtmsDbDataCtxt@@AEAVNtmsDbSelectionSet@@@Z" ; ntmsdba.dll
"?Logicalmedia_IsNotNull@NtmsDbPartition@@QEBAJXZ" ; ntmsdba.dll
"?Logicalmedia_n@NtmsDbPartition@@QEBAAEBVNtmsDbGuid@@XZ" ; ntmsdba.dll
"?MaxAllocates@NtmsDbMediaPool@@QEBA?BKXZ" ; ntmsdba.dll
"?MaxExtendSecs@NtmsDbIEPort@@QEBA?BGXZ" ; ntmsdba.dll
"?MaxOpenSecs@NtmsDbIEDoor@@QEBA?BGXZ" ; ntmsdba.dll
"?MediaPoolId_IsNotNull@NtmsDbLogicalMedia@@QEAAJXZ" ; ntmsdba.dll
"?MediaPoolId_n@NtmsDbLogicalMedia@@QEBAAEBVNtmsDbGuid@@XZ" ; ntmsdba.dll
"?MediaPoolPolicy@NtmsDbComputer@@QEBAKXZ" ; ntmsdba.dll
"?MediaRoot_IsNotNull@NtmsDbComputer@@QEBAJXZ" ; ntmsdba.dll
"?MediaRoot_n@NtmsDbComputer@@QEBAAEBVNtmsDbGuid@@XZ" ; ntmsdba.dll
"?MediaType@NtmsDbMediaPool@@QEBA?BVNtmsDbGuid@@XZ" ; ntmsdba.dll
"?MediaType@NtmsDbMediaType@@QEBA?BKXZ" ; ntmsdba.dll
"?MediaType@NtmsDbPhysicalMedia@@QEBA?BVNtmsDbGuid@@XZ" ; ntmsdba.dll
"?MediaTypeCode@NtmsDbPhysicalMedia@@QEAAKXZ" ; ntmsdba.dll
"?MediaType_IsNotNull@NtmsDbMediaPool@@QEBAJXZ" ; ntmsdba.dll
"?MediaTypes@NtmsDbLibrary@@QEAAKPEAVNtmsDbDataCtxt@@AEAVNtmsDbSelectionSet@@@Z" ; ntmsdba.dll
"?Message@NtmsDbOpRequest@@QEBAPEBGXZ" ; ntmsdba.dll
"?ModifyTs@NtmsDbObject@@QEBA?AU_SYSTEMTIME@@XZ" ; ntmsdba.dll
"?ModifyValueToNull@NtmsDbObject@@MEAAXJ@Z" ; ntmsdba.dll
"?MountCount@NtmsDbPartition@@QEBA?BKXZ" ; ntmsdba.dll
"?MountedPartition@NtmsDbPhysicalMedia@@QEBAAEBVNtmsDbGuid@@XZ" ; ntmsdba.dll
"?MpoolType@NtmsDbMediaPool@@QEBA?BKXZ" ; ntmsdba.dll
"?NameW@NtmsDbObject@@QEAAPEBGXZ" ; ntmsdba.dll
"?NameW@NtmsDbObject@@QEBAPEBGXZ" ; ntmsdba.dll
"?Name_IsNotNull@NtmsDbObject@@QEAAJXZ" ; ntmsdba.dll
"?Name_n@NtmsDbObject@@QEAAPEBDXZ" ; ntmsdba.dll
"?NeedsCleaning@NtmsDbDrive@@QEBA?BFXZ" ; ntmsdba.dll
"?New@NtmsDbGuid@@QEAAXXZ" ; ntmsdba.dll
"?NewPropBinary@NtmsDbRecordPropList@@QEAAXJPEAEH@Z" ; ntmsdba.dll
"?NewPropChar@NtmsDbRecordPropList@@QEAAXJPEADH@Z" ; ntmsdba.dll
"?NewPropChar@NtmsDbRecordPropList@@QEAAXJPEAEH@Z" ; ntmsdba.dll
"?NewPropGuid@NtmsDbRecordPropList@@QEAAXJAEAVNtmsDbGuid@@@Z" ; ntmsdba.dll
"?NewPropGuid@NtmsDbRecordPropList@@QEAAXJAEAVNtmsDbLinkedGuid@@PEAVNtmsDbRecordType@@J@Z" ; ntmsdba.dll
"?NewPropLargeInt@NtmsDbRecordPropList@@QEAAXJPEAT_LARGE_INTEGER@@H@Z" ; ntmsdba.dll
"?NewPropLong@NtmsDbRecordPropList@@QEAAXJPEAJH@Z" ; ntmsdba.dll
"?NewPropLong@NtmsDbRecordPropList@@QEAAXJPEAKH@Z" ; ntmsdba.dll
"?NewPropRelation@NtmsDbRecordPropList@@QEAAXJ@Z" ; ntmsdba.dll
"?NewPropRelation@NtmsDbRecordPropList@@QEAAXJPEAVNtmsDbRecordKeyList@@@Z" ; ntmsdba.dll
"?NewPropShort@NtmsDbRecordPropList@@QEAAXJPEAFH@Z" ; ntmsdba.dll
"?NewPropShort@NtmsDbRecordPropList@@QEAAXJPEAGH@Z" ; ntmsdba.dll
"?NewPropTimeDate@NtmsDbRecordPropList@@QEAAXJPEAU_SYSTEMTIME@@@Z" ; ntmsdba.dll
"?NewRelationGuid@NtmsDbPropGuid@@QEAAAEAVNtmsDbGuid@@XZ" ; ntmsdba.dll
"?Next@Map@NtmsDbList@@QEAAPEAV12@XZ" ; ntmsdba.dll
"?NextSequence@NtmsDbMediaType@@QEBA?BJXZ" ; ntmsdba.dll
"?NoType@NtmsDbRecordPropList@@2VNtmsDbPropDataType@@A" ; ntmsdba.dll
"?NtmsDbInstall@@YAKXZ" ; ntmsdba.dll
"?NtmsDbRemove@@YAKXZ" ; ntmsdba.dll
"?NtmsDbShutdown@@YAKXZ" ; ntmsdba.dll
"?Null@NtmsDbGuid@@QEBAHXZ" ; ntmsdba.dll
"?NullGuid@NtmsDbGuid@@SAAEBV1@XZ" ; ntmsdba.dll
"?NullKey@NtmsDbRecordUniqueKey@@2V1@A" ; ntmsdba.dll
"?NullProp@NtmsDbRecordProp@@2V1@A" ; ntmsdba.dll
"?NumChangers@NtmsDbLibrary@@QEAAKXZ" ; ntmsdba.dll
"?NumDoors@NtmsDbLibrary@@QEAAKXZ" ; ntmsdba.dll
"?NumDrives@NtmsDbLibrary@@QEAAKXZ" ; ntmsdba.dll
"?NumFolders@NtmsDbMediaPool@@QEAAKXZ" ; ntmsdba.dll
"?NumLibWorkItems@NtmsDbLibrary@@QEAAKXZ" ; ntmsdba.dll
"?NumLogicalMedia@NtmsDbMediaPool@@QEAAKXZ" ; ntmsdba.dll
"?NumMedia@NtmsDbLibrary@@QEAAKXZ" ; ntmsdba.dll
"?NumMediaTypes@NtmsDbLibrary@@QEAAKXZ" ; ntmsdba.dll
"?NumPartitions@NtmsDbPhysicalMedia@@QEAAKXZ" ; ntmsdba.dll
"?NumPhysicalMedia@NtmsDbMediaPool@@QEAAKXZ" ; ntmsdba.dll
"?NumPorts@NtmsDbLibrary@@QEAAKXZ" ; ntmsdba.dll
"?NumSlots@NtmsDbLibrary@@QEAAKXZ" ; ntmsdba.dll
"?NumUIDestinations@NtmsDbComputer@@QEAAKK@Z" ; ntmsdba.dll
"?NumUIDestinations@NtmsDbLibrary@@QEAAKK@Z" ; ntmsdba.dll
"?Number@NtmsDbChanger@@QEBA?BKXZ" ; ntmsdba.dll
"?NumberOfHeads@NtmsDbDriveType@@QEBA?BKXZ" ; ntmsdba.dll
"?NumberOfSides@NtmsDbMediaType@@QEBA?BKXZ" ; ntmsdba.dll
"?ObjTypeDef@NtmsDbObjTypeDef@@SAAEAV1@K@Z" ; ntmsdba.dll
"?ObjectChange@@YAXHFAEBVNtmsDbGuid@@H@Z" ; ntmsdba.dll
"?ObjectCode@NtmsDbObjTypeDef@@QEBAKXZ" ; ntmsdba.dll
"?ObjectGuid@NtmsDbObject@@QEAAAEBVNtmsDbGuid@@XZ" ; ntmsdba.dll
"?ObjectGuid@NtmsDbSelectionSet@@QEBAAEBVNtmsDbGuid@@J@Z" ; ntmsdba.dll
"?ObjectId@NtmsDbObject@@QEAAAEBVNtmsDbGuid@@XZ" ; ntmsdba.dll
"?ObjectKey@NtmsDbSelectionSet@@QEBAAEBVNtmsDbRecordUniqueKey@@J@Z" ; ntmsdba.dll
"?ObjectType@NtmsDbObject@@QEAAKXZ" ; ntmsdba.dll
"?ObjectTypes@NtmsDbObjTypeDef@@2PAV1@A" ; ntmsdba.dll
"?OmidLabelIdLength@NtmsDbPartition@@QEBA?BKXZ" ; ntmsdba.dll
"?OmidLabelId_n@NtmsDbPartition@@QEBAPEBEXZ" ; ntmsdba.dll
"?OpReqCleanTime@NtmsDbComputer@@QEBAJXZ" ; ntmsdba.dll
"?OpReqFlags@NtmsDbComputer@@QEBAKXZ" ; ntmsdba.dll
"?OperationCode@NtmsDbLibWorkItem@@QEBA?BKXZ" ; ntmsdba.dll
"?OperationErrorCode_IsNotNull@NtmsDbPhysicalMedia@@QEAAJXZ" ; ntmsdba.dll
"?OperationOption@NtmsDbLibWorkItem@@QEBA?BKXZ" ; ntmsdba.dll
"?Operational@NtmsDbObject@@QEBA?BKXZ" ; ntmsdba.dll
"?Parent_IsNotNull@NtmsDbMediaPool@@QEBAJXZ" ; ntmsdba.dll
"?Parent_n@NtmsDbMediaPool@@QEBAAEBVNtmsDbGuid@@XZ" ; ntmsdba.dll
"?Partition@NtmsDbLogicalMedia@@QEBAAEBVNtmsDbGuid@@XZ" ; ntmsdba.dll
"?PartitionId_IsNotNull@NtmsDbLibWorkItem@@QEAAJXZ" ; ntmsdba.dll
"?PartitionId_n@NtmsDbLibWorkItem@@QEBAAEBVNtmsDbGuid@@XZ" ; ntmsdba.dll
"?PartitionNumber@NtmsDbPartition@@QEBA?BFXZ" ; ntmsdba.dll
"?Partitions@NtmsDbPhysicalMedia@@QEAAKPEAVNtmsDbDataCtxt@@AEAVNtmsDbSelectionSet@@@Z" ; ntmsdba.dll
"?PathNameW@NtmsDbChanger@@QEBAPEBGXZ" ; ntmsdba.dll
"?PathNameW@NtmsDbDrive@@QEBAPEBGXZ" ; ntmsdba.dll
"?PathName_IsNotNull@NtmsDbChanger@@QEAAJXZ" ; ntmsdba.dll
"?PathName_IsNotNull@NtmsDbDrive@@QEAAJXZ" ; ntmsdba.dll
"?PathName_n@NtmsDbChanger@@QEAAPEBDXZ" ; ntmsdba.dll
"?PathName_n@NtmsDbDrive@@QEAAPEBDXZ" ; ntmsdba.dll
"?PhysLocId_IsNotNull@NtmsDbPhysicalMedia@@QEAAJXZ" ; ntmsdba.dll
"?PhysLocId_n@NtmsDbPhysicalMedia@@QEBAAEBVNtmsDbGuid@@XZ" ; ntmsdba.dll
"?PhysLocType@NtmsDbPhysicalMedia@@QEBA?BKXZ" ; ntmsdba.dll
"?PhysMediaErrorCode_n@NtmsDbPhysicalMedia@@QEBA?BJXZ" ; ntmsdba.dll
"?PhysMediaId_IsNotNull@NtmsDbLibWorkItem@@QEAAJXZ" ; ntmsdba.dll
"?PhysMediaId_n@NtmsDbLibWorkItem@@QEBAAEBVNtmsDbGuid@@XZ" ; ntmsdba.dll
"?PhysMediaState@NtmsDbPhysicalMedia@@QEBA?BKXZ" ; ntmsdba.dll
"?Physicalmedia_IsNotNull@NtmsDbPartition@@QEBAJXZ" ; ntmsdba.dll
"?Physicalmedia_n@NtmsDbPartition@@QEBAAEBVNtmsDbGuid@@XZ" ; ntmsdba.dll
"?Place@Map@NtmsDbList@@QEBAJJ@Z" ; ntmsdba.dll
"?PoolMember@NtmsDbMediaPool@@QEAAKPEAVNtmsDbDataCtxt@@AEAVNtmsDbSelectionSet@@@Z" ; ntmsdba.dll
"?PoolMember_IsNotNull@NtmsDbPhysicalMedia@@QEBAJXZ" ; ntmsdba.dll
"?PoolMember_n@NtmsDbPhysicalMedia@@QEBAAEBVNtmsDbGuid@@XZ" ; ntmsdba.dll
"?PreviousRelationGuid@NtmsDbPropGuid@@QEAAAEAVNtmsDbGuid@@XZ" ; ntmsdba.dll
"?Print@NtmsDbGuid@@QEBAXXZ" ; ntmsdba.dll
"?Priority@NtmsDbLibWorkItem@@QEAAKXZ" ; ntmsdba.dll
"?Product@NtmsDbChangerType@@QEAAPEBDXZ" ; ntmsdba.dll
"?Product@NtmsDbDriveType@@QEAAPEBDXZ" ; ntmsdba.dll
"?ProductW@NtmsDbChangerType@@QEBAPEBGXZ" ; ntmsdba.dll
"?ProductW@NtmsDbDriveType@@QEBAPEBGXZ" ; ntmsdba.dll
"?PropCode@NtmsDbPropHeader@@QEBAFXZ" ; ntmsdba.dll
"?PropCode@NtmsDbPropertyValue@@QEBAJXZ" ; ntmsdba.dll
"?PropertySpace@NtmsDbRecordPropList@@QEAAKXZ" ; ntmsdba.dll
"?PropertyType@NtmsDbRecordPropList@@QEAAAEBVNtmsDbPropDataType@@XZ" ; ntmsdba.dll
"?Protected@NtmsDbLibWorkItem@@QEAAHXZ" ; ntmsdba.dll
"?Put@Map@NtmsDbList@@QEAAJJAEAVNtmsDbListItem@@@Z" ; ntmsdba.dll
"?Quantity@NtmsDbRecordPropList@@QEBAHXZ" ; ntmsdba.dll
"?ReCount@NtmsDbRecordPropList@@AEAAXXZ" ; ntmsdba.dll
"?ReadObjectRecord@NtmsDbObject@@IEAAXPEAVNtmsDbDataCtxt@@AEAVNtmsDbRecordKey@@AEAVNtmsDbRecordRev@@PEAVNtmsDbRecordPropList@@@Z" ; ntmsdba.dll
"?Refresh@NtmsDbObject@@UEAAKPEAVNtmsDbDataCtxt@@@Z" ; ntmsdba.dll
"?Register@NtmsDbObjTypeDef@@QEAAXXZ" ; ntmsdba.dll
"?RegisterObMeta@NtmsDbDataCtxt@@IEAAXXZ" ; ntmsdba.dll
"?RegisterObjectRecord@NtmsDbObject@@IEAAXPEAVNtmsDbDataCtxt@@AEAVNtmsDbRecordType@@PEAD@Z" ; ntmsdba.dll
"?RelationProperty@NtmsDbPropGuid@@QEBAJXZ" ; ntmsdba.dll
"?RelationType@NtmsDbPropGuid@@QEBAAEBVNtmsDbRecordType@@XZ" ; ntmsdba.dll
"?ReleaseChangeMutex@NtmsDbDataCtxt@@SAXXZ" ; ntmsdba.dll
"?Remove@Map@NtmsDbList@@QEAAXJ@Z" ; ntmsdba.dll
"?Remove@NtmsDbLibrary@@UEAAKPEAVNtmsDbDataCtxt@@@Z" ; ntmsdba.dll
"?Remove@NtmsDbObject@@UEAAKPEAVNtmsDbDataCtxt@@@Z" ; ntmsdba.dll
"?RemoveMediaType@NtmsDbLibrary@@QEAAKAEBVNtmsDbGuid@@@Z" ; ntmsdba.dll
"?RemoveRegardless@NtmsDbObject@@UEAAKPEAVNtmsDbDataCtxt@@@Z" ; ntmsdba.dll
"?RemoveUIDestination@NtmsDbComputer@@QEAAKKAEBVNtmsDbGuid@@@Z" ; ntmsdba.dll
"?RemoveUIDestination@NtmsDbLibrary@@QEAAKKAEBVNtmsDbGuid@@@Z" ; ntmsdba.dll
"?ReplaceString@NtmsDbString@@IEAAXPEBD@Z" ; ntmsdba.dll
"?ReportSpecificError@NtmsDbObject@@QEBAKK@Z" ; ntmsdba.dll
"?Request@NtmsDbOpRequest@@QEBAKXZ" ; ntmsdba.dll
"?Reset@NtmsDbList@@QEAAXXZ" ; ntmsdba.dll
"?Reset@NtmsDbRecordPropList@@QEAAXXZ" ; ntmsdba.dll
"?Reset@NtmsDbSelectionSet@@UEAAXXZ" ; ntmsdba.dll
"?Revision@NtmsDbChanger@@QEAAPEBDXZ" ; ntmsdba.dll
"?Revision@NtmsDbDrive@@QEAAPEBDXZ" ; ntmsdba.dll
"?RevisionW@NtmsDbChanger@@QEBAPEBGXZ" ; ntmsdba.dll
"?RevisionW@NtmsDbDrive@@QEBAPEBGXZ" ; ntmsdba.dll
"?RollbackTransaction@NtmsDbDataCtxt@@QEAAKXZ" ; ntmsdba.dll
"?SavedPartitionId_IsNotNull@NtmsDbDrive@@QEAAJXZ" ; ntmsdba.dll
"?SavedPartitionId_n@NtmsDbDrive@@QEBAAEBVNtmsDbGuid@@XZ" ; ntmsdba.dll
"?ScsiBus_IsNotNull@NtmsDbChanger@@QEAAJXZ" ; ntmsdba.dll
"?ScsiBus_IsNotNull@NtmsDbDrive@@QEAAJXZ" ; ntmsdba.dll
"?ScsiBus_n@NtmsDbChanger@@QEBA?BGXZ" ; ntmsdba.dll
"?ScsiBus_n@NtmsDbDrive@@QEBA?BGXZ" ; ntmsdba.dll
"?ScsiLun_IsNotNull@NtmsDbChanger@@QEAAJXZ" ; ntmsdba.dll
"?ScsiLun_IsNotNull@NtmsDbDrive@@QEAAJXZ" ; ntmsdba.dll
"?ScsiLun_n@NtmsDbChanger@@QEBA?BGXZ" ; ntmsdba.dll
"?ScsiLun_n@NtmsDbDrive@@QEBA?BGXZ" ; ntmsdba.dll
"?ScsiPort_IsNotNull@NtmsDbChanger@@QEAAJXZ" ; ntmsdba.dll
"?ScsiPort_IsNotNull@NtmsDbDrive@@QEAAJXZ" ; ntmsdba.dll
"?ScsiPort_n@NtmsDbChanger@@QEBA?BGXZ" ; ntmsdba.dll
"?ScsiPort_n@NtmsDbDrive@@QEBA?BGXZ" ; ntmsdba.dll
"?ScsiTarget_IsNotNull@NtmsDbChanger@@QEAAJXZ" ; ntmsdba.dll
"?ScsiTarget_IsNotNull@NtmsDbDrive@@QEAAJXZ" ; ntmsdba.dll
"?ScsiTarget_n@NtmsDbChanger@@QEBA?BGXZ" ; ntmsdba.dll
"?ScsiTarget_n@NtmsDbDrive@@QEBA?BGXZ" ; ntmsdba.dll
"?Select@NtmsDbSelectionSet@@QEAAXPEAVNtmsDbDataCtxt@@K@Z" ; ntmsdba.dll
"?SerialNumberW@NtmsDbChanger@@QEBAPEBGXZ" ; ntmsdba.dll
"?SerialNumberW@NtmsDbDrive@@QEBAPEBGXZ" ; ntmsdba.dll
"?SerialNumber_IsNotNull@NtmsDbChanger@@QEAAJXZ" ; ntmsdba.dll
"?SerialNumber_IsNotNull@NtmsDbDrive@@QEAAJXZ" ; ntmsdba.dll
"?SerialNumber_n@NtmsDbChanger@@QEAAPEBDXZ" ; ntmsdba.dll
"?SerialNumber_n@NtmsDbDrive@@QEAAPEBDXZ" ; ntmsdba.dll
"?Set@Map@NtmsDbList@@QEAAXJPEAVNtmsDbListItem@@@Z" ; ntmsdba.dll
"?SetAdminControlSecurity@NtmsDbObject@@QEAAKXZ" ; ntmsdba.dll
"?SetAllocOption@NtmsDbPartition@@QEAAKK@Z" ; ntmsdba.dll
"?SetAllocateCount@NtmsDbPartition@@QEAAKK@Z" ; ntmsdba.dll
"?SetAllocationPolicy@NtmsDbMediaPool@@QEAAKK@Z" ; ntmsdba.dll
"?SetApplication@NtmsDbLibWorkItem@@QEAAKPEBG@Z" ; ntmsdba.dll
"?SetApplication@NtmsDbOpRequest@@QEAAKPEBG@Z" ; ntmsdba.dll
"?SetArg1@NtmsDbOpRequest@@QEAAKAEBVNtmsDbGuid@@@Z" ; ntmsdba.dll
"?SetArg1Type@NtmsDbOpRequest@@QEAAKK@Z" ; ntmsdba.dll
"?SetArg2@NtmsDbOpRequest@@QEAAKAEBVNtmsDbGuid@@@Z" ; ntmsdba.dll
"?SetArg2Type@NtmsDbOpRequest@@QEAAKK@Z" ; ntmsdba.dll
"?SetAssocWorkItem@NtmsDbLibWorkItem@@QEAAKAEBVNtmsDbGuid@@@Z" ; ntmsdba.dll
"?SetAssocWorkItem_Null@NtmsDbLibWorkItem@@QEAAXXZ" ; ntmsdba.dll
"?SetAttribute@NtmsDbObject@@QEAAKPEAVNtmsDbDataCtxt@@PEBDPEAXK@Z" ; ntmsdba.dll
"?SetAutoRecovery@NtmsDbLibrary@@QEAAKF@Z" ; ntmsdba.dll
"?SetBarCodeReader@NtmsDbLibrary@@QEAAKF@Z" ; ntmsdba.dll
"?SetBarcode@NtmsDbPhysicalMedia@@QEAAKPEBD@Z" ; ntmsdba.dll
"?SetBarcodeState@NtmsDbPhysicalMedia@@QEAAKK@Z" ; ntmsdba.dll
"?SetBarcodeW@NtmsDbPhysicalMedia@@QEAAKPEBG@Z" ; ntmsdba.dll
"?SetBarcode_Null@NtmsDbPhysicalMedia@@QEAAXXZ" ; ntmsdba.dll
"?SetCapacity@NtmsDbPartition@@QEAAKT_LARGE_INTEGER@@@Z" ; ntmsdba.dll
"?SetChangerType@NtmsDbChanger@@QEAAKAEBVNtmsDbGuid@@@Z" ; ntmsdba.dll
"?SetCleanerSlot@NtmsDbLibrary@@QEAAKAEBVNtmsDbGuid@@@Z" ; ntmsdba.dll
"?SetCleanerSlot_Null@NtmsDbLibrary@@QEAAXXZ" ; ntmsdba.dll
"?SetCleansRemaining@NtmsDbLibrary@@QEAAKK@Z" ; ntmsdba.dll
"?SetComputer@NtmsDbDrive@@QEAAKAEBVNtmsDbGuid@@@Z" ; ntmsdba.dll
"?SetComputer@NtmsDbLibWorkItem@@QEAAKPEBG@Z" ; ntmsdba.dll
"?SetComputer@NtmsDbLibrary@@QEAAKAEBVNtmsDbGuid@@@Z" ; ntmsdba.dll
"?SetComputer@NtmsDbOpRequest@@QEAAKPEBG@Z" ; ntmsdba.dll
"?SetComputer@NtmsDbUIDestination@@QEAAKQEAG@Z" ; ntmsdba.dll
"?SetComputer_Null@NtmsDbDrive@@QEAAXXZ" ; ntmsdba.dll
"?SetComputer_Null@NtmsDbLibrary@@QEAAXXZ" ; ntmsdba.dll
"?SetCount@NtmsDbPropHeader@@QEAAXJ@Z" ; ntmsdba.dll
"?SetData@NtmsDbRecordProp@@QEAAXPEAX@Z" ; ntmsdba.dll
"?SetDbObject@NtmsDbChanger@@MEAAXPEAVNtmsDbDataCtxt@@@Z" ; ntmsdba.dll
"?SetDbObject@NtmsDbChangerType@@MEAAXPEAVNtmsDbDataCtxt@@@Z" ; ntmsdba.dll
"?SetDbObject@NtmsDbComputer@@MEAAXPEAVNtmsDbDataCtxt@@@Z" ; ntmsdba.dll
"?SetDbObject@NtmsDbDrive@@MEAAXPEAVNtmsDbDataCtxt@@@Z" ; ntmsdba.dll
"?SetDbObject@NtmsDbDriveType@@MEAAXPEAVNtmsDbDataCtxt@@@Z" ; ntmsdba.dll
"?SetDbObject@NtmsDbIEDoor@@MEAAXPEAVNtmsDbDataCtxt@@@Z" ; ntmsdba.dll
"?SetDbObject@NtmsDbIEPort@@MEAAXPEAVNtmsDbDataCtxt@@@Z" ; ntmsdba.dll
"?SetDbObject@NtmsDbLibWorkItem@@MEAAXPEAVNtmsDbDataCtxt@@@Z" ; ntmsdba.dll
"?SetDbObject@NtmsDbLibrary@@MEAAXPEAVNtmsDbDataCtxt@@@Z" ; ntmsdba.dll
"?SetDbObject@NtmsDbLogicalMedia@@MEAAXPEAVNtmsDbDataCtxt@@@Z" ; ntmsdba.dll
"?SetDbObject@NtmsDbMediaPool@@MEAAXPEAVNtmsDbDataCtxt@@@Z" ; ntmsdba.dll
"?SetDbObject@NtmsDbMediaType@@MEAAXPEAVNtmsDbDataCtxt@@@Z" ; ntmsdba.dll
"?SetDbObject@NtmsDbObject@@MEAAXPEAVNtmsDbDataCtxt@@@Z" ; ntmsdba.dll
"?SetDbObject@NtmsDbOpRequest@@MEAAXPEAVNtmsDbDataCtxt@@@Z" ; ntmsdba.dll
"?SetDbObject@NtmsDbPartition@@MEAAXPEAVNtmsDbDataCtxt@@@Z" ; ntmsdba.dll
"?SetDbObject@NtmsDbPhysicalMedia@@MEAAXPEAVNtmsDbDataCtxt@@@Z" ; ntmsdba.dll
"?SetDbObject@NtmsDbStorageSlot@@MEAAXPEAVNtmsDbDataCtxt@@@Z" ; ntmsdba.dll
"?SetDbObject@NtmsDbUIDestination@@MEAAXPEAVNtmsDbDataCtxt@@@Z" ; ntmsdba.dll
"?SetDeallocationPolicy@NtmsDbMediaPool@@QEAAKK@Z" ; ntmsdba.dll
"?SetDefCleanerSlot@NtmsDbLibrary@@QEAAKAEBVNtmsDbGuid@@@Z" ; ntmsdba.dll
"?SetDefCleanerSlot_Null@NtmsDbLibrary@@QEAAXXZ" ; ntmsdba.dll
"?SetDefault@NtmsDbProperty@@QEAAXXZ" ; ntmsdba.dll
"?SetDefault@NtmsDbRecordProp@@QEAAXXZ" ; ntmsdba.dll
"?SetDefaultValue@NtmsDbObject@@QEAAXPEAVNtmsDbProperty@@@Z" ; ntmsdba.dll
"?SetDeferDelay@NtmsDbDrive@@QEAAKK@Z" ; ntmsdba.dll
"?SetDensityCode@NtmsDbPhysicalMedia@@QEAAKK@Z" ; ntmsdba.dll
"?SetDescription@NtmsDbObject@@QEAAKPEBD@Z" ; ntmsdba.dll
"?SetDescriptionW@NtmsDbObject@@QEAAKPEBG@Z" ; ntmsdba.dll
"?SetDescription_Null@NtmsDbObject@@QEAAXXZ" ; ntmsdba.dll
"?SetDeviceType@NtmsDbChangerType@@QEAAKK@Z" ; ntmsdba.dll
"?SetDeviceType@NtmsDbMediaType@@QEAAKK@Z" ; ntmsdba.dll
"?SetDriveId@NtmsDbLibWorkItem@@QEAAKAEBVNtmsDbGuid@@@Z" ; ntmsdba.dll
"?SetDriveId_Null@NtmsDbLibWorkItem@@QEAAXXZ" ; ntmsdba.dll
"?SetDriveLetter@NtmsDbDrive@@QEAAKPEBG@Z" ; ntmsdba.dll
"?SetDriveLetter_Null@NtmsDbDrive@@QEAAXXZ" ; ntmsdba.dll
"?SetDriveNumber@NtmsDbDrive@@QEAAKK@Z" ; ntmsdba.dll
"?SetDriveState@NtmsDbDrive@@QEAAKK@Z" ; ntmsdba.dll
"?SetDriveType@NtmsDbDrive@@QEAAKAEBVNtmsDbGuid@@@Z" ; ntmsdba.dll
"?SetDriveType@NtmsDbDriveType@@QEAAKK@Z" ; ntmsdba.dll
"?SetDynamic@NtmsDbList@@QEAAXH@Z" ; ntmsdba.dll
"?SetDynamic@NtmsDbRecordProp@@QEAAXXZ" ; ntmsdba.dll
"?SetDynamic@NtmsDbSelectionSet@@QEAAXH@Z" ; ntmsdba.dll
"?SetEnabled@NtmsDbObject@@QEAAKF@Z" ; ntmsdba.dll
"?SetErrorCode@NtmsDbLibWorkItem@@QEAAKK@Z" ; ntmsdba.dll
"?SetExtendState@NtmsDbIEPort@@QEAAKK@Z" ; ntmsdba.dll
"?SetFileStatus@NtmsDbFile@@QEAAXK@Z" ; ntmsdba.dll
"?SetFirstChangerNumber@NtmsDbLibrary@@QEAAKK@Z" ; ntmsdba.dll
"?SetFirstDriveNumber@NtmsDbLibrary@@QEAAKK@Z" ; ntmsdba.dll
"?SetFirstPortNumber@NtmsDbLibrary@@QEAAKK@Z" ; ntmsdba.dll
"?SetFirstSlotNumber@NtmsDbLibrary@@QEAAKK@Z" ; ntmsdba.dll
"?SetFixedOffline@NtmsDbLibrary@@QEAAKF@Z" ; ntmsdba.dll
"?SetFlags@NtmsDbLibrary@@QEAAKK@Z" ; ntmsdba.dll
"?SetFullState@NtmsDbIEPort@@QEAAKK@Z" ; ntmsdba.dll
"?SetHomeSlotId@NtmsDbPhysicalMedia@@QEAAKAEBVNtmsDbGuid@@@Z" ; ntmsdba.dll
"?SetHomeSlotId_Null@NtmsDbPhysicalMedia@@QEAAXXZ" ; ntmsdba.dll
"?SetIEDoorNumber@NtmsDbIEDoor@@QEAAKK@Z" ; ntmsdba.dll
"?SetIEDoorState@NtmsDbIEDoor@@QEAAKK@Z" ; ntmsdba.dll
"?SetIEPortNumber@NtmsDbIEPort@@QEAAKK@Z" ; ntmsdba.dll
"?SetInstanceNameW@NtmsDbChanger@@QEAAKPEBG@Z" ; ntmsdba.dll
"?SetInstanceNameW@NtmsDbDrive@@QEAAKPEBG@Z" ; ntmsdba.dll
"?SetInventoryMethod@NtmsDbLibrary@@QEAAKK@Z" ; ntmsdba.dll
"?SetInventoryState@NtmsDbPhysicalMedia@@QEAAKK@Z" ; ntmsdba.dll
"?SetKey@NtmsDbPropRecordClass@@QEAAXAEAVNtmsDbRecordKey@@@Z" ; ntmsdba.dll
"?SetLastCleanedTs@NtmsDbDrive@@QEAAKU_SYSTEMTIME@@@Z" ; ntmsdba.dll
"?SetLastCleanedTs_Null@NtmsDbDrive@@QEAAXXZ" ; ntmsdba.dll
"?SetLength@NtmsDbRecordProp@@QEAAXJ@Z" ; ntmsdba.dll
"?SetLibCurrentMedia@NtmsDbPhysicalMedia@@QEAAKAEBVNtmsDbGuid@@@Z" ; ntmsdba.dll
"?SetLibCurrentMedia_Null@NtmsDbPhysicalMedia@@QEAAXXZ" ; ntmsdba.dll
"?SetLibReqCleanTime@NtmsDbComputer@@QEAAKJ@Z" ; ntmsdba.dll
"?SetLibReqFlags@NtmsDbComputer@@QEAAKK@Z" ; ntmsdba.dll
"?SetLibrary@NtmsDbChanger@@QEAAKAEBVNtmsDbGuid@@@Z" ; ntmsdba.dll
"?SetLibrary@NtmsDbDrive@@QEAAKAEBVNtmsDbGuid@@@Z" ; ntmsdba.dll
"?SetLibrary@NtmsDbIEDoor@@QEAAKAEBVNtmsDbGuid@@@Z" ; ntmsdba.dll
"?SetLibrary@NtmsDbIEPort@@QEAAKAEBVNtmsDbGuid@@@Z" ; ntmsdba.dll
"?SetLibrary@NtmsDbLibWorkItem@@QEAAKAEBVNtmsDbGuid@@@Z" ; ntmsdba.dll
"?SetLibrary@NtmsDbStorageSlot@@QEAAKAEBVNtmsDbGuid@@@Z" ; ntmsdba.dll
"?SetLibraryType@NtmsDbLibrary@@QEAAKK@Z" ; ntmsdba.dll
"?SetLibrary_Null@NtmsDbChanger@@QEAAXXZ" ; ntmsdba.dll
"?SetLibrary_Null@NtmsDbDrive@@QEAAXXZ" ; ntmsdba.dll
"?SetLibrary_Null@NtmsDbIEDoor@@QEAAXXZ" ; ntmsdba.dll
"?SetLibrary_Null@NtmsDbIEPort@@QEAAXXZ" ; ntmsdba.dll
"?SetLibrary_Null@NtmsDbLibWorkItem@@QEAAXXZ" ; ntmsdba.dll
"?SetLibrary_Null@NtmsDbStorageSlot@@QEAAXXZ" ; ntmsdba.dll
"?SetLifeCycleState@NtmsDbPartition@@QEAAKK@Z" ; ntmsdba.dll
"?SetLogicalmedia@NtmsDbPartition@@QEAAKAEBVNtmsDbGuid@@@Z" ; ntmsdba.dll
"?SetLogicalmedia_Null@NtmsDbPartition@@QEAAXXZ" ; ntmsdba.dll
"?SetMaxAllocates@NtmsDbMediaPool@@QEAAKK@Z" ; ntmsdba.dll
"?SetMaxExtendSecs@NtmsDbIEPort@@QEAAKG@Z" ; ntmsdba.dll
"?SetMaxOpenSecs@NtmsDbIEDoor@@QEAAKG@Z" ; ntmsdba.dll
"?SetMediaPoolId@NtmsDbLogicalMedia@@QEAAKAEBVNtmsDbGuid@@@Z" ; ntmsdba.dll
"?SetMediaPoolId_Null@NtmsDbLogicalMedia@@QEAAXXZ" ; ntmsdba.dll
"?SetMediaPoolPolicy@NtmsDbComputer@@QEAAKK@Z" ; ntmsdba.dll
"?SetMediaRoot@NtmsDbComputer@@QEAAKAEBVNtmsDbGuid@@@Z" ; ntmsdba.dll
"?SetMediaRoot_Null@NtmsDbComputer@@QEAAXXZ" ; ntmsdba.dll
"?SetMediaType@NtmsDbMediaPool@@QEAAKVNtmsDbGuid@@@Z" ; ntmsdba.dll
"?SetMediaType@NtmsDbMediaType@@QEAAKK@Z" ; ntmsdba.dll
"?SetMediaType@NtmsDbPhysicalMedia@@QEAAKVNtmsDbGuid@@@Z" ; ntmsdba.dll
"?SetMediaTypeCode@NtmsDbPhysicalMedia@@QEAAKK@Z" ; ntmsdba.dll
"?SetMessage@NtmsDbOpRequest@@QEAAKPEBG@Z" ; ntmsdba.dll
"?SetMessageA@NtmsDbOpRequest@@QEAAKPEBD@Z" ; ntmsdba.dll
"?SetModified@NtmsDbObject@@QEAAHJ@Z" ; ntmsdba.dll
"?SetModified@NtmsDbRecordProp@@QEAAXXZ" ; ntmsdba.dll
"?SetMountCount@NtmsDbPartition@@QEAAKK@Z" ; ntmsdba.dll
"?SetMountedPartition@NtmsDbPhysicalMedia@@QEAAKAEBVNtmsDbGuid@@@Z" ; ntmsdba.dll
"?SetMpoolType@NtmsDbMediaPool@@QEAAKK@Z" ; ntmsdba.dll
"?SetName@NtmsDbObject@@QEAAKPEBD@Z" ; ntmsdba.dll
"?SetNameW@NtmsDbObject@@QEAAKPEBG@Z" ; ntmsdba.dll
"?SetName_Null@NtmsDbObject@@QEAAXXZ" ; ntmsdba.dll
"?SetNeedsCleaning@NtmsDbDrive@@QEAAKF@Z" ; ntmsdba.dll
"?SetNext@Map@NtmsDbList@@QEAAXPEAV12@@Z" ; ntmsdba.dll
"?SetNextSequence@NtmsDbMediaType@@QEAAKJ@Z" ; ntmsdba.dll
"?SetNotificationHandler@NtmsDatabase@@QEAAXP6AXHFAEBVNtmsDbGuid@@H@Z@Z" ; ntmsdba.dll
"?SetNull@NtmsDbRecordProp@@QEAAXXZ" ; ntmsdba.dll
"?SetNumber@NtmsDbChanger@@QEAAKK@Z" ; ntmsdba.dll
"?SetNumberOfHeads@NtmsDbDriveType@@QEAAKK@Z" ; ntmsdba.dll
"?SetNumberOfSides@NtmsDbMediaType@@QEAAKK@Z" ; ntmsdba.dll
"?SetObjectGuid@NtmsDbSelectionSet@@QEAAXJAEBVNtmsDbGuid@@@Z" ; ntmsdba.dll
"?SetObjectId@NtmsDbObject@@QEAAKAEBVNtmsDbGuid@@@Z" ; ntmsdba.dll
"?SetObjectId@NtmsDbObject@@QEAAKPEBD@Z" ; ntmsdba.dll
"?SetOmidLabelId@NtmsDbPartition@@QEAAKPEBEK@Z" ; ntmsdba.dll
"?SetOmidLabelInfo@NtmsDbPartition@@QEAAKPEBG@Z" ; ntmsdba.dll
"?SetOmidLabelType@NtmsDbPartition@@QEAAKPEBG@Z" ; ntmsdba.dll
"?SetOpReqCleanTime@NtmsDbComputer@@QEAAKJ@Z" ; ntmsdba.dll
"?SetOpReqFlags@NtmsDbComputer@@QEAAKK@Z" ; ntmsdba.dll
"?SetOperationCode@NtmsDbLibWorkItem@@QEAAKK@Z" ; ntmsdba.dll
"?SetOperationErrorCode_Null@NtmsDbPhysicalMedia@@QEAAXXZ" ; ntmsdba.dll
"?SetOperationOption@NtmsDbLibWorkItem@@QEAAKK@Z" ; ntmsdba.dll
"?SetOperational@NtmsDbObject@@QEAAKK@Z" ; ntmsdba.dll
"?SetParent@NtmsDbMediaPool@@QEAAKAEBVNtmsDbGuid@@@Z" ; ntmsdba.dll
"?SetParent_Null@NtmsDbMediaPool@@QEAAXXZ" ; ntmsdba.dll
"?SetPartition@NtmsDbLogicalMedia@@QEAAXAEBVNtmsDbGuid@@@Z" ; ntmsdba.dll
"?SetPartitionId@NtmsDbLibWorkItem@@QEAAKAEBVNtmsDbGuid@@@Z" ; ntmsdba.dll
"?SetPartitionId_Null@NtmsDbLibWorkItem@@QEAAXXZ" ; ntmsdba.dll
"?SetPartitionNumber@NtmsDbPartition@@QEAAKF@Z" ; ntmsdba.dll
"?SetPathName@NtmsDbChanger@@QEAAKPEBD@Z" ; ntmsdba.dll
"?SetPathName@NtmsDbDrive@@QEAAKPEBD@Z" ; ntmsdba.dll
"?SetPathNameW@NtmsDbChanger@@QEAAKPEBG@Z" ; ntmsdba.dll
"?SetPathNameW@NtmsDbDrive@@QEAAKPEBG@Z" ; ntmsdba.dll
"?SetPathName_Null@NtmsDbChanger@@QEAAXXZ" ; ntmsdba.dll
"?SetPathName_Null@NtmsDbDrive@@QEAAXXZ" ; ntmsdba.dll
"?SetPhysLocId@NtmsDbPhysicalMedia@@QEAAKAEBVNtmsDbGuid@@@Z" ; ntmsdba.dll
"?SetPhysLocId_Null@NtmsDbPhysicalMedia@@QEAAXXZ" ; ntmsdba.dll
"?SetPhysLocType@NtmsDbPhysicalMedia@@QEAAKK@Z" ; ntmsdba.dll
"?SetPhysMediaErrorCode@NtmsDbPhysicalMedia@@QEAAKJ@Z" ; ntmsdba.dll
"?SetPhysMediaId@NtmsDbLibWorkItem@@QEAAKAEBVNtmsDbGuid@@@Z" ; ntmsdba.dll
"?SetPhysMediaId_Null@NtmsDbLibWorkItem@@QEAAXXZ" ; ntmsdba.dll
"?SetPhysMediaState@NtmsDbPhysicalMedia@@QEAAKK@Z" ; ntmsdba.dll
"?SetPhysicalmedia@NtmsDbPartition@@QEAAKAEBVNtmsDbGuid@@@Z" ; ntmsdba.dll
"?SetPhysicalmedia_Null@NtmsDbPartition@@QEAAXXZ" ; ntmsdba.dll
"?SetPoolMember@NtmsDbPhysicalMedia@@QEAAKAEBVNtmsDbGuid@@@Z" ; ntmsdba.dll
"?SetPoolMember_Null@NtmsDbPhysicalMedia@@QEAAXXZ" ; ntmsdba.dll
"?SetPriority@NtmsDbLibWorkItem@@QEAAKK@Z" ; ntmsdba.dll
"?SetProduct@NtmsDbChangerType@@QEAAKPEBD@Z" ; ntmsdba.dll
"?SetProduct@NtmsDbDriveType@@QEAAKPEBD@Z" ; ntmsdba.dll
"?SetProductW@NtmsDbChangerType@@QEAAKPEBG@Z" ; ntmsdba.dll
"?SetProductW@NtmsDbDriveType@@QEAAKPEBG@Z" ; ntmsdba.dll
"?SetPropCode@NtmsDbPropHeader@@QEAAXF@Z" ; ntmsdba.dll
"?SetProtected@NtmsDbLibWorkItem@@QEAAKH@Z" ; ntmsdba.dll
"?SetRequest@NtmsDbOpRequest@@QEAAKK@Z" ; ntmsdba.dll
"?SetRevision@NtmsDbChanger@@QEAAKPEBD@Z" ; ntmsdba.dll
"?SetRevision@NtmsDbDrive@@QEAAKPEBD@Z" ; ntmsdba.dll
"?SetRevisionW@NtmsDbChanger@@QEAAKPEBG@Z" ; ntmsdba.dll
"?SetRevisionW@NtmsDbDrive@@QEAAKPEBG@Z" ; ntmsdba.dll
"?SetSavedPartitionId@NtmsDbDrive@@QEAAKAEBVNtmsDbGuid@@@Z" ; ntmsdba.dll
"?SetSavedPartitionId_Null@NtmsDbDrive@@QEAAXXZ" ; ntmsdba.dll
"?SetScsiBus@NtmsDbChanger@@QEAAKG@Z" ; ntmsdba.dll
"?SetScsiBus@NtmsDbDrive@@QEAAKG@Z" ; ntmsdba.dll
"?SetScsiBus_Null@NtmsDbChanger@@QEAAXXZ" ; ntmsdba.dll
"?SetScsiBus_Null@NtmsDbDrive@@QEAAXXZ" ; ntmsdba.dll
"?SetScsiLun@NtmsDbChanger@@QEAAKG@Z" ; ntmsdba.dll
"?SetScsiLun@NtmsDbDrive@@QEAAKG@Z" ; ntmsdba.dll
"?SetScsiLun_Null@NtmsDbChanger@@QEAAXXZ" ; ntmsdba.dll
"?SetScsiLun_Null@NtmsDbDrive@@QEAAXXZ" ; ntmsdba.dll
"?SetScsiPort@NtmsDbChanger@@QEAAKG@Z" ; ntmsdba.dll
"?SetScsiPort@NtmsDbDrive@@QEAAKG@Z" ; ntmsdba.dll
"?SetScsiPort_Null@NtmsDbChanger@@QEAAXXZ" ; ntmsdba.dll
"?SetScsiPort_Null@NtmsDbDrive@@QEAAXXZ" ; ntmsdba.dll
"?SetScsiTarget@NtmsDbChanger@@QEAAKG@Z" ; ntmsdba.dll
"?SetScsiTarget@NtmsDbDrive@@QEAAKG@Z" ; ntmsdba.dll
"?SetScsiTarget_Null@NtmsDbChanger@@QEAAXXZ" ; ntmsdba.dll
"?SetScsiTarget_Null@NtmsDbDrive@@QEAAXXZ" ; ntmsdba.dll
"?SetSecurityDescriptor@NtmsDbObject@@QEAAKPEAXK@Z" ; ntmsdba.dll
"?SetSequenceNumber@NtmsDbPhysicalMedia@@QEAAKPEBG@Z" ; ntmsdba.dll
"?SetSerialNumber@NtmsDbChanger@@QEAAKPEBD@Z" ; ntmsdba.dll
"?SetSerialNumber@NtmsDbDrive@@QEAAKPEBD@Z" ; ntmsdba.dll
"?SetSerialNumberW@NtmsDbChanger@@QEAAKPEBG@Z" ; ntmsdba.dll
"?SetSerialNumberW@NtmsDbDrive@@QEAAKPEBG@Z" ; ntmsdba.dll
"?SetSerialNumber_Null@NtmsDbChanger@@QEAAXXZ" ; ntmsdba.dll
"?SetSerialNumber_Null@NtmsDbDrive@@QEAAXXZ" ; ntmsdba.dll
"?SetSide@NtmsDbPartition@@QEAAKG@Z" ; ntmsdba.dll
"?SetSize@Map@NtmsDbList@@QEAAXJ@Z" ; ntmsdba.dll
"?SetSize@NtmsDbPropHeader@@QEAAXF@Z" ; ntmsdba.dll
"?SetSlotId@NtmsDbLibWorkItem@@QEAAKAEBVNtmsDbGuid@@@Z" ; ntmsdba.dll
"?SetSlotId_Null@NtmsDbLibWorkItem@@QEAAXXZ" ; ntmsdba.dll
"?SetSlotNumber@NtmsDbStorageSlot@@QEAAKK@Z" ; ntmsdba.dll
"?SetSlotState@NtmsDbStorageSlot@@QEAAKK@Z" ; ntmsdba.dll
"?SetState@NtmsDbFile@@QEAAXK@Z" ; ntmsdba.dll
"?SetState@NtmsDbLibWorkItem@@QEAAKK@Z" ; ntmsdba.dll
"?SetState@NtmsDbOpRequest@@QEAAKK@Z" ; ntmsdba.dll
"?SetString@NtmsDbString@@QEAAXPEBGK@Z" ; ntmsdba.dll
"?SetSupportDrvClean@NtmsDbLibrary@@QEAAKF@Z" ; ntmsdba.dll
"?SetTimeCompleted@NtmsDbLibWorkItem@@QEAAKU_SYSTEMTIME@@@Z" ; ntmsdba.dll
"?SetTimeCompleted_Null@NtmsDbLibWorkItem@@QEAAXXZ" ; ntmsdba.dll
"?SetTimeQueued@NtmsDbLibWorkItem@@QEAAKU_SYSTEMTIME@@@Z" ; ntmsdba.dll
"?SetTimeQueued_Null@NtmsDbLibWorkItem@@QEAAXXZ" ; ntmsdba.dll
"?SetTimeSubmitted@NtmsDbOpRequest@@QEAAKU_SYSTEMTIME@@@Z" ; ntmsdba.dll
"?SetUpToDate@NtmsDbPropGuid@@QEAAXXZ" ; ntmsdba.dll
"?SetUseCount@NtmsDbDrive@@QEAAKK@Z" ; ntmsdba.dll
"?SetUser@NtmsDbLibWorkItem@@QEAAKPEBG@Z" ; ntmsdba.dll
"?SetUser@NtmsDbOpRequest@@QEAAKPEBG@Z" ; ntmsdba.dll
"?SetVendor@NtmsDbChangerType@@QEAAKPEBD@Z" ; ntmsdba.dll
"?SetVendor@NtmsDbDriveType@@QEAAKPEBD@Z" ; ntmsdba.dll
"?SetVendorW@NtmsDbChangerType@@QEAAKPEBG@Z" ; ntmsdba.dll
"?SetVendorW@NtmsDbDriveType@@QEAAKPEBG@Z" ; ntmsdba.dll
"?SetWriteCharacteristics@NtmsDbMediaType@@QEAAKK@Z" ; ntmsdba.dll
"?Shutdown@NtmsDbDataCtxt@@SAXXZ" ; ntmsdba.dll
"?Side@NtmsDbPartition@@QEBA?BGXZ" ; ntmsdba.dll
"?Size@Map@NtmsDbList@@QEBAJXZ" ; ntmsdba.dll
"?Size@NtmsDbPropHeader@@QEBAFXZ" ; ntmsdba.dll
"?Size@NtmsDbRecordProp@@QEBAKXZ" ; ntmsdba.dll
"?SlotId_IsNotNull@NtmsDbLibWorkItem@@QEAAJXZ" ; ntmsdba.dll
"?SlotId_n@NtmsDbLibWorkItem@@QEBAAEBVNtmsDbGuid@@XZ" ; ntmsdba.dll
"?SlotNumber@NtmsDbStorageSlot@@QEBA?BKXZ" ; ntmsdba.dll
"?SlotState@NtmsDbStorageSlot@@QEBA?BKXZ" ; ntmsdba.dll
"?StartTransaction@NtmsDbDataCtxt@@QEAAKXZ" ; ntmsdba.dll
"?State@NtmsDbFile@@QEAAKXZ" ; ntmsdba.dll
"?State@NtmsDbLibWorkItem@@QEBA?BKXZ" ; ntmsdba.dll
"?State@NtmsDbOpRequest@@QEBAKXZ" ; ntmsdba.dll
"?Status@NtmsDbSelectionSet@@QEBAKXZ" ; ntmsdba.dll
"?StorageSlots@NtmsDbLibrary@@QEAAKPEAVNtmsDbDataCtxt@@AEAVNtmsDbSelectionSet@@@Z" ; ntmsdba.dll
"?Store@NtmsDbRecordProp@@QEAAIPEAE@Z" ; ntmsdba.dll
"?StrGuid@NtmsDbGuid@@QEBAPEADPEAD@Z" ; ntmsdba.dll
"?StrGuid@NtmsDbGuid@@QEBAPEAEPEAE@Z" ; ntmsdba.dll
"?StrGuidW@NtmsDbGuid@@QEBAPEAGPEAG@Z" ; ntmsdba.dll
"?SuperType@NtmsDbObjTypeDef@@QEBAKXZ" ; ntmsdba.dll
"?SupportDrvClean@NtmsDbLibrary@@QEBA?BFXZ" ; ntmsdba.dll
"?Table@NtmsDbRecordKey@@QEBAFXZ" ; ntmsdba.dll
"?TimeCompleted_IsNotNull@NtmsDbLibWorkItem@@QEAAJXZ" ; ntmsdba.dll
"?TimeCompleted_n@NtmsDbLibWorkItem@@QEBA?BU_SYSTEMTIME@@XZ" ; ntmsdba.dll
"?TimeQueued_IsNotNull@NtmsDbLibWorkItem@@QEAAJXZ" ; ntmsdba.dll
"?TimeQueued_n@NtmsDbLibWorkItem@@QEBA?BU_SYSTEMTIME@@XZ" ; ntmsdba.dll
"?TimeSubmitted@NtmsDbOpRequest@@QEBA?BU_SYSTEMTIME@@XZ" ; ntmsdba.dll
"?Transaction@NtmsDbDataCtxt@@QEAAPEAVNtmsTransaction@@XZ" ; ntmsdba.dll
"?Type@NtmsDbObjTypeDef@@QEBAPEAVNtmsDbRecordType@@XZ" ; ntmsdba.dll
"?Type@NtmsDbPropHeader@@QEBAAEBVNtmsDbPropDataType@@XZ" ; ntmsdba.dll
"?Type@NtmsDbPropertyValue@@QEAAKXZ" ; ntmsdba.dll
"?Type@NtmsDbRecordProp@@QEBAAEBVNtmsDbPropDataType@@XZ" ; ntmsdba.dll
"?TypeName@NtmsDbObjTypeDef@@QEBAPEBDXZ" ; ntmsdba.dll
"?TypeNameAbbrev@NtmsDbObjTypeDef@@QEBAPEBDXZ" ; ntmsdba.dll
"?Update@NtmsDbObject@@UEAAKPEAVNtmsDbDataCtxt@@@Z" ; ntmsdba.dll
"?UpdateRegardless@NtmsDbObject@@UEAAKPEAVNtmsDbDataCtxt@@@Z" ; ntmsdba.dll
"?UseCount@NtmsDbDrive@@QEBA?BKXZ" ; ntmsdba.dll
"?User@NtmsDbLibWorkItem@@QEBAPEBGXZ" ; ntmsdba.dll
"?User@NtmsDbOpRequest@@QEBAPEBGXZ" ; ntmsdba.dll
"?Validate@Map@NtmsDbList@@QEAAXXZ" ; ntmsdba.dll
"?ValueIsNotNull@NtmsDbObject@@MEBAIJ@Z" ; ntmsdba.dll
"?Vendor@NtmsDbChangerType@@QEAAPEBDXZ" ; ntmsdba.dll
"?Vendor@NtmsDbDriveType@@QEAAPEBDXZ" ; ntmsdba.dll
"?VendorW@NtmsDbChangerType@@QEBAPEBGXZ" ; ntmsdba.dll
"?VendorW@NtmsDbDriveType@@QEBAPEBGXZ" ; ntmsdba.dll
"?Win32Guid@NtmsDbGuid@@QEBAXAEAU_GUID@@@Z" ; ntmsdba.dll
"?WriteAttribute@NtmsDbObject@@QEAAKAEAVNtmsDbPropertyValue@@@Z" ; ntmsdba.dll
"?WriteCharacteristics@NtmsDbMediaType@@QEBA?BKXZ" ; ntmsdba.dll
"?WriteObjectRecord@NtmsDbObject@@IEAAXPEAVNtmsDbDataCtxt@@AEAVNtmsDbRecordKey@@AEAVNtmsDbRecordRev@@PEAVNtmsDbRecordPropList@@@Z" ; ntmsdba.dll
"?_id@NtmsDbGuid@@QEBAAEBU_GUID@@XZ" ; ntmsdba.dll
"?countRelatedObjects@NtmsDbObject@@QEAAKJ@Z" ; ntmsdba.dll
"?getRelatedObjects@NtmsDbObject@@QEAAKPEAVNtmsDbDataCtxt@@AEAVNtmsDbSelectionSet@@J@Z" ; ntmsdba.dll
"?id@NtmsDbTypeGuid@@QEBAPEBDXZ" ; ntmsdba.dll
"?m_ChangeMutex@NtmsDbDataCtxt@@0PEAXEA" ; ntmsdba.dll
"?m_ChangeTable@NtmsDbDataCtxt@@2PEAVChangeRegistration@@EA" ; ntmsdba.dll
"?m_Type@NtmsDbChanger@@0VNtmsDbRecordType@@A" ; ntmsdba.dll
"?m_Type@NtmsDbChangerType@@0VNtmsDbRecordType@@A" ; ntmsdba.dll
"?m_Type@NtmsDbComputer@@0VNtmsDbRecordType@@A" ; ntmsdba.dll
"?m_Type@NtmsDbDrive@@0VNtmsDbRecordType@@A" ; ntmsdba.dll
"?m_Type@NtmsDbDriveType@@0VNtmsDbRecordType@@A" ; ntmsdba.dll
"?m_Type@NtmsDbIEDoor@@0VNtmsDbRecordType@@A" ; ntmsdba.dll
"?m_Type@NtmsDbIEPort@@0VNtmsDbRecordType@@A" ; ntmsdba.dll
"?m_Type@NtmsDbLibWorkItem@@0VNtmsDbRecordType@@A" ; ntmsdba.dll
"?m_Type@NtmsDbLibrary@@0VNtmsDbRecordType@@A" ; ntmsdba.dll
"?m_Type@NtmsDbLogicalMedia@@0VNtmsDbRecordType@@A" ; ntmsdba.dll
"?m_Type@NtmsDbMediaPool@@0VNtmsDbRecordType@@A" ; ntmsdba.dll
"?m_Type@NtmsDbMediaType@@0VNtmsDbRecordType@@A" ; ntmsdba.dll
"?m_Type@NtmsDbObject@@0VNtmsDbRecordType@@A" ; ntmsdba.dll
"?m_Type@NtmsDbOpRequest@@0VNtmsDbRecordType@@A" ; ntmsdba.dll
"?m_Type@NtmsDbPartition@@0VNtmsDbRecordType@@A" ; ntmsdba.dll
"?m_Type@NtmsDbPhysicalMedia@@0VNtmsDbRecordType@@A" ; ntmsdba.dll
"?m_Type@NtmsDbStorageSlot@@0VNtmsDbRecordType@@A" ; ntmsdba.dll
"?m_Type@NtmsDbUIDestination@@0VNtmsDbRecordType@@A" ; ntmsdba.dll
"?m_locked@NtmsDbDataCtxt@@0HA" ; ntmsdba.dll
"?messageString@NtmsDbError@@QEBAPEBDXZ" ; ntmsdba.dll
