LIBRARY "query.dll"
EXPORTS
"??0CAllocStorageVariant@@QEAA@AEAUtagPROPVARIANT@@AEAVPMemoryAllocator@@@Z" ; query.dll
"??0CAllocStorageVariant@@QEAA@AEAVPDeSerStream@@AEAVPMemoryAllocator@@@Z" ; query.dll
"??0CAllocStorageVariant@@QEAA@PEBDAEAVPMemoryAllocator@@@Z" ; query.dll
"??0CAllocStorageVariant@@QEAA@PEBGAEAVPMemoryAllocator@@@Z" ; query.dll
"??0CAllocStorageVariant@@QEAA@PEBU_GUID@@AEAVPMemoryAllocator@@@Z" ; query.dll
"??0CAllocStorageVariant@@QEAA@W4VARENUM@@KAEAVPMemoryAllocator@@@Z" ; query.dll
"??0CCatState@@QEAA@XZ" ; query.dll
"??0CCategorizationSet@@QEAA@AEBV0@@Z" ; query.dll
"??0CCategorizationSet@@QEAA@I@Z" ; query.dll
"??0CCiAdminParams@@QEAA@PEAVCLangList@@@Z" ; query.dll
"??0CCiRegParams@@QEAA@PEBG@Z" ; query.dll
"??0CColumnSet@@QEAA@I@Z" ; query.dll
"??0CColumns@@QEAA@AEBV0@@Z" ; query.dll
"??0CColumns@@QEAA@I@Z" ; query.dll
"??0CContentRestriction@@QEAA@PEBGAEBVCFullPropSpec@@KK@Z" ; query.dll
"??0CDFA@@QEAA@PEBGAEAVCTimeLimit@@E@Z" ; query.dll
"??0CDbColId@@QEAA@AEBU_GUID@@PEBG@Z" ; query.dll
"??0CDbColId@@QEAA@AEBUtagDBID@@@Z" ; query.dll
"??0CDbColId@@QEAA@AEBV0@@Z" ; query.dll
"??0CDbColId@@QEAA@XZ" ; query.dll
"??0CDbColumns@@QEAA@I@Z" ; query.dll
"??0CDbContentRestriction@@QEAA@PEBGAEBUtagDBID@@KK@Z" ; query.dll
"??0CDbContentRestriction@@QEAA@PEBGAEBVCDbColumnNode@@KK@Z" ; query.dll
"??0CDbNatLangRestriction@@QEAA@PEBGAEBUtagDBID@@K@Z" ; query.dll
"??0CDbNatLangRestriction@@QEAA@PEBGAEBVCDbColumnNode@@K@Z" ; query.dll
"??0CDbQueryResults@@QEAA@XZ" ; query.dll
"??0CDbSelectNode@@QEAA@XZ" ; query.dll
"??0CDbSortSet@@QEAA@I@Z" ; query.dll
"??0CDefColumnRegEntry@@QEAA@XZ" ; query.dll
"??0CDriveInfo@@QEAA@PEBGK@Z" ; query.dll
"??0CDynStream@@QEAA@PEAVPMmStream@@@Z" ; query.dll
"??0CEventItem@@QEAA@GGKGKPEBX@Z" ; query.dll
"??0CEventLog@@QEAA@PEBG0@Z" ; query.dll
"??0CException@@QEAA@J@Z" ; query.dll
"??0CException@@QEAA@XZ" ; query.dll
"??0CFileBuffer@@QEAA@AEAVCFileMapView@@I@Z" ; query.dll
"??0CFileMapView@@QEAA@PEBG@Z" ; query.dll
"??0CFilterDaemon@@QEAA@AEAVCiProxy@@AEAVCCiFrameworkParams@@AEAVCLangList@@PEAEKPEAUICiCFilterClient@@@Z" ; query.dll
"??0CFullPath@@QEAA@PEBG@Z" ; query.dll
"??0CFullPath@@QEAA@PEBGI@Z" ; query.dll
"??0CFullPropSpec@@QEAA@AEAVPDeSerStream@@@Z" ; query.dll
"??0CFullPropSpec@@QEAA@AEBV0@@Z" ; query.dll
"??0CFullPropSpec@@QEAA@XZ" ; query.dll
"??0CFwAsyncWorkItem@@QEAA@AEAVCWorkManager@@AEAVCWorkQueue@@@Z" ; query.dll
"??0CFwEventItem@@QEAA@GKGKPEAX@Z" ; query.dll
"??0CGenericCiProxy@@QEAA@AEAVCSharedNameGen@@KK@Z" ; query.dll
"??0CGetDbProps@@QEAA@XZ" ; query.dll
"??0CImpersonateRemoteAccess@@QEAA@PEAVCImpersonationTokenCache@@@Z" ; query.dll
"??0CImpersonationTokenCache@@QEAA@PEBG@Z" ; query.dll
"??0CIndexTable@@QEAA@AEAVCiStorage@@AEAVCTransaction@@@Z" ; query.dll
"??0CInternalPropertyRestriction@@QEAA@KKAEBVCStorageVariant@@PEAVCRestriction@@@Z" ; query.dll
"??0CKeyArray@@QEAA@HH@Z" ; query.dll
"??0CLangList@@QEAA@PEAUICiCLangRes@@K@Z" ; query.dll
"??0CLocalGlobalPropertyList@@QEAA@K@Z" ; query.dll
"??0CLocalGlobalPropertyList@@QEAA@PEAVCEmptyPropertyList@@HPEBGK@Z" ; query.dll
"??0CMachineAdmin@@QEAA@PEBGH@Z" ; query.dll
"??0CMemSerStream@@QEAA@I@Z" ; query.dll
"??0CMemSerStream@@QEAA@PEAEK@Z" ; query.dll
"??0CMetaDataMgr@@QEAA@HW4CiVRootTypeEnum@@KPEBG@Z" ; query.dll
"??0CMmStream@@QEAA@KH@Z" ; query.dll
"??0CMmStreamConsecBuf@@QEAA@XZ" ; query.dll
"??0CNatLanguageRestriction@@QEAA@PEBGAEBVCFullPropSpec@@K@Z" ; query.dll
"??0CNodeRestriction@@QEAA@KI@Z" ; query.dll
"??0CNormalizer@@QEAA@AEAVPNoiseList@@@Z" ; query.dll
"??0CPathParser@@QEAA@PEBGK@Z" ; query.dll
"??0CPerfMon@@QEAA@PEBG@Z" ; query.dll
"??0CPersDeComp@@QEAA@AEAVPDirectory@@KAEAVCPhysIndex@@KHH@Z" ; query.dll
"??0CPhysStorage@@IEAA@AEAVPStorage@@AEAVPStorageObject@@KIPEAVPMmStream@@HIH@Z" ; query.dll
"??0CPhysStorage@@IEAA@AEAVPStorage@@AEAVPStorageObject@@KPEAVPMmStream@@W4EOpenMode@1@HIH@Z" ; query.dll
"??0CPidLookupTable@@QEAA@XZ" ; query.dll
"??0CPidRemapper@@QEAA@AEAV?$XInterface@UIPropertyMapper@@@@@Z" ; query.dll
"??0CPidRemapper@@QEAA@AEBVCPidMapper@@AEAV?$XInterface@UIPropertyMapper@@@@PEAVCRestriction@@PEAVCColumnSet@@PEAVCSortSet@@@Z" ; query.dll
"??0CPropListFile@@QEAA@PEAVCEmptyPropertyList@@HPEBGK@Z" ; query.dll
"??0CPropNameArray@@QEAA@AEAVPDeSerStream@@@Z" ; query.dll
"??0CPropNameArray@@QEAA@I@Z" ; query.dll
"??0CPropStoreManager@@QEAA@K@Z" ; query.dll
"??0CPropertyRestriction@@QEAA@KAEBVCFullPropSpec@@AEBVCStorageVariant@@@Z" ; query.dll
"??0CPropertyRestriction@@QEAA@XZ" ; query.dll
"??0CPropertyStoreWids@@QEAA@AEAVCPropStoreManager@@@Z" ; query.dll
"??0CPropertyValueParser@@QEAA@AEAVCQueryScanner@@GK@Z" ; query.dll
"??0CQueryScanner@@QEAA@PEBGHKH@Z" ; query.dll
"??0CRangeKeyRepository@@QEAA@XZ" ; query.dll
"??0CRcovStrmAppendTrans@@QEAA@AEAVPRcovStorageObj@@@Z" ; query.dll
"??0CRcovStrmMDTrans@@QEAA@AEAVPRcovStorageObj@@W4MDOp@0@K@Z" ; query.dll
"??0CRcovStrmTrans@@IEAA@AEAVPRcovStorageObj@@W4RcovOpType@@@Z" ; query.dll
"??0CRegAccess@@QEAA@KPEBG@Z" ; query.dll
"??0CRegChangeEvent@@QEAA@PEBGH@Z" ; query.dll
"??0CRegNotify@@QEAA@PEBG@Z" ; query.dll
"??0CRequestClient@@QEAA@PEBGPEAUIDBProperties@@@Z" ; query.dll
"??0CRequestQueue@@QEAA@IIIHIIAEBU_GUID@@@Z" ; query.dll
"??0CScopeRestriction@@QEAA@PEBGHH@Z" ; query.dll
"??0CSdidLookupTable@@QEAA@XZ" ; query.dll
"??0CSizeSerStream@@QEAA@XZ" ; query.dll
"??0CSort@@QEAA@I@Z" ; query.dll
"??0CSortSet@@QEAA@I@Z" ; query.dll
"??0CStandardPropMapper@@QEAA@XZ" ; query.dll
"??0CSvcQuery@@QEAA@PEBGPEAUIDBProperties@@@Z" ; query.dll
"??0CSynRestriction@@QEAA@AEBVCKey@@KKKH@Z" ; query.dll
"??0CTimeLimit@@QEAA@KK@Z" ; query.dll
"??0CTransaction@@QEAA@XZ" ; query.dll
"??0CUnfilteredRestriction@@QEAA@XZ" ; query.dll
"??0CValueNormalizer@@QEAA@AEAVPKeyRepository@@@Z" ; query.dll
"??0CVirtualString@@QEAA@I@Z" ; query.dll
"??0CWin32RegAccess@@QEAA@PEAUHKEY__@@PEBG@Z" ; query.dll
"??0CWordRestriction@@QEAA@AEBVCKeyBuf@@KKKH@Z" ; query.dll
"??0CWorkQueue@@QEAA@IW4WorkQueueType@0@@Z" ; query.dll
"??0CiStorage@@QEAA@PEBGAEAUICiCAdviseStatus@@KKH@Z" ; query.dll
"??0SStorageObject@@QEAA@PEAVPStorageObject@@@Z" ; query.dll
"??1CAllocStorageVariant@@IEAA@XZ" ; query.dll
"??1CCatState@@QEAA@XZ" ; query.dll
"??1CCatalogAdmin@@QEAA@XZ" ; query.dll
"??1CCatalogEnum@@QEAA@XZ" ; query.dll
"??1CColumns@@QEAA@XZ" ; query.dll
"??1CContentRestriction@@QEAA@XZ" ; query.dll
"??1CDFA@@QEAA@XZ" ; query.dll
"??1CDbCmdTreeNode@@QEAA@XZ" ; query.dll
"??1CDbColumns@@QEAA@XZ" ; query.dll
"??1CDbPropSet@@QEAA@XZ" ; query.dll
"??1CDbQueryResults@@QEAA@XZ" ; query.dll
"??1CDbSortSet@@QEAA@XZ" ; query.dll
"??1CDynStream@@QEAA@XZ" ; query.dll
"??1CEventItem@@QEAA@XZ" ; query.dll
"??1CEventLog@@QEAA@XZ" ; query.dll
"??1CFileMapView@@QEAA@XZ" ; query.dll
"??1CFilterDaemon@@QEAA@XZ" ; query.dll
"??1CFwAsyncWorkItem@@UEAA@XZ" ; query.dll
"??1CFwEventItem@@QEAA@XZ" ; query.dll
"??1CGenericCiProxy@@UEAA@XZ" ; query.dll
"??1CImpersonateClient@@QEAA@XZ" ; query.dll
"??1CImpersonateSystem@@QEAA@XZ" ; query.dll
"??1CImpersonationTokenCache@@QEAA@XZ" ; query.dll
"??1CInternalPropertyRestriction@@QEAA@XZ" ; query.dll
"??1CKeyArray@@QEAA@XZ" ; query.dll
"??1CLangList@@QEAA@XZ" ; query.dll
"??1CMachineAdmin@@QEAA@XZ" ; query.dll
"??1CMemSerStream@@UEAA@XZ" ; query.dll
"??1CMetaDataMgr@@QEAA@XZ" ; query.dll
"??1CMmStream@@UEAA@XZ" ; query.dll
"??1CMmStreamConsecBuf@@QEAA@XZ" ; query.dll
"??1CNatLanguageRestriction@@QEAA@XZ" ; query.dll
"??1CNodeRestriction@@QEAA@XZ" ; query.dll
"??1CNotRestriction@@QEAA@XZ" ; query.dll
"??1COccRestriction@@QEAA@XZ" ; query.dll
"??1CParseCommandTree@@QEAA@XZ" ; query.dll
"??1CPerfMon@@QEAA@XZ" ; query.dll
"??1CPhraseRestriction@@QEAA@XZ" ; query.dll
"??1CPhysStorage@@UEAA@XZ" ; query.dll
"??1CPidLookupTable@@QEAA@XZ" ; query.dll
"??1CPidRemapper@@QEAA@XZ" ; query.dll
"??1CProcess@@QEAA@XZ" ; query.dll
"??1CPropStoreManager@@QEAA@XZ" ; query.dll
"??1CPropertyList@@UEAA@XZ" ; query.dll
"??1CPropertyRestriction@@QEAA@XZ" ; query.dll
"??1CPropertyStore@@QEAA@XZ" ; query.dll
"??1CPropertyStoreWids@@QEAA@XZ" ; query.dll
"??1CQueryUnknown@@QEAA@XZ" ; query.dll
"??1CRangeKeyRepository@@UEAA@XZ" ; query.dll
"??1CRegChangeEvent@@QEAA@XZ" ; query.dll
"??1CRegNotify@@MEAA@XZ" ; query.dll
"??1CRestriction@@QEAA@XZ" ; query.dll
"??1CScopeAdmin@@QEAA@XZ" ; query.dll
"??1CScopeEnum@@QEAA@XZ" ; query.dll
"??1CScopeRestriction@@QEAA@XZ" ; query.dll
"??1CSdidLookupTable@@QEAA@XZ" ; query.dll
"??1CSizeSerStream@@UEAA@XZ" ; query.dll
"??1CSort@@QEAA@XZ" ; query.dll
"??1CSynRestriction@@QEAA@XZ" ; query.dll
"??1CVirtualString@@QEAA@XZ" ; query.dll
"??1CWin32RegAccess@@QEAA@XZ" ; query.dll
"??1CWordRestriction@@QEAA@XZ" ; query.dll
"??1CWorkManager@@QEAA@XZ" ; query.dll
"??1CWorkQueue@@QEAA@XZ" ; query.dll
"??1SStorageObject@@QEAA@XZ" ; query.dll
"??4CDbColId@@QEAAAEAV0@AEBV0@@Z" ; query.dll
"??8CDbColId@@QEBAHAEBV0@@Z" ; query.dll
"?AbortWorkItems@CWorkManager@@QEAAXXZ" ; query.dll
"?Accept@CQueryScanner@@QEAAXXZ" ; query.dll
"?AcceptCommand@CQueryScanner@@QEAAXXZ" ; query.dll
"?AcceptWord@CQueryScanner@@QEAAXXZ" ; query.dll
"?AccessCheck@CSdidLookupTable@@QEAAHKPEAXKAEAH@Z" ; query.dll
"?AcqLine@CQueryScanner@@QEAAPEAGH@Z" ; query.dll
"?AcqPath@CQueryScanner@@QEAAPEAGXZ" ; query.dll
"?AcqPhrase@CQueryScanner@@QEAAPEAGXZ" ; query.dll
"?AcqRst@CRangeKeyRepository@@QEAAPEAVCRangeRestriction@@XZ" ; query.dll
"?AcqWord@CQueryScanner@@QEAAPEAGXZ" ; query.dll
"?AcquireRead@CPropertyStore@@AEAAXAEAVCReadWriteLockRecord@@@Z" ; query.dll
"?Add@CDbColumns@@QEAAHAEBVCDbColId@@I@Z" ; query.dll
"?Add@CDbQueryResults@@QEAAXPEAGK@Z" ; query.dll
"?Add@CDbSortSet@@QEAAHAEBVCDbColId@@KI@Z" ; query.dll
"?Add@CDbSortSet@@QEAAHAEBVCDbSortKey@@I@Z" ; query.dll
"?Add@CKeyArray@@QEAAHHAEBVCKey@@@Z" ; query.dll
"?Add@CKeyArray@@QEAAHHAEBVCKeyBuf@@@Z" ; query.dll
"?Add@CWorkQueue@@QEAAXPEAVPWorkItem@@@Z" ; query.dll
"?AddArg@CEventItem@@QEAAXK@Z" ; query.dll
"?AddArg@CEventItem@@QEAAXPEBG@Z" ; query.dll
"?AddArg@CFwEventItem@@QEAAXK@Z" ; query.dll
"?AddArg@CFwEventItem@@QEAAXPEBG@Z" ; query.dll
"?AddCachedProperty@CCatalogAdmin@@QEAAXAEBVCFullPropSpec@@KKKH@Z" ; query.dll
"?AddCatalog@CCatState@@QEAAXAEAV?$XPtrST@G@@@Z" ; query.dll
"?AddCatalog@CMachineAdmin@@QEAAXPEBG0@Z" ; query.dll
"?AddChild@CNodeRestriction@@QEAAXPEAVCRestriction@@AEAI@Z" ; query.dll
"?AddDir@CCatState@@QEAAXAEAV?$XPtrST@G@@@Z" ; query.dll
"?AddEntry@CPropertyList@@UEAAXPEAVCPropEntry@@H@Z" ; query.dll
"?AddError@CEventItem@@QEAAXK@Z" ; query.dll
"?AddKey@CSynRestriction@@QEAAXAEBVCKeyBuf@@@Z" ; query.dll
"?AddMachine@CCatState@@QEAAXAEAV?$XPtrST@G@@@Z" ; query.dll
"?AddRef@CDbProperties@@UEAAKXZ" ; query.dll
"?AddRef@CEmptyPropertyList@@UEAAKXZ" ; query.dll
"?AddRef@CEnumString@@UEAAKXZ" ; query.dll
"?AddRef@CEnumWorkid@@UEAAKXZ" ; query.dll
"?AddRef@CFwPropertyMapper@@UEAAKXZ" ; query.dll
"?AddRef@CQueryUnknown@@UEAAKXZ" ; query.dll
"?AddRefWorkThreads@CWorkQueue@@QEAAXXZ" ; query.dll
"?AddScope@CCatalogAdmin@@QEAAXPEBG0H00@Z" ; query.dll
"?AddSortColumn@CDbSortNode@@QEAAHAEBUtagDBID@@HK@Z" ; query.dll
"?AddTable@CDbNestingNode@@QEAAHPEAVCDbCmdTreeNode@@@Z" ; query.dll
"?AddToWorkList@CWorkManager@@QEAAXPEAVCFwAsyncWorkItem@@@Z" ; query.dll
"?AddToWorkQueue@CFwAsyncWorkItem@@QEAAXXZ" ; query.dll
"?AllocAndCopyWString@CDbCmdTreeNode@@SAPEAGPEBG@Z" ; query.dll
"?AllocHeapAndCopy@@YAPEAGPEBGAEAK@Z" ; query.dll
"?AllocHeapAndGetWString@@YAPEAGAEAVPDeSerStream@@@Z" ; query.dll
"?Append@CEnumString@@QEAAXPEBG@Z" ; query.dll
"?Append@CEnumWorkid@@QEAAXK@Z" ; query.dll
"?AppendChild@CDbCmdTreeNode@@IEAAXPEAV1@@Z" ; query.dll
"?AppendListElement@CDbListAnchor@@IEAAHGAEBUtagDBID@@@Z" ; query.dll
"?AppendListElement@CDbListAnchor@@IEAAHPEAVCDbCmdTreeNode@@@Z" ; query.dll
"?AppendListElement@CDbProjectListAnchor@@QEAAHAEBUtagDBID@@PEAG@Z" ; query.dll
"?BeginTransaction@CPropStoreManager@@QEAA_KXZ" ; query.dll
"?BindIFilter@CCiOle@@SAJPEBGPEAUIUnknown@@AEBU_GUID@@PEAPEAUIFilter@@H@Z" ; query.dll
"?BindIFilter@CCiOle@@SAJPEBGPEAUIUnknown@@PEAPEAUIFilter@@H@Z" ; query.dll
"?BorrowBuffer@CPhysStorage@@QEAAPEAKKHH@Z" ; query.dll
"?BorrowNewBuffer@CPhysStorage@@QEAAPEAKK@Z" ; query.dll
"?BuildRegistryPropertiesKey@@YAXAEAV?$XArray@G@@PEBG@Z" ; query.dll
"?BuildRegistryScopesKey@@YAXAEAV?$XArray@G@@PEBG@Z" ; query.dll
"?CIShutdown@@YAXXZ" ; query.dll
"?ChangeCurrentCatalog@CCatState@@QEAAXPEBG@Z" ; query.dll
"?ChangeCurrentDepth@CCatState@@QEAAXH@Z" ; query.dll
"?ChangeCurrentMachine@CCatState@@QEAAXPEBG@Z" ; query.dll
"?ChangeCurrentScope@CCatState@@QEAAXPEBG@Z" ; query.dll
"?ChangeDirty@CPropStoreInfo@@AEAAXH@Z" ; query.dll
"?CheckError@CLocalGlobalPropertyList@@QEAAJAEAKPEAPEAG@Z" ; query.dll
"?CheckError@CPropListFile@@QEAAJAEAKPEAPEAG@Z" ; query.dll
"?CheckHasIndexTable@CiStorage@@SAHPEBG@Z" ; query.dll
"?CiGetPassword@@YAHPEBG0PEAG@Z" ; query.dll
"?CiNtOpen@@YAPEAXPEBGKKK@Z" ; query.dll
"?CiNtOpenNoThrow@@YAJAEAPEAXPEBGKKK@Z" ; query.dll
"?Cleanup@CDbColId@@QEAAXXZ" ; query.dll
"?CleanupDataValue@CDbCmdTreeNode@@IEAAXXZ" ; query.dll
"?ClearList@CCombinedPropertyList@@QEAAXXZ" ; query.dll
"?ClearList@CPropertyList@@QEAAXXZ" ; query.dll
"?Clone@CDbCmdTreeNode@@QEBAPEAV1@H@Z" ; query.dll
"?Clone@CEnumString@@UEAAJPEAPEAUIEnumString@@@Z" ; query.dll
"?Clone@CNodeRestriction@@QEBAPEAV1@XZ" ; query.dll
"?Clone@COccRestriction@@QEBAPEAV1@XZ" ; query.dll
"?Clone@CRestriction@@QEBAPEAV1@XZ" ; query.dll
"?Close@CPhysStorage@@QEAAXXZ" ; query.dll
"?Close@CPipeClient@@IEAAXXZ" ; query.dll
"?Close@CPropSetMap@COLEPropManager@@QEAAXXZ" ; query.dll
"?CloseRecord@CPropStoreManager@@QEAAXPEAVCCompositePropRecord@@@Z" ; query.dll
"?CloseRecord@CPropStoreManager@@QEAAXPEAVCCompositePropRecordForWrites@@@Z" ; query.dll
"?CoTaskAllocator@@3VCCoTaskAllocator@@A" ; query.dll
"?Commit@CRcovStrmAppendTrans@@QEAAXXZ" ; query.dll
"?Commit@CRcovStrmMDTrans@@QEAAXXZ" ; query.dll
"?Commit@CRcovStrmWriteTrans@@QEAAXXZ" ; query.dll
"?ContainsDrive@CDriveInfo@@SAHPEBG@Z" ; query.dll
"?CreateSubdirs@CMachineAdmin@@QEAAXPEBG@Z" ; query.dll
"?DataWriteRead@CRequestClient@@QEAAXPEAXK0KAEAK@Z" ; query.dll
"?DecodeEscapes@@YAXPEAGAEAK0@Z" ; query.dll
"?DecodeHtmlNumeric@@YAXPEAG@Z" ; query.dll
"?DecodeURLEscapes@@YAXPEAEAEAKPEAGK@Z" ; query.dll
"?DeleteRecord@CPropStoreManager@@QEAAXK@Z" ; query.dll
"?DeleteRegistryParamNoThrow@CCatalogAdmin@@QEAAXPEBG@Z" ; query.dll
"?DetermineDriveType@CiStorage@@SAIPEBG@Z" ; query.dll
"?DisableCI@CMachineAdmin@@QEAAHXZ" ; query.dll
"?DisableNotification@CRegNotify@@QEAAXXZ" ; query.dll
"?DisableVPathNotify@CMetaDataMgr@@QEAAXXZ" ; query.dll
"?Disconnect@CRequestClient@@QEAAXXZ" ; query.dll
"?DoIt@CCopyRcovObject@@QEAAJXZ" ; query.dll
"?DoUpdates@CFilterDaemon@@QEAAJXZ" ; query.dll
"?Done@CFwAsyncWorkItem@@QEAAXXZ" ; query.dll
"?DumpWorkId@@YAJPEBGKPEAEAEAK00K@Z" ; query.dll
"?Empty@CPidLookupTable@@QEAAXXZ" ; query.dll
"?Empty@CPropStoreManager@@QEAAXXZ" ; query.dll
"?Empty@CRcovStrmWriteTrans@@QEAAXXZ" ; query.dll
"?Empty@CSdidLookupTable@@QEAAXXZ" ; query.dll
"?EnableCI@CMachineAdmin@@QEAAHXZ" ; query.dll
"?EnableVPathNotify@CMetaDataMgr@@QEAAXPEAVCMetaDataVPathChangeCallBack@@@Z" ; query.dll
"?EndTransaction@CPropStoreManager@@QEAAX_KHKK@Z" ; query.dll
"?Enum@CWin32RegAccess@@QEAAHPEAGK@Z" ; query.dll
"?EnumPropInfo@CEmptyPropertyList@@UEAAJKPEAPEBGPEAPEAUtagDBID@@PEAGPEAI@Z" ; query.dll
"?EnumVPaths@CMetaDataMgr@@QEAAXAEAVCMetaDataCallBack@@@Z" ; query.dll
"?EnumVServers@CMetaDataMgr@@QEAAXAEAVCMetaDataVirtualServerCallBack@@@Z" ; query.dll
"?EnumerateFilesInDir@CiStorage@@SAXPEBGAEAVCEnumString@@@Z" ; query.dll
"?EnumerateProperty@CPidLookupTable@@QEAAHAEAVCFullPropSpec@@AEAI@Z" ; query.dll
"?EnumerateValues@CRegAccess@@QEAAXPEAGAEAVCRegCallBack@@@Z" ; query.dll
"?Eof@CMmStreamConsecBuf@@QEAAHXZ" ; query.dll
"?ExtensionHasScriptMap@CMetaDataMgr@@QEAAHPEBG@Z" ; query.dll
"?FPSToPROPID@CPidConverter@@UEAAJAEBVCFullPropSpec@@AEAK@Z" ; query.dll
"?FastInit@CPropStoreManager@@QEAAXPEAVCiStorage@@@Z" ; query.dll
"?FetchProperty@COLEPropManager@@QEAAXAEBU_GUID@@AEBUtagPROPSPEC@@PEAUtagPROPVARIANT@@PEAI@Z" ; query.dll
"?FillMax@CKeyArray@@QEAAHH@Z" ; query.dll
"?Find@CEmptyPropertyList@@QEAAPEBVCPropEntry@@AEBVCDbColId@@@Z" ; query.dll
"?Find@CPropertyList@@UEAAPEBVCPropEntry@@AEBVCDbColId@@@Z" ; query.dll
"?Find@CPropertyList@@UEAAPEBVCPropEntry@@PEBG@Z" ; query.dll
"?FindPropid@CPidLookupTable@@QEAAHAEBVCFullPropSpec@@AEAKH@Z" ; query.dll
"?Flush@CDynStream@@QEAAXXZ" ; query.dll
"?Flush@CPhysStorage@@QEAAXH@Z" ; query.dll
"?Flush@CPropStoreManager@@QEAAXXZ" ; query.dll
"?FlushIdle@CCiOle@@SAXXZ" ; query.dll
"?FormFullTree@CTextToTree@@QEAAPEAUtagDBCOMMANDTREE@@XZ" ; query.dll
"?FormQueryTree@@YAPEAVCDbCmdTreeNode@@AEAV1@AEAVCCatState@@PEAUIColumnMapper@@HH@Z" ; query.dll
"?Get@CRegAccess@@QEAAKPEBG@Z" ; query.dll
"?Get@CRegAccess@@QEAAXPEBGPEAGI@Z" ; query.dll
"?Get@CWin32RegAccess@@QEAAHPEBGAEAK@Z" ; query.dll
"?Get@CWin32RegAccess@@QEAAHPEBGPEAGIH@Z" ; query.dll
"?GetAllEntries@CPropertyList@@UEAAJPEAPEAVCPropEntry@@K@Z" ; query.dll
"?GetBOOL@CAllocStorageVariant@@QEBAFI@Z" ; query.dll
"?GetBackupSize@CPropStoreManager@@QEAAKK@Z" ; query.dll
"?GetBlob@CMemDeSerStream@@UEAAXPEAEK@Z" ; query.dll
"?GetBrowserCodepage@@YAKAEAVCWebServer@@K@Z" ; query.dll
"?GetByte@CMemDeSerStream@@UEAAEXZ" ; query.dll
"?GetCD@CCatState@@QEAAPEBGXZ" ; query.dll
"?GetCGIVariable@CWebServer@@QEAAHPEBDAEAV?$XArray@G@@AEAK@Z" ; query.dll
"?GetCGIVariableW@CWebServer@@QEAAHPEBGAEAV?$XArray@G@@AEAK@Z" ; query.dll
"?GetCLSID@CAllocStorageVariant@@QEBA?AU_GUID@@I@Z" ; query.dll
"?GetCY@CAllocStorageVariant@@QEBA?ATtagCY@@I@Z" ; query.dll
"?GetCategory@CCatState@@QEBAPEBGI@Z" ; query.dll
"?GetChar@CMemDeSerStream@@UEAAXPEADK@Z" ; query.dll
"?GetColumn@CCatState@@QEBAPEBGI@Z" ; query.dll
"?GetCommandChar@CQueryScanner@@QEAAGXZ" ; query.dll
"?GetDATE@CAllocStorageVariant@@QEBANI@Z" ; query.dll
"?GetDWORDParam@CCatalogAdmin@@QEAAHPEBGAEAK@Z" ; query.dll
"?GetDWORDParam@CMachineAdmin@@QEAAHPEBGAEAK@Z" ; query.dll
"?GetDiskSpace@CDriveInfo@@QEAAXAEA_J0@Z" ; query.dll
"?GetDouble@CMemDeSerStream@@UEAANXZ" ; query.dll
"?GetDrive@CDriveInfo@@SAXPEBGPEAG@Z" ; query.dll
"?GetEntryBuffer@CGenericCiProxy@@QEAAPEAEAEAK@Z" ; query.dll
"?GetFILETIME@CAllocStorageVariant@@QEBA?AU_FILETIME@@I@Z" ; query.dll
"?GetFileName@CPathParser@@QEBAHPEAGAEAK@Z" ; query.dll
"?GetFileSystem@CDriveInfo@@QEAA?AW4eFileSystem@1@H@Z" ; query.dll
"?GetFloat@CMemDeSerStream@@UEAAMXZ" ; query.dll
"?GetGUID@CMemDeSerStream@@UEAAXAEAU_GUID@@@Z" ; query.dll
"?GetGlobalPropListFile@@YAPEAVCPropListFile@@XZ" ; query.dll
"?GetGlobalStaticPropertyList@@YAPEAVCStaticPropertyList@@XZ" ; query.dll
"?GetI2@CAllocStorageVariant@@QEBAFI@Z" ; query.dll
"?GetI4@CAllocStorageVariant@@QEBAJI@Z" ; query.dll
"?GetI8@CAllocStorageVariant@@QEBA?AT_LARGE_INTEGER@@I@Z" ; query.dll
"?GetLCIDFromString@@YAKPEAG@Z" ; query.dll
"?GetLPSTR@CAllocStorageVariant@@QEBAPEADI@Z" ; query.dll
"?GetLPWSTR@CAllocStorageVariant@@QEBAPEAGI@Z" ; query.dll
"?GetLocation@CCatalogAdmin@@QEAAPEBGXZ" ; query.dll
"?GetLong@CMemDeSerStream@@UEAAJXZ" ; query.dll
"?GetNumber@CQueryScanner@@QEAAHAEAKAEAH@Z" ; query.dll
"?GetNumber@CQueryScanner@@QEAAHAEAN@Z" ; query.dll
"?GetNumber@CQueryScanner@@QEAAHAEA_JAEAH@Z" ; query.dll
"?GetNumber@CQueryScanner@@QEAAHAEA_KAEAH@Z" ; query.dll
"?GetOffset@CKeyDeComp@@QEAAXAEAUBitOffset@@@Z" ; query.dll
"?GetOleDBErrorInfo@@YAJPEAUIUnknown@@AEBU_GUID@@KIPEAUtagERRORINFO@@PEAPEAUIErrorInfo@@@Z" ; query.dll
"?GetOleError@@YAJAEAVCException@@@Z" ; query.dll
"?GetPhysicalPath@CWebServer@@QEAAKPEBGPEAGKK@Z" ; query.dll
"?GetPropInfo@CEmptyPropertyList@@QEAAHAEBVCDbColId@@PEAPEBGPEAGPEAI@Z" ; query.dll
"?GetPropInfo@CEmptyPropertyList@@QEAAHPEBGPEAPEAVCDbColId@@PEAGPEAI@Z" ; query.dll
"?GetPropInfoFromId@CEmptyPropertyList@@UEAAJPEBUtagDBID@@PEAPEAGPEAGPEAI@Z" ; query.dll
"?GetPropInfoFromName@CEmptyPropertyList@@UEAAJPEBGPEAPEAUtagDBID@@PEAGPEAI@Z" ; query.dll
"?GetPropType@CEmptyPropertyList@@SAGI@Z" ; query.dll
"?GetPropTypeCount@CEmptyPropertyList@@SAIXZ" ; query.dll
"?GetPropTypeName@CEmptyPropertyList@@SAPEBGI@Z" ; query.dll
"?GetProperties@CDbProperties@@UEAAJKQEBUtagDBPROPIDSET@@PEAKPEAPEAUtagDBPROPSET@@@Z" ; query.dll
"?GetProperties@CGetDbProps@@QEAAXPEAUIDBProperties@@K@Z" ; query.dll
"?GetPropertyInfo@CDbProperties@@UEAAJKQEBUtagDBPROPIDSET@@PEAKPEAPEAUtagDBPROPINFOSET@@PEAPEAG@Z" ; query.dll
"?GetR4@CAllocStorageVariant@@QEBAMI@Z" ; query.dll
"?GetR8@CAllocStorageVariant@@QEBANI@Z" ; query.dll
"?GetSZParam@CMachineAdmin@@QEAAHPEBGPEAGK@Z" ; query.dll
"?GetScodeError@@YAJAEAVCException@@@Z" ; query.dll
"?GetSecret@@YAHPEBG0PEAPEAGPEAK@Z" ; query.dll
"?GetSectorSize@CDriveInfo@@QEAAKXZ" ; query.dll
"?GetSortProp@CCatState@@QEBAXIPEAPEBGPEAW4SORTDIR@@@Z" ; query.dll
"?GetStackTrace@@YAXPEADK@Z" ; query.dll
"?GetStartupData@CGenericCiProxy@@QEAAPEBEAEAU_GUID@@AEAK@Z" ; query.dll
"?GetStorage@CPropStoreManager@@QEAAAEAVPStorage@@K@Z" ; query.dll
"?GetStr@CKey@@QEBAPEAGXZ" ; query.dll
"?GetStr@CKeyBuf@@QEBAPEAGXZ" ; query.dll
"?GetString@CMemDeSerStream@@UEAAPEADXZ" ; query.dll
"?GetStringDbRestriction@@YAPEAVCDbRestriction@@PEBGKPEAUIColumnMapper@@K@Z" ; query.dll
"?GetStringFromLCID@@YAXKPEAG@Z" ; query.dll
"?GetTotalSizeInKB@CPropStoreManager@@QEAAKXZ" ; query.dll
"?GetTotalSizeInKB@CPropertyStore@@QEAAKXZ" ; query.dll
"?GetULong@CMemDeSerStream@@UEAAKXZ" ; query.dll
"?GetUShort@CMemDeSerStream@@UEAAGXZ" ; query.dll
"?GetUserHdrInfo@CIndexTable@@QEAAXAEAIAEAH@Z" ; query.dll
"?GetVPathAccess@CMetaDataMgr@@QEAAKPEBG@Z" ; query.dll
"?GetVPathAuthorization@CMetaDataMgr@@QEAAKPEBG@Z" ; query.dll
"?GetVPathSSLAccess@CMetaDataMgr@@QEAAKPEBG@Z" ; query.dll
"?GetVolumeName@CDriveInfo@@QEAAPEBGH@Z" ; query.dll
"?GetWChar@CMemDeSerStream@@UEAAXPEAGK@Z" ; query.dll
"?GetWString@CMemDeSerStream@@UEAAPEAGXZ" ; query.dll
"?GetWeight@CDbCmdTreeNode@@QEBAJXZ" ; query.dll
"?Grow@CDynStream@@QEAAXAEAVPStorage@@K@Z" ; query.dll
"?GrowBuffer@CVirtualString@@AEAAXK@Z" ; query.dll
"?HTMLEscapeW@@YAXPEBGAEAVCVirtualString@@K@Z" ; query.dll
"?Impersonate@CImpersonateClient@@AEAAXXZ" ; query.dll
"?Init@CFileMapView@@QEAAXXZ" ; query.dll
"?Init@CMmStreamConsecBuf@@QEAAXPEAVPMmStream@@@Z" ; query.dll
"?Init@CPidLookupTable@@QEAAHPEAVPRcovStorageObj@@@Z" ; query.dll
"?Init@CRcovStorageHdr@@QEAAXK@Z" ; query.dll
"?Init@CRegChangeEvent@@QEAAXXZ" ; query.dll
"?Init@CSdidLookupTable@@QEAAHPEAVCiStorage@@@Z" ; query.dll
"?InitIterator@CPropertyList@@UEAAXXZ" ; query.dll
"?Initialize@CImpersonationTokenCache@@QEAAXPEBGHHHKKK@Z" ; query.dll
"?InitializeForRead@CDynStream@@QEAAXXZ" ; query.dll
"?InitializeForWrite@CDynStream@@QEAAXK@Z" ; query.dll
"?InsertChild@CDbCmdTreeNode@@IEAAXPEAV1@@Z" ; query.dll
"?IsCIEnabled@CMachineAdmin@@QEAAHXZ" ; query.dll
"?IsCIPaused@CMachineAdmin@@QEAAHXZ" ; query.dll
"?IsCIStarted@CMachineAdmin@@QEAAHXZ" ; query.dll
"?IsCIStopped@CMachineAdmin@@QEAAHXZ" ; query.dll
"?IsCatalogInactive@CCatalogAdmin@@QEAAHXZ" ; query.dll
"?IsDirectoryWritable@@YAHPEBG@Z" ; query.dll
"?IsIISAdminUp@CMetaDataMgr@@SAHAEAH@Z" ; query.dll
"?IsImpersonated@CImpersonateSystem@@SAHXZ" ; query.dll
"?IsLeaf@CRestriction@@QEBAHXZ" ; query.dll
"?IsNullPointerVariant@@YAHPEAUtagPROPVARIANT@@@Z" ; query.dll
"?IsPaused@CCatalogAdmin@@QEAAHXZ" ; query.dll
"?IsRunningAsSystem@CImpersonateSystem@@SAHXZ" ; query.dll
"?IsSameDrive@CDriveInfo@@QEAAHPEBG@Z" ; query.dll
"?IsScopeValid@@YAJPEBGIH@Z" ; query.dll
"?IsStarted@CCatalogAdmin@@QEAAHXZ" ; query.dll
"?IsStopped@CCatalogAdmin@@QEAAHXZ" ; query.dll
"?IsValid@CAllocStorageVariant@@QEBAHXZ" ; query.dll
"?IsValid@CNodeRestriction@@QEBAHXZ" ; query.dll
"?IsValid@COccRestriction@@QEBAHXZ" ; query.dll
"?IsValid@CRestriction@@QEBAHXZ" ; query.dll
"?IsWaitingForDocument@CFilterDaemon@@QEAAHXZ" ; query.dll
"?IsWriteProtected@CDriveInfo@@QEAAHXZ" ; query.dll
"?Load@CLocalGlobalPropertyList@@QEAAXQEBG@Z" ; query.dll
"?LocaleToCodepage@@YAKK@Z" ; query.dll
"?LokNewWorkId@CPropertyStore@@AEAAKKHH@Z" ; query.dll
"?LokUpdate@CCatStateInfo@@QEAAHXZ" ; query.dll
"?LongInit@CPropStoreManager@@QEAAXAEAHAEAKP6AXKHPEBX@Z2@Z" ; query.dll
"?Lookup@CPropStoreInfo@@AEAAIK@Z" ; query.dll
"?LookupSDID@CSdidLookupTable@@QEAAKPEAXK@Z" ; query.dll
"?MakeBackupCopy@CPhysStorage@@QEAAXAEAV1@AEAVPSaveProgressTracker@@@Z" ; query.dll
"?MakeBackupCopy@CPidLookupTable@@QEAAXAEAVPRcovStorageObj@@AEAVPSaveProgressTracker@@@Z" ; query.dll
"?MakeBackupCopy@CPropStoreManager@@QEAAXPEAUIProgressNotify@@AEAHAEAVCiStorage@@PEAUICiEnumWorkids@@PEAPEAUIEnumString@@@Z" ; query.dll
"?MakeICommand@@YAJPEAPEAUIUnknown@@PEBG1PEAU1@@Z" ; query.dll
"?MakeISearch@@YAJPEAPEAUISearchQueryHits@@PEAVCDbRestriction@@PEBG@Z" ; query.dll
"?MakeLocalICommand@@YAJPEAPEAUIUnknown@@PEAUICiCDocStore@@PEAU1@@Z" ; query.dll
"?MakeMetadataICommand@@YAJPEAPEAUIUnknown@@W4CiMetaData@@PEBG2PEAU1@@Z" ; query.dll
"?MakePath@CFullPath@@QEAAXPEBG@Z" ; query.dll
"?MakePath@CFullPath@@QEAAXPEBGI@Z" ; query.dll
"?MakePrivileged@CImpersonateSystem@@AEAAXXZ" ; query.dll
"?Map@CMmStreamConsecBuf@@QEAAXK@Z" ; query.dll
"?MarkDirty@CDynStream@@QEAAHXZ" ; query.dll
"?Marshall@CBaseStorageVariant@@QEBAXAEAVPSerStream@@@Z" ; query.dll
"?Marshall@CContentRestriction@@QEBAXAEAVPSerStream@@@Z" ; query.dll
"?Marshall@CDbCmdTreeNode@@QEBAXAEAVPSerStream@@@Z" ; query.dll
"?Marshall@CFullPropSpec@@QEBAXAEAVPSerStream@@@Z" ; query.dll
"?Marshall@CNatLanguageRestriction@@QEBAXAEAVPSerStream@@@Z" ; query.dll
"?Marshall@CNodeRestriction@@QEBAXAEAVPSerStream@@@Z" ; query.dll
"?Marshall@CNotRestriction@@QEBAXAEAVPSerStream@@@Z" ; query.dll
"?Marshall@CPropNameArray@@QEBAXAEAVPSerStream@@@Z" ; query.dll
"?Marshall@CPropertyRestriction@@QEBAXAEAVPSerStream@@@Z" ; query.dll
"?Marshall@CRestriction@@QEBAXAEAVPSerStream@@@Z" ; query.dll
"?Marshall@CVectorRestriction@@QEBAXAEAVPSerStream@@@Z" ; query.dll
"?MinPageInUse@CBufferCache@@QEAAHAEAK@Z" ; query.dll
"?MinPageInUse@CPhysStorage@@QEAAHAEAK@Z" ; query.dll
"?MultiByteToXArrayWideChar@@YAKPEBEKIAEAV?$XArray@G@@@Z" ; query.dll
"?My_wcstoui64@@YA_KPEBGPEAPEAGH@Z" ; query.dll
"?NameToReal@CPidRemapper@@QEAAKPEBVCFullPropSpec@@@Z" ; query.dll
"?NewStemmer@CCiOle@@SAPEAUIStemmer@@AEBU_GUID@@@Z" ; query.dll
"?NewWordBreaker@CCiOle@@SAPEAUIWordBreaker@@AEBU_GUID@@@Z" ; query.dll
"?Next@CCatalogEnum@@QEAAHXZ" ; query.dll
"?Next@CEnumString@@UEAAJKPEAPEAGPEAK@Z" ; query.dll
"?Next@CEnumWorkid@@UEAAJKPEAK0@Z" ; query.dll
"?Next@CPropertyList@@UEAAPEBVCPropEntry@@XZ" ; query.dll
"?Next@CScopeEnum@@QEAAHXZ" ; query.dll
"?NextWorkId@CPropertyStoreWids@@QEAAKXZ" ; query.dll
"?NumberOfColumns@CCatState@@QEBAIXZ" ; query.dll
"?NumberOfSortProps@CCatState@@QEBAIXZ" ; query.dll
"?Open@CMmStream@@QEAAXPEBGKKKKH@Z" ; query.dll
"?Open@COLEPropManager@@QEAAHAEBVCFunnyPath@@@Z" ; query.dll
"?OpenExclusive@CMmStream@@QEAAXPEAGH@Z" ; query.dll
"?OpenFileFromPath@@YAPEAU_iobuf@@PEBG@Z" ; query.dll
"?OpenRecord@CPropStoreManager@@QEAAPEAVCCompositePropRecord@@KPEAE@Z" ; query.dll
"?OpenRecordForWrites@CPropStoreManager@@QEAAPEAVCCompositePropRecordForWrites@@KPEAE@Z" ; query.dll
"?ParseCatalogURL@@YAJPEBGAEAV?$XPtrST@G@@1@Z" ; query.dll
"?ParseExpression@CParseCommandTree@@QEAAPEAVCRestriction@@PEAVCDbCmdTreeNode@@@Z" ; query.dll
"?ParseOneLine@CPropertyList@@SAXAEAVCQueryScanner@@HAEAV?$XPtr@VCPropEntry@@@@@Z" ; query.dll
"?ParseQueryPhrase@CQueryParser@@QEAAPEAVCDbRestriction@@XZ" ; query.dll
"?ParseStringColumns@@YAPEAVCDbColumns@@PEBGPEAUIColumnMapper@@KPEAVPVariableSet@@PEAV?$CDynArray@G@@@Z" ; query.dll
"?Pause@CCatalogAdmin@@QEAAHXZ" ; query.dll
"?PauseCI@CMachineAdmin@@QEAAHXZ" ; query.dll
"?PeekULong@CMemDeSerStream@@UEAAKXZ" ; query.dll
"?PidToRealPid@CPidMapper@@QEAAKK@Z" ; query.dll
"?PropertyToPropId@CStandardPropMapper@@QEAAKAEBVCFullPropSpec@@H@Z" ; query.dll
"?PropertyToPropid@CFwPropertyMapper@@UEAAJPEBUtagFULLPROPSPEC@@HPEAK@Z" ; query.dll
"?PutMaxValue@CValueNormalizer@@QEAAXKAEAKW4VARENUM@@@Z" ; query.dll
"?PutMinValue@CValueNormalizer@@QEAAXKAEAKW4VARENUM@@@Z" ; query.dll
"?PutValue@CValueNormalizer@@QEAAXKAEAKAEBVCStorageVariant@@@Z" ; query.dll
"?PutWString@@YAXAEAVPSerStream@@PEBG@Z" ; query.dll
"?Query@CQueryParser@@AEAAPEAVCDbRestriction@@PEAVCDbNodeRestriction@@@Z" ; query.dll
"?QueryCatalogAdmin@CCatalogEnum@@QEAAPEAVCCatalogAdmin@@XZ" ; query.dll
"?QueryCatalogAdmin@CMachineAdmin@@QEAAPEAVCCatalogAdmin@@PEBG@Z" ; query.dll
"?QueryCatalogEnum@CMachineAdmin@@QEAAPEAVCCatalogEnum@@XZ" ; query.dll
"?QueryInterface@CDbProperties@@UEAAJAEBU_GUID@@PEAPEAX@Z" ; query.dll
"?QueryInterface@CEmptyPropertyList@@UEAAJAEBU_GUID@@PEAPEAX@Z" ; query.dll
"?QueryInterface@CEnumString@@UEAAJAEBU_GUID@@PEAPEAX@Z" ; query.dll
"?QueryInterface@CEnumWorkid@@UEAAJAEBU_GUID@@PEAPEAX@Z" ; query.dll
"?QueryInterface@CFwPropertyMapper@@UEAAJAEBU_GUID@@PEAPEAX@Z" ; query.dll
"?QueryInterface@CQueryUnknown@@UEAAJAEBU_GUID@@PEAPEAX@Z" ; query.dll
"?QueryPidLookupTable@CiStorage@@QEAAPEAVPRcovStorageObj@@K@Z" ; query.dll
"?QueryScopeAdmin@CCatalogAdmin@@QEAAPEAVCScopeAdmin@@PEBG@Z" ; query.dll
"?QueryScopeAdmin@CScopeEnum@@QEAAPEAVCScopeAdmin@@XZ" ; query.dll
"?QueryScopeEnum@CCatalogAdmin@@QEAAPEAVCScopeEnum@@XZ" ; query.dll
"?QueryScopeList@CiStorage@@QEAAPEAVPRcovStorageObj@@K@Z" ; query.dll
"?QuerySdidLookupTable@CiStorage@@QEAAPEAVPRcovStorageObj@@K@Z" ; query.dll
"?QueryVirtualScopeList@CiStorage@@QEAAPEAVPRcovStorageObj@@K@Z" ; query.dll
"?ReBuild@CPidRemapper@@QEAAXAEBVCPidMapper@@@Z" ; query.dll
"?ReInit@CQueryUnknown@@QEAAXKPEAPEAVCRowset@@@Z" ; query.dll
"?ReInitializeIISScopes@CImpersonationTokenCache@@QEAAXXZ" ; query.dll
"?ReOpenStream@CPhysIndex@@EEAAXXZ" ; query.dll
"?Read@CDynStream@@QEAAKPEAXK@Z" ; query.dll
"?Read@CRcovStrmTrans@@QEAAKPEAXK@Z" ; query.dll
"?Read@CRegAccess@@QEAAKPEBGK@Z" ; query.dll
"?Read@CRegAccess@@QEAAPEAGPEBG0@Z" ; query.dll
"?ReadPrimaryProperty@CPropStoreManager@@QEAAHKKAEAUtagPROPVARIANT@@@Z" ; query.dll
"?ReadProperty@COLEPropManager@@QEAAHAEBVCFullPropSpec@@AEAUtagPROPVARIANT@@@Z" ; query.dll
"?ReadProperty@CPropStoreManager@@QEAAHAEAVCCompositePropRecord@@KAEAUtagPROPVARIANT@@@Z" ; query.dll
"?ReadProperty@CPropStoreManager@@QEAAHAEAVCCompositePropRecord@@KAEAUtagPROPVARIANT@@PEAEPEAI@Z" ; query.dll
"?ReadProperty@CPropStoreManager@@QEAAHAEAVCCompositePropRecord@@KPEAUtagPROPVARIANT@@PEAI@Z" ; query.dll
"?ReadProperty@CPropStoreManager@@QEAAHKKAEAUtagPROPVARIANT@@@Z" ; query.dll
"?ReadProperty@CPropStoreManager@@QEAAHKKAEAUtagPROPVARIANT@@PEAEPEAI@Z" ; query.dll
"?ReadProperty@CPropStoreManager@@QEAAHKKPEAUtagPROPVARIANT@@PEAI@Z" ; query.dll
"?ReadProperty@CPropertyStore@@QEAAHAEAVCPropRecordNoLock@@KPEAUtagPROPVARIANT@@PEAI@Z" ; query.dll
"?ReadProperty@CPropertyStore@@QEAAHKKAEAUtagPROPVARIANT@@@Z" ; query.dll
"?Recognize@CDFA@@QEAAEPEBG@Z" ; query.dll
"?Refresh@CCiRegParams@@QEAAXPEAUICiAdminParams@@H@Z" ; query.dll
"?Refresh@CDefColumnRegEntry@@QEAAXH@Z" ; query.dll
"?RefreshParams@CWorkQueue@@QEAAXKK@Z" ; query.dll
"?Release@CDbProperties@@UEAAKXZ" ; query.dll
"?Release@CEmptyPropertyList@@UEAAKXZ" ; query.dll
"?Release@CEnumString@@UEAAKXZ" ; query.dll
"?Release@CEnumWorkid@@UEAAKXZ" ; query.dll
"?Release@CFwPropertyMapper@@UEAAKXZ" ; query.dll
"?Release@CImpersonateRemoteAccess@@QEAAXXZ" ; query.dll
"?Release@CQueryUnknown@@UEAAKXZ" ; query.dll
"?Release@CWorkQueue@@QEAAXPEAVCWorkThread@@@Z" ; query.dll
"?ReleaseRead@CPropertyStore@@AEAAXAEAVCReadWriteLockRecord@@@Z" ; query.dll
"?ReleaseWorkThreads@CWorkQueue@@QEAAXXZ" ; query.dll
"?Remove@CColumns@@QEAAXI@Z" ; query.dll
"?Remove@CDbSortSet@@QEAAXI@Z" ; query.dll
"?Remove@CSort@@QEAAXI@Z" ; query.dll
"?Remove@CWorkQueue@@AEAAXAEAVCWorkThread@@@Z" ; query.dll
"?Remove@CWorkQueue@@QEAAXPEAVPWorkItem@@@Z" ; query.dll
"?RemoveCatalog@CMachineAdmin@@QEAAXPEBGH@Z" ; query.dll
"?RemoveCatalogFiles@CMachineAdmin@@QEAAXPEBG@Z" ; query.dll
"?RemoveChild@CNodeRestriction@@QEAAPEAVCRestriction@@I@Z" ; query.dll
"?RemoveFirstChild@CDbCmdTreeNode@@IEAAPEAV1@XZ" ; query.dll
"?RemoveScope@CCatalogAdmin@@QEAAXPEBG@Z" ; query.dll
"?Reopen@CPhysStorage@@QEAAXH@Z" ; query.dll
"?ReportEventW@CEventLog@@QEAAXAEAVCEventItem@@@Z" ; query.dll
"?ReportEventW@CFwEventItem@@QEAAXAEAUICiCAdviseStatus@@@Z" ; query.dll
"?RequiresFlush@CPhysStorage@@QEAAHK@Z" ; query.dll
"?Reset@CRegChangeEvent@@QEAAXXZ" ; query.dll
"?ResetBuffer@CQueryScanner@@QEAAXPEBG@Z" ; query.dll
"?ResetType@CAllocStorageVariant@@IEAAXAEAVPMemoryAllocator@@@Z" ; query.dll
"?Resume@CProcess@@QEAAXXZ" ; query.dll
"?ReturnBuffer@CPhysStorage@@QEAAXKHH@Z" ; query.dll
"?Rewind@CMmStreamConsecBuf@@QEAAXXZ" ; query.dll
"?SaComputeSize@@YAKGAEAUtagSAFEARRAY@@@Z" ; query.dll
"?SaCreateAndCopy@@YAHAEAVPMemoryAllocator@@PEAUtagSAFEARRAY@@PEAPEAU2@@Z" ; query.dll
"?SaCreateData@@YAHAEAVPVarAllocator@@GAEAUtagSAFEARRAY@@1H@Z" ; query.dll
"?Seek@CRcovStrmTrans@@QEAAHK@Z" ; query.dll
"?Serialize@CDbQueryResults@@QEBAXAEAVPSerStream@@@Z" ; query.dll
"?Set@CPidRemapper@@QEAAXAEAV?$XArray@K@@@Z" ; query.dll
"?SetAlias@CScopeAdmin@@QEAAXPEBG@Z" ; query.dll
"?SetBOOL@CStorageVariant@@QEAAXFI@Z" ; query.dll
"?SetBSTR@CAllocStorageVariant@@QEAAXPEAGAEAVPMemoryAllocator@@@Z" ; query.dll
"?SetBSTR@CStorageVariant@@QEAAXPEAGI@Z" ; query.dll
"?SetBackupSize@CPropStoreManager@@QEAAXKK@Z" ; query.dll
"?SetCD@CCatState@@QEAAXPEBG@Z" ; query.dll
"?SetCLSID@CStorageVariant@@QEAAXPEBU_GUID@@@Z" ; query.dll
"?SetCLSID@CStorageVariant@@QEAAXU_GUID@@I@Z" ; query.dll
"?SetCY@CStorageVariant@@QEAAXTtagCY@@I@Z" ; query.dll
"?SetCatalog@CCatState@@QEAAXPEBG@Z" ; query.dll
"?SetColumn@CCatState@@QEAAXPEBGI@Z" ; query.dll
"?SetCurrentProperty@CQueryParser@@AEAAXPEBGW4PropertyType@@@Z" ; query.dll
"?SetDATE@CStorageVariant@@QEAAXNI@Z" ; query.dll
"?SetDWORDParam@CCatalogAdmin@@QEAAXPEBGK@Z" ; query.dll
"?SetDWORDParam@CMachineAdmin@@QEAAXPEBGK@Z" ; query.dll
"?SetDefaultProperty@CCatState@@QEAAXPEBG@Z" ; query.dll
"?SetExclude@CScopeAdmin@@QEAAXH@Z" ; query.dll
"?SetFILETIME@CStorageVariant@@QEAAXU_FILETIME@@I@Z" ; query.dll
"?SetI2@CStorageVariant@@QEAAXFI@Z" ; query.dll
"?SetI4@CStorageVariant@@QEAAXJI@Z" ; query.dll
"?SetI8@CStorageVariant@@QEAAXT_LARGE_INTEGER@@I@Z" ; query.dll
"?SetLPSTR@CStorageVariant@@QEAAXPEBDI@Z" ; query.dll
"?SetLPWSTR@CStorageVariant@@QEAAXPEBGI@Z" ; query.dll
"?SetLocale@CCatState@@QEAAXPEBG@Z" ; query.dll
"?SetLogonInfo@CScopeAdmin@@QEAAXPEBG0AEAVCCatalogAdmin@@@Z" ; query.dll
"?SetMappedCacheSize@CPropStoreManager@@QEAAXKK@Z" ; query.dll
"?SetNumberOfColumns@CCatState@@QEAAXI@Z" ; query.dll
"?SetNumberOfSortProps@CCatState@@QEAAXI@Z" ; query.dll
"?SetPath@CScopeAdmin@@QEAAXPEBG@Z" ; query.dll
"?SetPhrase@CContentRestriction@@QEAAXPEBG@Z" ; query.dll
"?SetPhrase@CNatLanguageRestriction@@QEAAXPEBG@Z" ; query.dll
"?SetPriority@CGenericCiProxy@@QEAAXKK@Z" ; query.dll
"?SetProperties@CDbProperties@@UEAAJKQEAUtagDBPROPSET@@@Z" ; query.dll
"?SetProperty@CDbColId@@QEAAHPEBG@Z" ; query.dll
"?SetProperty@CDbPropBaseRestriction@@QEAAHAEBUtagDBID@@@Z" ; query.dll
"?SetProperty@CDbPropBaseRestriction@@QEAAHAEBVCDbColumnNode@@@Z" ; query.dll
"?SetProperty@CFullPropSpec@@QEAAHPEBG@Z" ; query.dll
"?SetProperty@CFullPropSpec@@QEAAXK@Z" ; query.dll
"?SetR4@CStorageVariant@@QEAAXMI@Z" ; query.dll
"?SetR8@CStorageVariant@@QEAAXNI@Z" ; query.dll
"?SetRestriction@CDbSelectNode@@QEAAHPEAVCDbCmdTreeNode@@@Z" ; query.dll
"?SetRunningAsSystem@CImpersonateSystem@@SAXXZ" ; query.dll
"?SetSZParam@CMachineAdmin@@QEAAXPEBG0K@Z" ; query.dll
"?SetScopeProperties@@YAXPEAUICommand@@IPEBQEBGPEBK11@Z" ; query.dll
"?SetScopePropertiesNoThrow@@YAJPEAUICommand@@IPEBQEBGPEBK11@Z" ; query.dll
"?SetSecret@@YAXPEBG00K@Z" ; query.dll
"?SetSortProp@CCatState@@QEAAXPEBGW4SORTDIR@@I@Z" ; query.dll
"?SetUI1@CStorageVariant@@QEAAXEI@Z" ; query.dll
"?SetUI2@CStorageVariant@@QEAAXGI@Z" ; query.dll
"?SetUI4@CStorageVariant@@QEAAXKI@Z" ; query.dll
"?SetUI8@CStorageVariant@@QEAAXT_ULARGE_INTEGER@@I@Z" ; query.dll
"?SetValue@CPropertyRestriction@@QEAAXAEAUtagBLOB@@@Z" ; query.dll
"?SetValue@CPropertyRestriction@@QEAAXPEAG@Z" ; query.dll
"?SetValue@CPropertyRestriction@@QEAAXPEAU_GUID@@@Z" ; query.dll
"?SetWeight@CDbCmdTreeNode@@QEAAXJ@Z" ; query.dll
"?Setup@CPropStoreManager@@QEAAXKKK_KHK@Z" ; query.dll
"?Shrink@CDynStream@@QEAAXAEAVPStorage@@K@Z" ; query.dll
"?ShrinkFromFront@CPhysStorage@@QEAAKKK@Z" ; query.dll
"?ShrinkToFit@CPhysStorage@@QEAAXXZ" ; query.dll
"?Shutdown@CCiOle@@SAXXZ" ; query.dll
"?Shutdown@CPropStoreManager@@QEAAXXZ" ; query.dll
"?Shutdown@CWorkQueue@@QEAAXXZ" ; query.dll
"?Size@CDbQueryResults@@QEAAKXZ" ; query.dll
"?Skip@CEnumString@@UEAAJK@Z" ; query.dll
"?Skip@CEnumWorkid@@UEAAJK@Z" ; query.dll
"?SkipBlob@CMemDeSerStream@@UEAAXK@Z" ; query.dll
"?SkipByte@CMemDeSerStream@@UEAAXXZ" ; query.dll
"?SkipChar@CMemDeSerStream@@UEAAXK@Z" ; query.dll
"?SkipDouble@CMemDeSerStream@@UEAAXXZ" ; query.dll
"?SkipFloat@CMemDeSerStream@@UEAAXXZ" ; query.dll
"?SkipGUID@CMemDeSerStream@@UEAAXXZ" ; query.dll
"?SkipLong@CMemDeSerStream@@UEAAXXZ" ; query.dll
"?SkipULong@CMemDeSerStream@@UEAAXXZ" ; query.dll
"?SkipUShort@CMemDeSerStream@@UEAAXXZ" ; query.dll
"?SkipWChar@CMemDeSerStream@@UEAAXK@Z" ; query.dll
"?Start@CCatalogAdmin@@QEAAHXZ" ; query.dll
"?StartCI@CMachineAdmin@@QEAAHXZ" ; query.dll
"?Stop@CCatalogAdmin@@QEAAHXZ" ; query.dll
"?StopCI@CMachineAdmin@@QEAAHXZ" ; query.dll
"?StopFiltering@CFilterDaemon@@QEAAXXZ" ; query.dll
"?StrLen@CKey@@QEBAIXZ" ; query.dll
"?StrLen@CKeyBuf@@QEBAIXZ" ; query.dll
"?SystemExceptionTranslator@@YAXIPEAU_EXCEPTION_POINTERS@@@Z" ; query.dll
"?TreeCount@CRestriction@@QEBAKXZ" ; query.dll
"?TunePerformance@CMachineAdmin@@QEAAXHGG@Z" ; query.dll
"?URLEscapeW@@YAXPEBGAEAVCVirtualString@@KH@Z" ; query.dll
"?UnMarshall@CDbProperties@@QEAAHAEAVPDeSerStream@@@Z" ; query.dll
"?UnMarshall@CRestriction@@SAPEAV1@AEAVPDeSerStream@@@Z" ; query.dll
"?UnMarshallTree@CDbCmdTreeNode@@SAPEAV1@AEAVPDeSerStream@@@Z" ; query.dll
"?UnPickle@@YAXHAEAV?$XPtr@VCColumnSet@@@@AEAV?$XPtr@VCRestriction@@@@AEAV?$XPtr@VCSortSet@@@@AEAV?$XPtr@VCCategorizationSet@@@@AEAVCRowsetProperties@@AEAV?$XPtr@VCPidMapper@@@@PEAEK@Z" ; query.dll
"?Unmap@CRcovStrmTrans@@IEAAXW4DataCopyNum@CRcovStorageHdr@@@Z" ; query.dll
"?UpdateContentIndex@@YAKPEBG00H@Z" ; query.dll
"?UpdateDiskLowInfo@CDiskFreeStatus@@QEAAXXZ" ; query.dll
"?VT_VARIANT_EQ@@YAHAEBUtagPROPVARIANT@@0@Z" ; query.dll
"?VT_VARIANT_GE@@YAHAEBUtagPROPVARIANT@@0@Z" ; query.dll
"?VT_VARIANT_GT@@YAHAEBUtagPROPVARIANT@@0@Z" ; query.dll
"?VT_VARIANT_LE@@YAHAEBUtagPROPVARIANT@@0@Z" ; query.dll
"?VT_VARIANT_LT@@YAHAEBUtagPROPVARIANT@@0@Z" ; query.dll
"?VT_VARIANT_NE@@YAHAEBUtagPROPVARIANT@@0@Z" ; query.dll
"?ValidateScopeRestriction@@YAHPEAVCRestriction@@@Z" ; query.dll
"?VerifyConsistency@PRcovStorageObj@@QEAAXXZ" ; query.dll
"?VerifyThreadHasAdminPrivilege@@YAXXZ" ; query.dll
"?WideCharToXArrayMultiByte@@YAKPEBGKIAEAV?$XArray@E@@@Z" ; query.dll
"?Write@CDynStream@@QEAAXPEAXK@Z" ; query.dll
"?Write@CRcovStrmTrans@@IEAAXPEBXK@Z" ; query.dll
"?WritePrimaryProperty@CPropStoreManager@@QEAAJAEAVCCompositePropRecordForWrites@@KAEBVCStorageVariant@@@Z" ; query.dll
"?WritePrimaryProperty@CPropStoreManager@@QEAAJKKAEBVCStorageVariant@@@Z" ; query.dll
"?WriteProperty@CPropStoreManager@@QEAAJAEAVCCompositePropRecordForWrites@@KAEBVCStorageVariant@@@Z" ; query.dll
"?WriteProperty@CPropStoreManager@@QEAAJKKAEBVCStorageVariant@@@Z" ; query.dll
"?WritePropertyInNewRecord@CPropStoreManager@@QEAAKKAEBVCStorageVariant@@@Z" ; query.dll
"?_FindGroupListAnchor@CDbNestingNode@@AEAAPEAVCDbProjectListAnchor@@XZ" ; query.dll
"?_FindOrAddAnchor@CDbProjectNode@@AEAAPEAVCDbProjectListAnchor@@XZ" ; query.dll
"?_FindOrAddAnchor@CDbSortNode@@AEAAPEAVCDbSortListAnchor@@XZ" ; query.dll
"?_FindOrAddValueNode@CDbPropertyRestriction@@AEAAPEAVCDbScalarValue@@XZ" ; query.dll
"?_ImpersonateIf@CImpersonateRemoteAccess@@AEAAHPEBG0K@Z" ; query.dll
"?_wcstoui64@@YA_KPEBGPEAPEAGH@Z" ; query.dll
"?ciDelete@@YAXPEAX@Z" ; query.dll
"?ciIsValidPointer@@YAHPEBX@Z" ; query.dll
"?ciNew@@YAPEAX_K@Z" ; query.dll
"?fgetsw@CFileBuffer@@QEAAKAEAV?$XGrowable@G$0BAE@@@@Z" ; query.dll
"?wcsipattern@@YAPEAGPEAGPEBG@Z" ; query.dll
"AbortMerges" ; query.dll
"BeginCacheTransaction" ; query.dll
"BindIFilterFromStorage" ; query.dll
"BindIFilterFromStream" ; query.dll
"CIBuildQueryNode" ; query.dll
"CIBuildQueryTree" ; query.dll
"CICreateCommand" ; query.dll
"CIGetGlobalPropertyList" ; query.dll
"CIMakeICommand" ; query.dll
"CIRestrictionToFullTree" ; query.dll
"CIState" ; query.dll
"CITextToFullTree" ; query.dll
"CITextToFullTreeEx" ; query.dll
"CITextToSelectTree" ; query.dll
"CITextToSelectTreeEx" ; query.dll
"CiCreateSecurityDescriptor" ; query.dll
"CiSvcMain" ; query.dll
"CollectCIISAPIPerformanceData" ; query.dll
"CollectCIPerformanceData" ; query.dll
"CollectFILTERPerformanceData" ; query.dll
"DllCanUnloadNow" ; query.dll
"DllGetClassObject" ; query.dll
"DllRegisterServer" ; query.dll
"DllUnregisterServer" ; query.dll
"DoneCIISAPIPerformanceData" ; query.dll
"DoneCIPerformanceData" ; query.dll
"DoneFILTERPerformanceData" ; query.dll
"EndCacheTransaction" ; query.dll
"ForceMasterMerge" ; query.dll
"FsCiShutdown" ; query.dll
"InitializeCIISAPIPerformanceData" ; query.dll
"InitializeCIPerformanceData" ; query.dll
"InitializeFILTERPerformanceData" ; query.dll
"LoadBHIFilter" ; query.dll
"LoadBinaryFilter" ; query.dll
"LoadIFilter" ; query.dll
"LoadIFilterEx" ; query.dll
"LoadTextFilter" ; query.dll
"LocateCatalogs" ; query.dll
"LocateCatalogsA" ; query.dll
"LocateCatalogsW" ; query.dll
"SetCatalogState" ; query.dll
"SetupCache" ; query.dll
"SetupCacheEx" ; query.dll
"StartFWCiSvcWork" ; query.dll
"StopFWCiSvcWork" ; query.dll
"SvcEntry_CiSvc" ; query.dll
