LIBRARY "ulib.dll"
EXPORTS
"??0ARGUMENT_LEXEMIZER@@QEAA@XZ" ; ulib.dll
"??0ARRAY@@QEAA@XZ" ; ulib.dll
"??0BDSTRING@@QEAA@AEBV0@@Z" ; ulib.dll
"??0BDSTRING@@QEAA@XZ" ; ulib.dll
"??0BITVECTOR@@QEAA@XZ" ; ulib.dll
"??0BSTRING@@IEAA@XZ" ; ulib.dll
"??0BSTRING@@QEAA@AEBV0@@Z" ; ulib.dll
"??0BYTE_STREAM@@QEAA@XZ" ; ulib.dll
"??0CHKDSK_MESSAGE@@QEAA@XZ" ; ulib.dll
"??0CLASS_DESCRIPTOR@@QEAA@XZ" ; ulib.dll
"??0COMM_DEVICE@@QEAA@XZ" ; ulib.dll
"??0CONT_MEM@@QEAA@XZ" ; ulib.dll
"??0DSTRING@@QEAA@AEBV0@@Z" ; ulib.dll
"??0DSTRING@@QEAA@XZ" ; ulib.dll
"??0FLAG_ARGUMENT@@QEAA@XZ" ; ulib.dll
"??0FSN_FILTER@@QEAA@XZ" ; ulib.dll
"??0FSTRING@@QEAA@AEBV0@@Z" ; ulib.dll
"??0FSTRING@@QEAA@XZ" ; ulib.dll
"??0HMEM@@QEAA@XZ" ; ulib.dll
"??0KEYBOARD@@QEAA@XZ" ; ulib.dll
"??0LIST@@QEAA@XZ" ; ulib.dll
"??0LONG_ARGUMENT@@QEAA@XZ" ; ulib.dll
"??0MEM_ALLOCATOR@@QEAA@XZ" ; ulib.dll
"??0MEM_BLOCK_MGR@@QEAA@XZ" ; ulib.dll
"??0MESSAGE@@QEAA@XZ" ; ulib.dll
"??0MULTIPLE_PATH_ARGUMENT@@QEAA@XZ" ; ulib.dll
"??0OBJECT@@IEAA@XZ" ; ulib.dll
"??0OBJECT@@QEAA@AEBV0@@Z" ; ulib.dll
"??0PATH@@QEAA@XZ" ; ulib.dll
"??0PATH_ARGUMENT@@QEAA@XZ" ; ulib.dll
"??0PRINT_STREAM@@QEAA@XZ" ; ulib.dll
"??0PROGRAM@@IEAA@XZ" ; ulib.dll
"??0REST_OF_LINE_ARGUMENT@@QEAA@XZ" ; ulib.dll
"??0SCREEN@@QEAA@XZ" ; ulib.dll
"??0SORTED_LIST@@QEAA@XZ" ; ulib.dll
"??0STREAM_MESSAGE@@QEAA@XZ" ; ulib.dll
"??0STRING_ARGUMENT@@QEAA@XZ" ; ulib.dll
"??0STRING_ARRAY@@QEAA@XZ" ; ulib.dll
"??0TIMEINFO@@QEAA@XZ" ; ulib.dll
"??0TIMEINFO_ARGUMENT@@QEAA@XZ" ; ulib.dll
"??0WSTRING@@IEAA@XZ" ; ulib.dll
"??0WSTRING@@QEAA@AEBV0@@Z" ; ulib.dll
"??1ARGUMENT_LEXEMIZER@@UEAA@XZ" ; ulib.dll
"??1ARRAY@@UEAA@XZ" ; ulib.dll
"??1BDSTRING@@UEAA@XZ" ; ulib.dll
"??1BITVECTOR@@UEAA@XZ" ; ulib.dll
"??1BSTRING@@UEAA@XZ" ; ulib.dll
"??1BYTE_STREAM@@UEAA@XZ" ; ulib.dll
"??1CHKDSK_MESSAGE@@UEAA@XZ" ; ulib.dll
"??1COMM_DEVICE@@UEAA@XZ" ; ulib.dll
"??1DSTRING@@UEAA@XZ" ; ulib.dll
"??1FSN_FILTER@@UEAA@XZ" ; ulib.dll
"??1FSTRING@@UEAA@XZ" ; ulib.dll
"??1HMEM@@UEAA@XZ" ; ulib.dll
"??1LIST@@UEAA@XZ" ; ulib.dll
"??1MEM_ALLOCATOR@@UEAA@XZ" ; ulib.dll
"??1MEM_BLOCK_MGR@@UEAA@XZ" ; ulib.dll
"??1MESSAGE@@UEAA@XZ" ; ulib.dll
"??1MULTIPLE_PATH_ARGUMENT@@UEAA@XZ" ; ulib.dll
"??1OBJECT@@UEAA@XZ" ; ulib.dll
"??1PATH@@UEAA@XZ" ; ulib.dll
"??1PATH_ARGUMENT@@UEAA@XZ" ; ulib.dll
"??1PRINT_STREAM@@UEAA@XZ" ; ulib.dll
"??1PROGRAM@@UEAA@XZ" ; ulib.dll
"??1SCREEN@@UEAA@XZ" ; ulib.dll
"??1SORTED_LIST@@UEAA@XZ" ; ulib.dll
"??1STREAM_MESSAGE@@UEAA@XZ" ; ulib.dll
"??1STRING_ARGUMENT@@UEAA@XZ" ; ulib.dll
"??1TIMEINFO_ARGUMENT@@UEAA@XZ" ; ulib.dll
"??1WSTRING@@UEAA@XZ" ; ulib.dll
"??4BDSTRING@@QEAAAEAV0@AEBV0@@Z" ; ulib.dll
"??4BSTRING@@QEAAAEAV0@AEBV0@@Z" ; ulib.dll
"??4DSTRING@@QEAAAEAV0@AEBV0@@Z" ; ulib.dll
"??4FSTRING@@QEAAAEAV0@AEBV0@@Z" ; ulib.dll
"??4OBJECT@@QEAAAEAV0@AEBV0@@Z" ; ulib.dll
"??4WSTRING@@QEAAAEAV0@AEBV0@@Z" ; ulib.dll
"??8WSTRING@@QEBAEAEBV0@@Z" ; ulib.dll
"??9WSTRING@@QEBAEAEBV0@@Z" ; ulib.dll
"??MTIMEINFO@@QEBAEV0@@Z" ; ulib.dll
"??MWSTRING@@QEBAEAEBV0@@Z" ; ulib.dll
"??NWSTRING@@QEBAEAEBV0@@Z" ; ulib.dll
"??OTIMEINFO@@QEBAEV0@@Z" ; ulib.dll
"??OWSTRING@@QEBAEAEBV0@@Z" ; ulib.dll
"??PWSTRING@@QEBAEAEBV0@@Z" ; ulib.dll
"??_7BDSTRING@@6B@" ; ulib.dll
"??_7BSTRING@@6B@" ; ulib.dll
"??_7DSTRING@@6B@" ; ulib.dll
"??_7FSTRING@@6B@" ; ulib.dll
"??_7OBJECT@@6B@" ; ulib.dll
"??_7WSTRING@@6B@" ; ulib.dll
"?Acquire@CONT_MEM@@UEAAPEAXKK@Z" ; ulib.dll
"?Acquire@HMEM@@UEAAPEAXKK@Z" ; ulib.dll
"?Alloc@MEM_BLOCK_MGR@@QEAAPEAXXZ" ; ulib.dll
"?Allocate@MEM_ALLOCATOR@@QEAAPEAXK@Z" ; ulib.dll
"?AnalyzePath@PATH@@QEAA?AW4PATH_ANALYZE_CODE@@PEAVWSTRING@@PEAV1@0@Z" ; ulib.dll
"?AppendBase@PATH@@QEAAEPEBVWSTRING@@E@Z" ; ulib.dll
"?AppendDelimiter@PATH@@QEAAEXZ" ; ulib.dll
"?AppendString@PATH@@QEAAEPEBVWSTRING@@@Z" ; ulib.dll
"?Cast@FILE_STREAM@@SAPEAV1@PEBVOBJECT@@@Z" ; ulib.dll
"?Cast@KEYBOARD@@SAPEAV1@PEBVOBJECT@@@Z" ; ulib.dll
"?Cast@SCREEN@@SAPEAV1@PEBVOBJECT@@@Z" ; ulib.dll
"?ChangeScreenSize@SCREEN@@QEAAEGGPEAE@Z" ; ulib.dll
"?CharNextW@MBSTR@@SAPEADPEAD@Z" ; ulib.dll
"?CheckSpace@WSTRING@@CAHPEAG@Z" ; ulib.dll
"?CommitState@COMM_DEVICE@@QEAAEXZ" ; ulib.dll
"?Compare@OBJECT@@UEBAJPEBV1@@Z" ; ulib.dll
"?ComputeCountSet@BITVECTOR@@AEBAKXZ" ; ulib.dll
"?Construct@BDSTRING@@AEAAXXZ" ; ulib.dll
"?Construct@BSTRING@@IEAAXXZ" ; ulib.dll
"?Construct@DSTRING@@AEAAXXZ" ; ulib.dll
"?Construct@OBJECT@@IEAAXXZ" ; ulib.dll
"?Construct@WSTRING@@IEAAXXZ" ; ulib.dll
"?ConvertOemToUnicodeN@WSTRING@@CAEPEAGKPEAKPEADK@Z" ; ulib.dll
"?ConvertToLocal@TIMEINFO@@QEAAEXZ" ; ulib.dll
"?ConvertToUTC@TIMEINFO@@QEAAEXZ" ; ulib.dll
"?ConvertUnicodeToOemN@WSTRING@@CAEPEADKPEAKPEAGK@Z" ; ulib.dll
"?Copy@FSN_FILE@@QEBAEPEAVPATH@@PEAW4_COPY_ERROR@@KP6AKT_LARGE_INTEGER@@222KKPEAX33@Z3PEAH@Z" ; ulib.dll
"?CreateDirectoryPath@FSN_DIRECTORY@@QEBAPEAV1@PEBVPATH@@@Z" ; ulib.dll
"?DeleteAllMembers@ARRAY@@UEAAEXZ" ; ulib.dll
"?DeleteAllMembers@SEQUENTIAL_CONTAINER@@UEAAEXZ" ; ulib.dll
"?DeleteAllMembers@SORTED_LIST@@UEAAEXZ" ; ulib.dll
"?DeleteChAt@BSTRING@@QEAAXKK@Z" ; ulib.dll
"?DeleteChAt@WSTRING@@QEAAXKK@Z" ; ulib.dll
"?DeleteDirectory@FSN_DIRECTORY@@QEAAEXZ" ; ulib.dll
"?DisableBreakHandling@KEYBOARD@@SAEXZ" ; ulib.dll
"?DisableLineMode@KEYBOARD@@QEAAEXZ" ; ulib.dll
"?Display@MESSAGE@@QEAAEPEBDZZ" ; ulib.dll
"?DisplayMessage@PROGRAM@@UEBAEKW4MESSAGE_TYPE@@@Z" ; ulib.dll
"?DisplayMessage@PROGRAM@@UEBAEKW4MESSAGE_TYPE@@PEADZZ" ; ulib.dll
"?DisplayMsg@MESSAGE@@QEAAEK@Z" ; ulib.dll
"?DisplayMsg@MESSAGE@@QEAAEKPEBDZZ" ; ulib.dll
"?DisplayMsg@MESSAGE@@QEAAEKW4MESSAGE_TYPE@@K@Z" ; ulib.dll
"?DisplayMsg@MESSAGE@@QEAAEKW4MESSAGE_TYPE@@KPEBDZZ" ; ulib.dll
"?DisplaySystemError@SYSTEM@@SAXKH@Z" ; ulib.dll
"?DoNotRestoreConsoleMode@KEYBOARD@@UEAAXXZ" ; ulib.dll
"?DoParsing@ARGUMENT_LEXEMIZER@@QEAAEPEAVARRAY@@@Z" ; ulib.dll
"?DoesNodeMatch@FSN_FILTER@@QEAAEPEAVFSNODE@@@Z" ; ulib.dll
"?DumpDataToLog@MESSAGE@@QEAAEPEAXK@Z" ; ulib.dll
"?EnableBreakHandling@KEYBOARD@@SAEXZ" ; ulib.dll
"?EnableLineMode@KEYBOARD@@QEAAEXZ" ; ulib.dll
"?EndsWithDelimiter@PATH@@QEBAEXZ" ; ulib.dll
"?EraseScreen@SCREEN@@QEAAEXZ" ; ulib.dll
"?EraseScreenAndResetAttribute@SCREEN@@QEAAEXZ" ; ulib.dll
"?ExitProgram@PROGRAM@@SAXK@Z" ; ulib.dll
"?Fatal@PROGRAM@@UEBAXKKPEADZZ" ; ulib.dll
"?Fatal@PROGRAM@@UEBAXXZ" ; ulib.dll
"?FillAndReadByte@BYTE_STREAM@@AEAAEPEAE@Z" ; ulib.dll
"?FindFirstFileW@@YAPEAXPEBVPATH@@PEAU_WIN32_FIND_DATAW@@@Z" ; ulib.dll
"?Flush@KEYBOARD@@QEAAEXZ" ; ulib.dll
"?Free@MEM_BLOCK_MGR@@QEAAEPEAX@Z" ; ulib.dll
"?FreeLibraryHandle@SYSTEM@@SAXPEAX@Z" ; ulib.dll
"?GetClassDescriptor@OBJECT@@QEBAPEBVCLASS_DESCRIPTOR@@XZ" ; ulib.dll
"?GetFileSecurityBackup@SYSTEM@@SAEPEBVPATH@@KPEAU_SECURITY_ATTRIBUTES@@PEAK@Z" ; ulib.dll
"?GetLexeme@ARGUMENT@@QEAAPEAVWSTRING@@XZ" ; ulib.dll
"?GetLexemeAt@ARGUMENT_LEXEMIZER@@QEAAPEAVWSTRING@@K@Z" ; ulib.dll
"?GetNext@FSN_DIRECTORY@@QEAAPEAVFSNODE@@PEAPEAXPEAK@Z" ; ulib.dll
"?GetPFlagBreak@KEYBOARD@@QEBAQEAHXZ" ; ulib.dll
"?GetPattern@ARGUMENT@@QEAAPEAVWSTRING@@XZ" ; ulib.dll
"?GetStandardError@PROGRAM@@UEAAPEAVSTREAM@@XZ" ; ulib.dll
"?GetStandardInput@PROGRAM@@UEAAPEAVSTREAM@@XZ" ; ulib.dll
"?GetStandardOutput@PROGRAM@@UEAAPEAVSTREAM@@XZ" ; ulib.dll
"?GetWSTR@WSTRING@@QEBAPEBGXZ" ; ulib.dll
"?Get_Standard_Error_Stream@@YAPEAVSTREAM@@XZ" ; ulib.dll
"?Get_Standard_Input_Stream@@YAPEAVSTREAM@@XZ" ; ulib.dll
"?Get_Standard_Output_Stream@@YAPEAVSTREAM@@XZ" ; ulib.dll
"?GotABreak@KEYBOARD@@SAEXZ" ; ulib.dll
"?HasWildCard@PATH@@QEBAEXZ" ; ulib.dll
"?Initialize@ARGUMENT_LEXEMIZER@@QEAAEPEAVARRAY@@@Z" ; ulib.dll
"?Initialize@ARRAY@@QEAAEKK@Z" ; ulib.dll
"?Initialize@BITVECTOR@@QEAAEKW4BIT@@PEAK@Z" ; ulib.dll
"?Initialize@BSTRING@@QEAAEPEBDK@Z" ; ulib.dll
"?Initialize@BSTRING@@QEAAEXZ" ; ulib.dll
"?Initialize@BYTE_STREAM@@QEAAEPEAVSTREAM@@K@Z" ; ulib.dll
"?Initialize@CHKDSK_MESSAGE@@QEAAEPEAVSTREAM@@00@Z" ; ulib.dll
"?Initialize@CLASS_DESCRIPTOR@@QEAAEXZ" ; ulib.dll
"?Initialize@COMM_DEVICE@@QEAAEPEBVPATH@@PEAE@Z" ; ulib.dll
"?Initialize@CONT_MEM@@QEAAEPEAXK@Z" ; ulib.dll
"?Initialize@FLAG_ARGUMENT@@QEAAEPEAD@Z" ; ulib.dll
"?Initialize@FLAG_ARGUMENT@@QEAAEPEAVWSTRING@@@Z" ; ulib.dll
"?Initialize@FSN_FILTER@@QEAAEXZ" ; ulib.dll
"?Initialize@FSTRING@@QEAAPEAVWSTRING@@PEAGK@Z" ; ulib.dll
"?Initialize@HMEM@@QEAAEXZ" ; ulib.dll
"?Initialize@KEYBOARD@@QEAAEEE@Z" ; ulib.dll
"?Initialize@LIST@@QEAAEXZ" ; ulib.dll
"?Initialize@LONG_ARGUMENT@@QEAAEPEAD@Z" ; ulib.dll
"?Initialize@MEM_ALLOCATOR@@QEAAE_KK@Z" ; ulib.dll
"?Initialize@MEM_BLOCK_MGR@@QEAAEKK@Z" ; ulib.dll
"?Initialize@MESSAGE@@QEAAEXZ" ; ulib.dll
"?Initialize@MULTIPLE_PATH_ARGUMENT@@QEAAEPEADEE@Z" ; ulib.dll
"?Initialize@PATH@@QEAAEPEBGE@Z" ; ulib.dll
"?Initialize@PATH@@QEAAEPEBV1@E@Z" ; ulib.dll
"?Initialize@PATH@@QEAAEPEBVWSTRING@@E@Z" ; ulib.dll
"?Initialize@PATH_ARGUMENT@@QEAAEPEADE@Z" ; ulib.dll
"?Initialize@PRINT_STREAM@@QEAAEPEBVPATH@@@Z" ; ulib.dll
"?Initialize@PROGRAM@@QEAAEKKK@Z" ; ulib.dll
"?Initialize@REST_OF_LINE_ARGUMENT@@QEAAEXZ" ; ulib.dll
"?Initialize@SCREEN@@QEAAEXZ" ; ulib.dll
"?Initialize@SORTED_LIST@@QEAAEE@Z" ; ulib.dll
"?Initialize@STREAM_MESSAGE@@QEAAEPEAVSTREAM@@00@Z" ; ulib.dll
"?Initialize@STRING_ARGUMENT@@QEAAEPEAD@Z" ; ulib.dll
"?Initialize@STRING_ARRAY@@QEAAEKKK@Z" ; ulib.dll
"?Initialize@TIMEINFO@@QEAAEPEAU_FILETIME@@@Z" ; ulib.dll
"?Initialize@TIMEINFO@@QEAAXPEBV1@@Z" ; ulib.dll
"?Initialize@TIMEINFO_ARGUMENT@@QEAAEPEAD@Z" ; ulib.dll
"?Initialize@WSTRING@@QEAAEJ@Z" ; ulib.dll
"?Initialize@WSTRING@@QEAAEPEBDK@Z" ; ulib.dll
"?Initialize@WSTRING@@QEAAEPEBGK@Z" ; ulib.dll
"?Initialize@WSTRING@@QEAAEPEBV1@KK@Z" ; ulib.dll
"?Initialize@WSTRING@@QEAAEXZ" ; ulib.dll
"?Insert@LIST@@QEAAEPEAVOBJECT@@PEAVITERATOR@@@Z" ; ulib.dll
"?InsertString@WSTRING@@QEAAEKPEBV1@KK@Z" ; ulib.dll
"?IsCorrectVersion@SYSTEM@@SAEXZ" ; ulib.dll
"?IsDrive@PATH@@QEBAEXZ" ; ulib.dll
"?IsEmpty@FSN_DIRECTORY@@QEBAEXZ" ; ulib.dll
"?IsGuidVolName@PATH@@QEAAEXZ" ; ulib.dll
"?IsInAutoChk@MESSAGE@@UEAAEXZ" ; ulib.dll
"?IsInSetup@MESSAGE@@UEAAEXZ" ; ulib.dll
"?IsKeyAvailable@KEYBOARD@@QEBAEPEAE@Z" ; ulib.dll
"?IsKeyPressed@MESSAGE@@UEAAEKK@Z" ; ulib.dll
"?IsLoggingEnabled@MESSAGE@@QEAAEXZ" ; ulib.dll
"?IsSameClass@OBJECT@@QEBAEPEBV1@@Z" ; ulib.dll
"?IsSameObject@OBJECT@@QEBAEPEBV1@@Z" ; ulib.dll
"?IsSuppressedMessage@MESSAGE@@UEAAEXZ" ; ulib.dll
"?IsValueSet@ARGUMENT@@QEAAEXZ" ; ulib.dll
"?IsYesResponse@CHKDSK_MESSAGE@@UEAAEE@Z" ; ulib.dll
"?IsYesResponse@MESSAGE@@UEAAEE@Z" ; ulib.dll
"?IsYesResponse@STREAM_MESSAGE@@UEAAEE@Z" ; ulib.dll
"?Lock@MESSAGE@@QEAAXXZ" ; ulib.dll
"?Log@MESSAGE@@QEAAEPEBDZZ" ; ulib.dll
"?LogMessage@MESSAGE@@QEAAEPEBVWSTRING@@@Z" ; ulib.dll
"?LogMsg@MESSAGE@@QEAAEK@Z" ; ulib.dll
"?LogMsg@MESSAGE@@QEAAEKPEBDZZ" ; ulib.dll
"?MakeDirectory@SYSTEM@@SAPEAVFSN_DIRECTORY@@PEBVPATH@@0PEAW4_COPY_ERROR@@P6AKT_LARGE_INTEGER@@222KKPEAX33@Z3PEAHK@Z" ; ulib.dll
"?MakeFile@SYSTEM@@SAPEAVFSN_FILE@@PEBVPATH@@@Z" ; ulib.dll
"?MakeTemporaryFile@SYSTEM@@SAPEAVFSN_FILE@@PEBVWSTRING@@PEBVPATH@@@Z" ; ulib.dll
"?ModifyName@PATH@@QEAAEPEBVWSTRING@@@Z" ; ulib.dll
"?MoveCursorTo@SCREEN@@QEAAEGG@Z" ; ulib.dll
"?NewBuf@BDSTRING@@UEAAEK@Z" ; ulib.dll
"?NewBuf@DSTRING@@UEAAEK@Z" ; ulib.dll
"?NewBuf@FSTRING@@UEAAEK@Z" ; ulib.dll
"?NextChar@BSTRING@@QEAAKK@Z" ; ulib.dll
"?PrepareToParse@ARGUMENT_LEXEMIZER@@QEAAEPEAVWSTRING@@@Z" ; ulib.dll
"?Put@ARRAY@@UEAAEPEAVOBJECT@@@Z" ; ulib.dll
"?Put@LIST@@UEAAEPEAVOBJECT@@@Z" ; ulib.dll
"?Put@SORTED_LIST@@UEAAEPEAVOBJECT@@@Z" ; ulib.dll
"?PutMultipleSwitch@ARGUMENT_LEXEMIZER@@QEAAXPEBD@Z" ; ulib.dll
"?PutMultipleSwitch@ARGUMENT_LEXEMIZER@@QEAAXPEBVWSTRING@@@Z" ; ulib.dll
"?PutSeparators@ARGUMENT_LEXEMIZER@@QEAAXPEBD@Z" ; ulib.dll
"?PutString@BSTRING@@IEAAXPEADK@Z" ; ulib.dll
"?PutString@WSTRING@@IEAAXPEAG@Z" ; ulib.dll
"?PutString@WSTRING@@IEAAXPEAGK@Z" ; ulib.dll
"?PutSwitches@ARGUMENT_LEXEMIZER@@QEAAXPEBD@Z" ; ulib.dll
"?PutSwitches@ARGUMENT_LEXEMIZER@@QEAAXPEBVWSTRING@@@Z" ; ulib.dll
"?QueryByteCount@WSTRING@@QEBAKXZ" ; ulib.dll
"?QueryChAt@WSTRING@@QEBAGK@Z" ; ulib.dll
"?QueryChCount@BSTRING@@QEBAKXZ" ; ulib.dll
"?QueryChCount@WSTRING@@QEBAKXZ" ; ulib.dll
"?QueryClassId@OBJECT@@QEBA_KXZ" ; ulib.dll
"?QueryCodePage@SCREEN@@QEAAKXZ" ; ulib.dll
"?QueryComponentArray@PATH@@QEBAPEAVARRAY@@PEAV2@@Z" ; ulib.dll
"?QueryCurrentDosDriveName@SYSTEM@@SAEPEAVWSTRING@@@Z" ; ulib.dll
"?QueryDate@TIMEINFO@@QEBAEPEAVWSTRING@@@Z" ; ulib.dll
"?QueryDirectory@SYSTEM@@SAPEAVFSN_DIRECTORY@@PEBVPATH@@E@Z" ; ulib.dll
"?QueryDriveType@SYSTEM@@SA?AW4DRIVE_TYPE@@PEBVWSTRING@@@Z" ; ulib.dll
"?QueryEnvironmentVariable@SYSTEM@@SAPEAVWSTRING@@PEBV2@@Z" ; ulib.dll
"?QueryFile@SYSTEM@@SAPEAVFSN_FILE@@PEBVPATH@@EPEAE@Z" ; ulib.dll
"?QueryFileType@SYSTEM@@SA?AW4FILE_TYPE@@PEBVWSTRING@@@Z" ; ulib.dll
"?QueryFsnodeArray@FSN_DIRECTORY@@QEBAPEAVARRAY@@PEAVFSN_FILTER@@@Z" ; ulib.dll
"?QueryFullPath@PATH@@QEBAPEAV1@XZ" ; ulib.dll
"?QueryFullPathString@PATH@@QEBAPEAVWSTRING@@XZ" ; ulib.dll
"?QueryGuidString@PATH@@QEAAPEAVWSTRING@@PEAV2@PEAE0@Z" ; ulib.dll
"?QueryInvalidArgument@ARGUMENT_LEXEMIZER@@QEAAPEAVWSTRING@@XZ" ; ulib.dll
"?QueryIterator@ARRAY@@UEBAPEAVITERATOR@@XZ" ; ulib.dll
"?QueryIterator@LIST@@UEBAPEAVITERATOR@@XZ" ; ulib.dll
"?QueryIterator@SORTED_LIST@@UEBAPEAVITERATOR@@XZ" ; ulib.dll
"?QueryLibraryEntryPoint@SYSTEM@@SAP6A_JXZPEBVWSTRING@@0PEAPEAX@Z" ; ulib.dll
"?QueryLocalTimeFromUTime@SYSTEM@@SAEPEBVTIMEINFO@@PEAV2@@Z" ; ulib.dll
"?QueryMemberCount@LIST@@UEBAKXZ" ; ulib.dll
"?QueryMemberCount@SORTED_LIST@@UEBAKXZ" ; ulib.dll
"?QueryMountPointPath@PATH@@QEAAPEAV1@XZ" ; ulib.dll
"?QueryNextLoggedMessage@MESSAGE@@QEAAEPEAVFSTRING@@@Z" ; ulib.dll
"?QueryNumber@WSTRING@@QEBAEPEAJKK@Z" ; ulib.dll
"?QueryPackedLog@MESSAGE@@QEAAEPEAVHMEM@@PEAK@Z" ; ulib.dll
"?QueryPath@PATH@@QEBAPEAV1@XZ" ; ulib.dll
"?QueryResourceString@BASE_SYSTEM@@SAEPEAVWSTRING@@KPEBDZZ" ; ulib.dll
"?QueryResourceStringV@BASE_SYSTEM@@SAEPEAVWSTRING@@KPEBDPEAD@Z" ; ulib.dll
"?QueryRoot@PATH@@QEAAPEAVWSTRING@@XZ" ; ulib.dll
"?QuerySTR@BSTRING@@QEBAPEADKKPEADKE@Z" ; ulib.dll
"?QuerySTR@WSTRING@@QEBAPEADKKPEADKE@Z" ; ulib.dll
"?QueryScreenSize@SCREEN@@QEBAXPEAG000@Z" ; ulib.dll
"?QueryStream@FSN_FILE@@QEAAPEAVFILE_STREAM@@W4STREAMACCESS@@K@Z" ; ulib.dll
"?QueryString@WSTRING@@QEBAPEAV1@KK@Z" ; ulib.dll
"?QueryStringInput@MESSAGE@@UEAAEPEAVWSTRING@@@Z" ; ulib.dll
"?QuerySystemDirectory@SYSTEM@@SAPEAVPATH@@XZ" ; ulib.dll
"?QueryTime@TIMEINFO@@QEBAEPEAVWSTRING@@@Z" ; ulib.dll
"?QueryTimeOut@COMM_DEVICE@@QEBAEXZ" ; ulib.dll
"?QueryVolumeLabel@SYSTEM@@SAPEAVWSTRING@@PEAVPATH@@PEAU_VOL_SERIAL_NUMBER@@@Z" ; ulib.dll
"?QueryWCExpansion@PATH@@QEAAPEAV1@PEAV1@@Z" ; ulib.dll
"?QueryWSTR@WSTRING@@QEBAPEAGKKPEAGKE@Z" ; ulib.dll
"?QueryWindowsErrorMessage@SYSTEM@@SAEKPEAVWSTRING@@@Z" ; ulib.dll
"?ReadAt@FILE_STREAM@@QEAAEPEAEK_JW4SEEKORIGIN@@PEAK@Z" ; ulib.dll
"?ReadLine@STREAM@@QEAAEPEAVWSTRING@@E@Z" ; ulib.dll
"?ReadMbLine@STREAM@@QEAAEPEADKPEAKEK@Z" ; ulib.dll
"?ReadWLine@STREAM@@QEAAEPEAGKPEAKEK@Z" ; ulib.dll
"?Remove@ARRAY@@UEAAPEAVOBJECT@@PEAVITERATOR@@@Z" ; ulib.dll
"?RemoveNode@SYSTEM@@SAEPEAPEAVFSNODE@@E@Z" ; ulib.dll
"?Replace@WSTRING@@QEAAEKKPEBV1@KK@Z" ; ulib.dll
"?ReplaceWithChars@BSTRING@@QEAAEKKDK@Z" ; ulib.dll
"?ReplaceWithChars@WSTRING@@QEAAEKKGK@Z" ; ulib.dll
"?ResetBit@BITVECTOR@@QEAAXKK@Z" ; ulib.dll
"?ResetConversions@WSTRING@@SAXXZ" ; ulib.dll
"?ResetLoggingIterator@MESSAGE@@QEAAXXZ" ; ulib.dll
"?Resize@BDSTRING@@UEAAEK@Z" ; ulib.dll
"?Resize@DSTRING@@UEAAEK@Z" ; ulib.dll
"?Resize@FSTRING@@UEAAEK@Z" ; ulib.dll
"?Resize@HMEM@@QEAAEKK@Z" ; ulib.dll
"?SearchPathW@SYSTEM@@SAPEAVPATH@@PEAVWSTRING@@0@Z" ; ulib.dll
"?SelectResponse@MESSAGE@@UEAAKKZZ" ; ulib.dll
"?Set@CHKDSK_MESSAGE@@UEAAEKW4MESSAGE_TYPE@@K@Z" ; ulib.dll
"?Set@STREAM_MESSAGE@@UEAAEKW4MESSAGE_TYPE@@K@Z" ; ulib.dll
"?SetAllowSwitchGlomming@ARGUMENT_LEXEMIZER@@QEAAXE@Z" ; ulib.dll
"?SetAnsiConversions@WSTRING@@SAXXZ" ; ulib.dll
"?SetAttributes@FSN_FILTER@@QEAAEKKK@Z" ; ulib.dll
"?SetBaudRate@COMM_DEVICE@@QEAAEK@Z" ; ulib.dll
"?SetBit@BITVECTOR@@QEAAXKK@Z" ; ulib.dll
"?SetCaseSensitive@ARGUMENT_LEXEMIZER@@QEAAXE@Z" ; ulib.dll
"?SetChAt@WSTRING@@QEAAGGK@Z" ; ulib.dll
"?SetClassDescriptor@OBJECT@@IEAAXPEBVCLASS_DESCRIPTOR@@@Z" ; ulib.dll
"?SetCodePage@SCREEN@@QEAAEK@Z" ; ulib.dll
"?SetConsoleConversions@WSTRING@@SAXXZ" ; ulib.dll
"?SetDataBits@COMM_DEVICE@@QEAAEK@Z" ; ulib.dll
"?SetDevice@PATH@@QEAAEPEBVWSTRING@@@Z" ; ulib.dll
"?SetDotsOnly@MESSAGE@@UEAAEE@Z" ; ulib.dll
"?SetDtrControl@COMM_DEVICE@@QEAAEW4DTR_CONTROL@@@Z" ; ulib.dll
"?SetFileName@FSN_FILTER@@QEAAEPEBD@Z" ; ulib.dll
"?SetFileName@FSN_FILTER@@QEAAEPEBVWSTRING@@@Z" ; ulib.dll
"?SetIdsr@COMM_DEVICE@@QEAAEE@Z" ; ulib.dll
"?SetLoggingEnabled@MESSAGE@@QEAAXE@Z" ; ulib.dll
"?SetName@PATH@@QEAAEPEBVWSTRING@@@Z" ; ulib.dll
"?SetNoSpcBetweenDstAndSwitch@ARGUMENT_LEXEMIZER@@QEAAXE@Z" ; ulib.dll
"?SetOcts@COMM_DEVICE@@QEAAEE@Z" ; ulib.dll
"?SetOdsr@COMM_DEVICE@@QEAAEE@Z" ; ulib.dll
"?SetOemConversions@WSTRING@@SAXXZ" ; ulib.dll
"?SetOutputCodePage@SCREEN@@QEAAEK@Z" ; ulib.dll
"?SetParity@COMM_DEVICE@@QEAAEW4PARITY@@@Z" ; ulib.dll
"?SetRtsControl@COMM_DEVICE@@QEAAEW4RTS_CONTROL@@@Z" ; ulib.dll
"?SetSize@BITVECTOR@@QEAAKKW4BIT@@@Z" ; ulib.dll
"?SetStopBits@COMM_DEVICE@@QEAAEW4STOPBITS@@@Z" ; ulib.dll
"?SetTimeInfo@FSN_FILTER@@QEAAEPEBVTIMEINFO@@W4FSN_TIME@@G@Z" ; ulib.dll
"?SetTimeOut@COMM_DEVICE@@QEAAEE@Z" ; ulib.dll
"?SetXon@COMM_DEVICE@@QEAAEE@Z" ; ulib.dll
"?SkipWhite@WSTRING@@SAPEAGPEAG@Z" ; ulib.dll
"?Sort@STRING_ARRAY@@UEAAEE@Z" ; ulib.dll
"?Strcat@WSTRING@@QEAAEPEBV1@@Z" ; ulib.dll
"?Strchr@BSTRING@@QEBAKDK@Z" ; ulib.dll
"?Strchr@WSTRING@@QEBAKGK@Z" ; ulib.dll
"?Strcmp@WSTRING@@QEBAJPEBV1@@Z" ; ulib.dll
"?Strcmp@WSTRING@@QEBAJPEBV1@K@Z" ; ulib.dll
"?Strcmp@WSTRING@@QEBAJPEBV1@KKKK@Z" ; ulib.dll
"?Strcmp@WSTRING@@SAHPEAG0@Z" ; ulib.dll
"?Strcmpis@MBSTR@@SAHPEAD0@Z" ; ulib.dll
"?Strcmpis@WSTRING@@SAHPEAG0@Z" ; ulib.dll
"?Strcmps@MBSTR@@SAHPEAD0@Z" ; ulib.dll
"?Strcmps@WSTRING@@SAHPEAG0@Z" ; ulib.dll
"?Strcspn@WSTRING@@QEBAKPEBV1@K@Z" ; ulib.dll
"?Stricmp@MBSTR@@SAHPEAD0@Z" ; ulib.dll
"?Stricmp@WSTRING@@QEBAJPEBV1@@Z" ; ulib.dll
"?Stricmp@WSTRING@@QEBAJPEBV1@K@Z" ; ulib.dll
"?Stricmp@WSTRING@@QEBAJPEBV1@KKKK@Z" ; ulib.dll
"?Stricmp@WSTRING@@SAHPEAG0@Z" ; ulib.dll
"?Strlwr@WSTRING@@QEAAPEAV1@KK@Z" ; ulib.dll
"?Strlwr@WSTRING@@QEAAPEAV1@XZ" ; ulib.dll
"?Strrchr@WSTRING@@QEBAKGK@Z" ; ulib.dll
"?Strspn@WSTRING@@QEBAKPEBV1@K@Z" ; ulib.dll
"?Strstr@MBSTR@@SAPEADPEAD0@Z" ; ulib.dll
"?Strstr@WSTRING@@QEBAKPEBV1@@Z" ; ulib.dll
"?Strupr@WSTRING@@QEAAPEAV1@KK@Z" ; ulib.dll
"?Strupr@WSTRING@@QEAAPEAV1@XZ" ; ulib.dll
"?SyncLength@WSTRING@@QEAAKXZ" ; ulib.dll
"?Traverse@FSN_DIRECTORY@@QEBAEPEAXPEAVFSN_FILTER@@PEAVPATH@@P6AE0PEAVFSNODE@@2@Z@Z" ; ulib.dll
"?Truncate@WSTRING@@QEAAKK@Z" ; ulib.dll
"?TruncateBase@PATH@@QEAAEXZ" ; ulib.dll
"?TruncateDelimiter@PATH@@QEAAXXZ" ; ulib.dll
"?TruncateNameAtColon@PATH@@QEAAXXZ" ; ulib.dll
"?UlibRealloc@@YAPEAXPEAXK@Z" ; ulib.dll
"?Unlock@MESSAGE@@QEAAXXZ" ; ulib.dll
"?Usage@PROGRAM@@UEBAXXZ" ; ulib.dll
"?UseAlternateName@FSNODE@@QEAAEXZ" ; ulib.dll
"?ValidateVersion@PROGRAM@@UEBAXKK@Z" ; ulib.dll
"?WaitForUserSignal@MESSAGE@@UEAAEXZ" ; ulib.dll
"?WriteByte@STREAM@@QEAAEE@Z" ; ulib.dll
"?_UseAnsiConversions@WSTRING@@0EA" ; ulib.dll
"?_UseAnsiConversionsPrev@WSTRING@@0EA" ; ulib.dll
"?_UseConsoleConversions@WSTRING@@0EA" ; ulib.dll
"?_UseConsoleConversionsPrev@WSTRING@@0EA" ; ulib.dll
