LIBRARY "untfs.dll"
EXPORTS
"??0NTFS_ATTRIBUTE@@QEAA@XZ" ; untfs.dll
"??0NTFS_ATTRIBUTE_DEFINITION_TABLE@@QEAA@XZ" ; untfs.dll
"??0NTFS_ATTRIBUTE_LIST@@QEAA@XZ" ; untfs.dll
"??0NTFS_ATTRIBUTE_RECORD@@QEAA@XZ" ; untfs.dll
"??0NTFS_BAD_CLUSTER_FILE@@QEAA@XZ" ; untfs.dll
"??0NTFS_BITMAP@@QEAA@XZ" ; untfs.dll
"??0NTFS_BITMAP_FILE@@QEAA@XZ" ; untfs.dll
"??0NTFS_BOOT_FILE@@QEAA@XZ" ; untfs.dll
"??0NTFS_CLUSTER_RUN@@QEAA@XZ" ; untfs.dll
"??0NTFS_EXTENT_LIST@@QEAA@XZ" ; untfs.dll
"??0NTFS_FILE_RECORD_SEGMENT@@QEAA@XZ" ; untfs.dll
"??0NTFS_FRS_STRUCTURE@@QEAA@XZ" ; untfs.dll
"??0NTFS_INDEX_TREE@@QEAA@XZ" ; untfs.dll
"??0NTFS_LOG_FILE@@QEAA@XZ" ; untfs.dll
"??0NTFS_MFT_FILE@@QEAA@XZ" ; untfs.dll
"??0NTFS_MFT_INFO@@QEAA@XZ" ; untfs.dll
"??0NTFS_REFLECTED_MASTER_FILE_TABLE@@QEAA@XZ" ; untfs.dll
"??0NTFS_SA@@QEAA@XZ" ; untfs.dll
"??0NTFS_UPCASE_FILE@@QEAA@XZ" ; untfs.dll
"??0NTFS_UPCASE_TABLE@@QEAA@XZ" ; untfs.dll
"??0RA_PROCESS_FILE@@QEAA@XZ" ; untfs.dll
"??0RA_PROCESS_SD@@QEAA@XZ" ; untfs.dll
"??1NTFS_ATTRIBUTE@@UEAA@XZ" ; untfs.dll
"??1NTFS_ATTRIBUTE_DEFINITION_TABLE@@UEAA@XZ" ; untfs.dll
"??1NTFS_ATTRIBUTE_LIST@@UEAA@XZ" ; untfs.dll
"??1NTFS_ATTRIBUTE_RECORD@@UEAA@XZ" ; untfs.dll
"??1NTFS_BAD_CLUSTER_FILE@@UEAA@XZ" ; untfs.dll
"??1NTFS_BITMAP@@UEAA@XZ" ; untfs.dll
"??1NTFS_BITMAP_FILE@@UEAA@XZ" ; untfs.dll
"??1NTFS_BOOT_FILE@@UEAA@XZ" ; untfs.dll
"??1NTFS_CLUSTER_RUN@@UEAA@XZ" ; untfs.dll
"??1NTFS_EXTENT_LIST@@UEAA@XZ" ; untfs.dll
"??1NTFS_FILE_RECORD_SEGMENT@@UEAA@XZ" ; untfs.dll
"??1NTFS_FRS_STRUCTURE@@UEAA@XZ" ; untfs.dll
"??1NTFS_INDEX_TREE@@UEAA@XZ" ; untfs.dll
"??1NTFS_LOG_FILE@@UEAA@XZ" ; untfs.dll
"??1NTFS_MFT_FILE@@UEAA@XZ" ; untfs.dll
"??1NTFS_MFT_INFO@@UEAA@XZ" ; untfs.dll
"??1NTFS_REFLECTED_MASTER_FILE_TABLE@@UEAA@XZ" ; untfs.dll
"??1NTFS_SA@@UEAA@XZ" ; untfs.dll
"??1NTFS_UPCASE_FILE@@UEAA@XZ" ; untfs.dll
"??1NTFS_UPCASE_TABLE@@UEAA@XZ" ; untfs.dll
"??1RA_PROCESS_FILE@@UEAA@XZ" ; untfs.dll
"??1RA_PROCESS_SD@@UEAA@XZ" ; untfs.dll
"?AddExtent@NTFS_EXTENT_LIST@@QEAAEVBIG_INT@@00@Z" ; untfs.dll
"?AddFileNameAttribute@NTFS_FILE_RECORD_SEGMENT@@QEAAEPEAU_FILE_NAME@@@Z" ; untfs.dll
"?AddSecurityDescriptor@NTFS_FILE_RECORD_SEGMENT@@QEAAEW4_CANNED_SECURITY_TYPE@@PEAVNTFS_BITMAP@@@Z" ; untfs.dll
"?AddSecurityDescriptorData@NTFS_FILE_RECORD_SEGMENT@@QEAAEPEAVNTFS_ATTRIBUTE@@PEAXPEAPEAU_SECURITY_ENTRY@@KW4_CANNED_SECURITY_TYPE@@PEAVNTFS_BITMAP@@E@Z" ; untfs.dll
"?AllocateFileRecordSegment@NTFS_MASTER_FILE_TABLE@@QEAAEPEAVBIG_INT@@E@Z" ; untfs.dll
"?CompareDupInfo@NTFS_MFT_INFO@@SAEPEAXPEAU_FILE_NAME@@@Z" ; untfs.dll
"?CompareFileName@NTFS_MFT_INFO@@SAEPEAXKPEAU_FILE_NAME@@PEAG@Z" ; untfs.dll
"?ComputeDupInfoSignature@NTFS_MFT_INFO@@CAXPEAU_DUPLICATED_INFORMATION@@QEAE@Z" ; untfs.dll
"?ComputeFileNameSignature@NTFS_MFT_INFO@@CAXKPEAU_FILE_NAME@@QEAE@Z" ; untfs.dll
"?CopyIterator@NTFS_INDEX_TREE@@QEAAEPEAV1@@Z" ; untfs.dll
"?Create@NTFS_FILE_RECORD_SEGMENT@@QEAAEPEBU_STANDARD_INFORMATION@@G@Z" ; untfs.dll
"?CreateDataAttribute@NTFS_LOG_FILE@@QEAAEVBIG_INT@@KPEAVNTFS_BITMAP@@@Z" ; untfs.dll
"?CreateElementaryStructures@NTFS_SA@@QEAAEPEAVNTFS_BITMAP@@KKKKPEBVNUMBER_SET@@EEPEAVMESSAGE@@PEAUBIOS_PARAMETER_BLOCK@@PEBVWSTRING@@@Z" ; untfs.dll
"?Extend@NTFS_MASTER_FILE_TABLE@@QEAAEK@Z" ; untfs.dll
"?Flush@NTFS_FILE_RECORD_SEGMENT@@QEAAEPEAVNTFS_BITMAP@@PEAVNTFS_INDEX_TREE@@E@Z" ; untfs.dll
"?Flush@NTFS_MFT_FILE@@QEAAEXZ" ; untfs.dll
"?GetNext@NTFS_INDEX_TREE@@QEAAPEBU_INDEX_ENTRY@@PEAKPEAEE@Z" ; untfs.dll
"?GetNextAttributeListEntry@NTFS_ATTRIBUTE_LIST@@QEBAPEBU_ATTRIBUTE_LIST_ENTRY@@PEBU2@@Z" ; untfs.dll
"?GetNextAttributeRecord@NTFS_FRS_STRUCTURE@@QEAAPEAXPEBXPEAVMESSAGE@@PEAE@Z" ; untfs.dll
"?Initialize@NTFS_ATTRIBUTE@@QEAAEPEAVLOG_IO_DP_DRIVE@@KPEBVNTFS_EXTENT_LIST@@VBIG_INT@@2KPEBVWSTRING@@G@Z" ; untfs.dll
"?Initialize@NTFS_ATTRIBUTE@@QEAAEPEAVLOG_IO_DP_DRIVE@@KPEBXKKPEBVWSTRING@@G@Z" ; untfs.dll
"?Initialize@NTFS_ATTRIBUTE_DEFINITION_TABLE@@QEAAEPEAVNTFS_MASTER_FILE_TABLE@@E@Z" ; untfs.dll
"?Initialize@NTFS_ATTRIBUTE_RECORD@@QEAAEPEAVIO_DP_DRIVE@@PEAX@Z" ; untfs.dll
"?Initialize@NTFS_BAD_CLUSTER_FILE@@QEAAEPEAVNTFS_MASTER_FILE_TABLE@@@Z" ; untfs.dll
"?Initialize@NTFS_BITMAP@@QEAAEVBIG_INT@@EPEAVLOG_IO_DP_DRIVE@@K@Z" ; untfs.dll
"?Initialize@NTFS_BITMAP_FILE@@QEAAEPEAVNTFS_MASTER_FILE_TABLE@@@Z" ; untfs.dll
"?Initialize@NTFS_BOOT_FILE@@QEAAEPEAVNTFS_MASTER_FILE_TABLE@@@Z" ; untfs.dll
"?Initialize@NTFS_CLUSTER_RUN@@QEAAEPEAVMEM@@PEAVLOG_IO_DP_DRIVE@@VBIG_INT@@KK@Z" ; untfs.dll
"?Initialize@NTFS_EXTENT_LIST@@QEAAEVBIG_INT@@0@Z" ; untfs.dll
"?Initialize@NTFS_FILE_RECORD_SEGMENT@@QEAAEVBIG_INT@@KPEAVNTFS_MASTER_FILE_TABLE@@@Z" ; untfs.dll
"?Initialize@NTFS_FILE_RECORD_SEGMENT@@QEAAEVBIG_INT@@PEAVNTFS_MASTER_FILE_TABLE@@@Z" ; untfs.dll
"?Initialize@NTFS_FILE_RECORD_SEGMENT@@QEAAEVBIG_INT@@PEAVNTFS_MFT_FILE@@@Z" ; untfs.dll
"?Initialize@NTFS_FILE_RECORD_SEGMENT@@QEAAEXZ" ; untfs.dll
"?Initialize@NTFS_FRS_STRUCTURE@@QEAAEPEAVMEM@@PEAVLOG_IO_DP_DRIVE@@VBIG_INT@@K2KPEAVNTFS_UPCASE_TABLE@@K@Z" ; untfs.dll
"?Initialize@NTFS_FRS_STRUCTURE@@QEAAEPEAVMEM@@PEAVNTFS_ATTRIBUTE@@VBIG_INT@@K2KPEAVNTFS_UPCASE_TABLE@@@Z" ; untfs.dll
"?Initialize@NTFS_FRS_STRUCTURE@@QEAAEPEAVMEM@@PEAVNTFS_ATTRIBUTE@@VBIG_INT@@KK2KPEAVNTFS_UPCASE_TABLE@@@Z" ; untfs.dll
"?Initialize@NTFS_INDEX_TREE@@QEAAEKPEAVLOG_IO_DP_DRIVE@@KPEAVNTFS_BITMAP@@PEAVNTFS_UPCASE_TABLE@@KKKPEBVWSTRING@@@Z" ; untfs.dll
"?Initialize@NTFS_INDEX_TREE@@QEAAEPEAVLOG_IO_DP_DRIVE@@KPEAVNTFS_BITMAP@@PEAVNTFS_UPCASE_TABLE@@KPEAVNTFS_FILE_RECORD_SEGMENT@@PEBVWSTRING@@@Z" ; untfs.dll
"?Initialize@NTFS_LOG_FILE@@QEAAEPEAVNTFS_MASTER_FILE_TABLE@@@Z" ; untfs.dll
"?Initialize@NTFS_MFT_FILE@@QEAAEPEAVLOG_IO_DP_DRIVE@@VBIG_INT@@KK1PEAVNTFS_BITMAP@@PEAVNTFS_UPCASE_TABLE@@@Z" ; untfs.dll
"?Initialize@NTFS_MFT_INFO@@QEAAEVBIG_INT@@PEAVNTFS_UPCASE_TABLE@@EE_K@Z" ; untfs.dll
"?Initialize@NTFS_MFT_INFO@@QEAAEXZ" ; untfs.dll
"?Initialize@NTFS_REFLECTED_MASTER_FILE_TABLE@@QEAAEPEAVNTFS_MASTER_FILE_TABLE@@@Z" ; untfs.dll
"?Initialize@NTFS_SA@@QEAAEPEAVLOG_IO_DP_DRIVE@@PEAVMESSAGE@@VBIG_INT@@2@Z" ; untfs.dll
"?Initialize@NTFS_UPCASE_FILE@@QEAAEPEAVNTFS_MASTER_FILE_TABLE@@@Z" ; untfs.dll
"?Initialize@NTFS_UPCASE_TABLE@@QEAAEPEAVNTFS_ATTRIBUTE@@@Z" ; untfs.dll
"?Initialize@RA_PROCESS_FILE@@SAEPEAVNTFS_SA@@VBIG_INT@@PEAV3@PEAKPEAVNTFS_FRS_STRUCTURE@@4PEAVHMEM@@5PEAX6PEAVNTFS_ATTRIBUTE@@PEAVNTFS_UPCASE_TABLE@@@Z" ; untfs.dll
"?Initialize@RA_PROCESS_SD@@SAEPEAVNTFS_SA@@VBIG_INT@@PEAV3@PEAKPEAVNTFS_FILE_RECORD_SEGMENT@@4PEAX5PEAVNTFS_MASTER_FILE_TABLE@@@Z" ; untfs.dll
"?InsertEntry@NTFS_INDEX_TREE@@QEAAEKPEAXU_MFT_SEGMENT_REFERENCE@@E@Z" ; untfs.dll
"?InsertIntoFile@NTFS_ATTRIBUTE@@UEAAEPEAVNTFS_FILE_RECORD_SEGMENT@@PEAVNTFS_BITMAP@@@Z" ; untfs.dll
"?IsAllocated@NTFS_BITMAP@@QEBAEVBIG_INT@@0@Z" ; untfs.dll
"?IsAttributePresent@NTFS_FILE_RECORD_SEGMENT@@QEAAEKPEBVWSTRING@@E@Z" ; untfs.dll
"?IsDosName@NTFS_SA@@SAEPEBU_FILE_NAME@@@Z" ; untfs.dll
"?IsFree@NTFS_BITMAP@@QEBAEVBIG_INT@@0@Z" ; untfs.dll
"?IsNtfsName@NTFS_SA@@SAEPEBU_FILE_NAME@@@Z" ; untfs.dll
"?MakeNonresident@NTFS_ATTRIBUTE@@UEAAEPEAVNTFS_BITMAP@@@Z" ; untfs.dll
"?NtfsUpcaseCompare@@YAJPEBGK0KPEBVNTFS_UPCASE_TABLE@@E@Z" ; untfs.dll
"?QueryAttribute@NTFS_FILE_RECORD_SEGMENT@@QEAAEPEAVNTFS_ATTRIBUTE@@PEAEKPEBVWSTRING@@@Z" ; untfs.dll
"?QueryAttributeByOrdinal@NTFS_FILE_RECORD_SEGMENT@@QEAAEPEAVNTFS_ATTRIBUTE@@PEAEKK@Z" ; untfs.dll
"?QueryAttributeList@NTFS_FRS_STRUCTURE@@QEAAEPEAVNTFS_ATTRIBUTE_LIST@@@Z" ; untfs.dll
"?QueryAttributeListAttribute@NTFS_FILE_RECORD_SEGMENT@@QEAAEPEAVNTFS_ATTRIBUTE@@PEAE@Z" ; untfs.dll
"?QueryClusterFactor@NTFS_SA@@QEBAEXZ" ; untfs.dll
"?QueryDefaultClustersPerIndexBuffer@NTFS_SA@@SAKPEBVDP_DRIVE@@K@Z" ; untfs.dll
"?QueryEntry@NTFS_INDEX_TREE@@QEAAEKPEAXKPEAPEAU_INDEX_ENTRY@@PEAPEAVNTFS_INDEX_BUFFER@@PEAE@Z" ; untfs.dll
"?QueryExtent@NTFS_EXTENT_LIST@@QEBAEKPEAVBIG_INT@@00@Z" ; untfs.dll
"?QueryExtentList@NTFS_ATTRIBUTE_RECORD@@QEBAEPEAVNTFS_EXTENT_LIST@@@Z" ; untfs.dll
"?QueryFileReference@NTFS_INDEX_TREE@@QEAAEKPEAXKPEAU_MFT_SEGMENT_REFERENCE@@PEAE@Z" ; untfs.dll
"?QueryFileSizes@NTFS_FILE_RECORD_SEGMENT@@QEAAEPEAVBIG_INT@@0PEAE@Z" ; untfs.dll
"?QueryFlags@NTFS_MFT_INFO@@SAEPEAXG@Z" ; untfs.dll
"?QueryFrsFromPath@NTFS_SA@@QEAAEPEBVWSTRING@@PEAVNTFS_MASTER_FILE_TABLE@@PEAVNTFS_BITMAP@@PEAVNTFS_FILE_RECORD_SEGMENT@@PEAE4@Z" ; untfs.dll
"?QueryLcnFromVcn@NTFS_EXTENT_LIST@@QEBAEVBIG_INT@@PEAV2@1@Z" ; untfs.dll
"?QueryName@NTFS_ATTRIBUTE_RECORD@@QEBAEPEAVWSTRING@@@Z" ; untfs.dll
"?QueryNextEntry@NTFS_ATTRIBUTE_LIST@@QEBAEPEAU_ATTR_LIST_CURR_ENTRY@@PEAKPEAVBIG_INT@@PEAU_MFT_SEGMENT_REFERENCE@@PEAGPEAVWSTRING@@@Z" ; untfs.dll
"?QueryNumberOfExtents@NTFS_EXTENT_LIST@@QEBAKXZ" ; untfs.dll
"?QuerySectorsInElementaryStructures@NTFS_SA@@SAKPEBVDP_DRIVE@@KKKK@Z" ; untfs.dll
"?QuerySegmentReference@NTFS_MFT_INFO@@SA?AU_MFT_SEGMENT_REFERENCE@@PEAX@Z" ; untfs.dll
"?QueryVolumeFlagsAndLabel@NTFS_SA@@QEAAGPEAE00PEAVWSTRING@@@Z" ; untfs.dll
"?Read@NTFS_ATTRIBUTE@@QEAAEPEAXVBIG_INT@@KPEAK@Z" ; untfs.dll
"?Read@NTFS_FRS_STRUCTURE@@UEAAEXZ" ; untfs.dll
"?Read@NTFS_MFT_FILE@@UEAAEXZ" ; untfs.dll
"?Read@NTFS_SA@@QEAAEPEAVMESSAGE@@@Z" ; untfs.dll
"?Read@NTFS_SA@@UEAAEXZ" ; untfs.dll
"?ReadAgain@NTFS_FRS_STRUCTURE@@QEAAEVBIG_INT@@@Z" ; untfs.dll
"?ReadList@NTFS_ATTRIBUTE_LIST@@QEAAEXZ" ; untfs.dll
"?ReadNext@NTFS_FRS_STRUCTURE@@QEAAEVBIG_INT@@@Z" ; untfs.dll
"?ReadSet@NTFS_FRS_STRUCTURE@@QEAAEPEAVTLINK@@@Z" ; untfs.dll
"?Relocate@NTFS_CLUSTER_RUN@@QEAAXVBIG_INT@@@Z" ; untfs.dll
"?ResetIterator@NTFS_INDEX_TREE@@QEAAXXZ" ; untfs.dll
"?Resize@NTFS_ATTRIBUTE@@UEAAEVBIG_INT@@PEAVNTFS_BITMAP@@@Z" ; untfs.dll
"?SafeQueryAttribute@NTFS_FRS_STRUCTURE@@QEAAEKPEAVNTFS_ATTRIBUTE@@0@Z" ; untfs.dll
"?Save@NTFS_INDEX_TREE@@QEAAEPEAVNTFS_FILE_RECORD_SEGMENT@@@Z" ; untfs.dll
"?SetSparse@NTFS_ATTRIBUTE@@UEAAEVBIG_INT@@PEAVNTFS_BITMAP@@@Z" ; untfs.dll
"?SetVolumeFlag@NTFS_SA@@QEAAEGPEAE@Z" ; untfs.dll
"?TakeCensus@NTFS_SA@@QEAAEPEAVNTFS_MASTER_FILE_TABLE@@KPEAUNTFS_CENSUS_INFO@@@Z" ; untfs.dll
"?Write@NTFS_ATTRIBUTE@@UEAAEPEBXVBIG_INT@@KPEAKPEAVNTFS_BITMAP@@@Z" ; untfs.dll
"?Write@NTFS_BITMAP@@QEAAEPEAVNTFS_ATTRIBUTE@@PEAV1@@Z" ; untfs.dll
"?Write@NTFS_FILE_RECORD_SEGMENT@@UEAAEXZ" ; untfs.dll
"?Write@NTFS_FRS_STRUCTURE@@QEAAEXZ" ; untfs.dll
"?WriteRemainingBootCode@NTFS_SA@@QEAAEXZ" ; untfs.dll
"Chkdsk" ; untfs.dll
"ChkdskEx" ; untfs.dll
"Extend" ; untfs.dll
"Format" ; untfs.dll
"FormatEx" ; untfs.dll
"Recover" ; untfs.dll
