LIBRARY "ureg.dll"
EXPORTS
"??0REGISTRY@@QEAA@XZ" ; ureg.dll
"??0REGISTRY_KEY_INFO@@QEAA@XZ" ; ureg.dll
"??0REGISTRY_VALUE_ENTRY@@QEAA@XZ" ; ureg.dll
"??1REGISTRY@@UEAA@XZ" ; ureg.dll
"?AddValueEntry@REGISTRY@@QEAAEW4_PREDEFINED_KEY@@PEAVREGISTRY_KEY_INFO@@PEBVREGISTRY_VALUE_ENTRY@@EPEAK@Z" ; ureg.dll
"?CreateKey@REGISTRY@@QEAAEW4_PREDEFINED_KEY@@PEAVREGISTRY_KEY_INFO@@1PEAKE@Z" ; ureg.dll
"?DeleteKey@REGISTRY@@QEAAEW4_PREDEFINED_KEY@@PEAVREGISTRY_KEY_INFO@@PEBVWSTRING@@PEAK@Z" ; ureg.dll
"?DeleteValueEntry@REGISTRY@@QEAAEW4_PREDEFINED_KEY@@PEAVREGISTRY_KEY_INFO@@PEBVWSTRING@@PEAK@Z" ; ureg.dll
"?DoesKeyExist@REGISTRY@@QEAAEW4_PREDEFINED_KEY@@PEBVWSTRING@@1PEAK@Z" ; ureg.dll
"?DoesValueExist@REGISTRY@@QEAAEW4_PREDEFINED_KEY@@PEBVWSTRING@@11PEAK@Z" ; ureg.dll
"?EnableRootNotification@REGISTRY@@QEAAEW4_PREDEFINED_KEY@@PEAXKE@Z" ; ureg.dll
"?Initialize@REGISTRY@@QEAAEPEBVWSTRING@@PEAK@Z" ; ureg.dll
"?Initialize@REGISTRY_KEY_INFO@@QEAAEPEBVWSTRING@@0K0PEAU_SECURITY_ATTRIBUTES@@@Z" ; ureg.dll
"?Initialize@REGISTRY_VALUE_ENTRY@@QEAAEPEBVWSTRING@@KW4_REG_TYPE@@PEBEK@Z" ; ureg.dll
"?IsAccessAllowed@REGISTRY@@QEAAEW4_PREDEFINED_KEY@@PEAVREGISTRY_KEY_INFO@@KPEAK@Z" ; ureg.dll
"?LoadHive@REGISTRY@@QEAAEW4_PREDEFINED_KEY@@PEAVREGISTRY_KEY_INFO@@PEBVWSTRING@@PEAK@Z" ; ureg.dll
"?QueryKeyInfo@REGISTRY@@QEAAEW4_PREDEFINED_KEY@@PEBVWSTRING@@1PEAVREGISTRY_KEY_INFO@@PEAK@Z" ; ureg.dll
"?QueryKeySecurity@REGISTRY@@QEAAEW4_PREDEFINED_KEY@@PEBVREGISTRY_KEY_INFO@@KPEAPEAXPEAK@Z" ; ureg.dll
"?QuerySubKeysInfo@REGISTRY@@QEAAEW4_PREDEFINED_KEY@@PEBVWSTRING@@1PEAVARRAY@@PEAK@Z" ; ureg.dll
"?QueryValues@REGISTRY@@QEAAEW4_PREDEFINED_KEY@@PEBVWSTRING@@1PEAVARRAY@@PEAK@Z" ; ureg.dll
"?RestoreKeyFromFile@REGISTRY@@QEAAEW4_PREDEFINED_KEY@@PEAVREGISTRY_KEY_INFO@@PEBVWSTRING@@EPEAK@Z" ; ureg.dll
"?SaveKeyToFile@REGISTRY@@QEAAEW4_PREDEFINED_KEY@@PEAVREGISTRY_KEY_INFO@@PEBVWSTRING@@PEAK@Z" ; ureg.dll
"?SetKeySecurity@REGISTRY@@QEAAEW4_PREDEFINED_KEY@@PEAVREGISTRY_KEY_INFO@@KPEAXPEAKE@Z" ; ureg.dll
"?UnLoadHive@REGISTRY@@QEAAEW4_PREDEFINED_KEY@@PEAVREGISTRY_KEY_INFO@@PEAK@Z" ; ureg.dll
"?UpdateKeyInfo@REGISTRY@@QEAAEW4_PREDEFINED_KEY@@PEAVREGISTRY_KEY_INFO@@PEAK@Z" ; ureg.dll
