LIBRARY "vds.exe"
EXPORTS
"??0?$CVdsCoTaskPtr@G@@QEAA@XZ" ; vds.exe
"??0?$CVdsCoTaskPtr@U_VDS_FILE_SYSTEM_TYPE_PROP@@@@QEAA@XZ" ; vds.exe
"??0?$CVdsHandleImpl@$0?0@@QEAA@XZ" ; vds.exe
"??0?$CVdsHandleImpl@$0A@@@QEAA@XZ" ; vds.exe
"??0?$CVdsHeapPtr@D@@QEAA@XZ" ; vds.exe
"??0?$CVdsHeapPtr@E@@QEAA@XZ" ; vds.exe
"??0?$CVdsHeapPtr@G@@QEAA@XZ" ; vds.exe
"??0?$CVdsHeapPtr@J@@QEAA@XZ" ; vds.exe
"??0?$CVdsHeapPtr@PEAG@@QEAA@XZ" ; vds.exe
"??0?$CVdsHeapPtr@PEAUIUnknown@@@@QEAA@XZ" ; vds.exe
"??0?$CVdsHeapPtr@U_AUCTION_THREAD_PARAMETER@@@@QEAA@XZ" ; vds.exe
"??0?$CVdsHeapPtr@U_CLEAN_DISK_HANDLER_PARAMETER@@@@QEAA@XZ" ; vds.exe
"??0?$CVdsHeapPtr@U_DRIVE_LAYOUT_INFORMATION_EX@@@@QEAA@XZ" ; vds.exe
"??0?$CVdsHeapPtr@U_EXTEND_VOLUME_HANDLER_PARAMETER@@@@QEAA@XZ" ; vds.exe
"??0?$CVdsHeapPtr@U_FORMAT_VOLUME_THREAD_PARAMETER@@@@QEAA@XZ" ; vds.exe
"??0?$CVdsHeapPtr@U_MOUNTMGR_MOUNT_POINT@@@@QEAA@XZ" ; vds.exe
"??0?$CVdsHeapPtr@U_MOUNTMGR_MOUNT_POINTS@@@@QEAA@XZ" ; vds.exe
"??0?$CVdsHeapPtr@U_VDS_DRIVE_LAYOUT_INFORMATION_EX@@@@QEAA@XZ" ; vds.exe
"??0?$CVdsPtr@D@@QEAA@XZ" ; vds.exe
"??0?$CVdsPtr@E@@QEAA@XZ" ; vds.exe
"??0?$CVdsPtr@G@@QEAA@XZ" ; vds.exe
"??0?$CVdsPtr@J@@QEAA@XZ" ; vds.exe
"??0?$CVdsPtr@PEAG@@QEAA@XZ" ; vds.exe
"??0?$CVdsPtr@PEAUIUnknown@@@@QEAA@XZ" ; vds.exe
"??0?$CVdsPtr@U_AUCTION_THREAD_PARAMETER@@@@QEAA@XZ" ; vds.exe
"??0?$CVdsPtr@U_CLEAN_DISK_HANDLER_PARAMETER@@@@QEAA@XZ" ; vds.exe
"??0?$CVdsPtr@U_DRIVE_LAYOUT_INFORMATION_EX@@@@QEAA@XZ" ; vds.exe
"??0?$CVdsPtr@U_EXTEND_VOLUME_HANDLER_PARAMETER@@@@QEAA@XZ" ; vds.exe
"??0?$CVdsPtr@U_FORMAT_VOLUME_THREAD_PARAMETER@@@@QEAA@XZ" ; vds.exe
"??0?$CVdsPtr@U_MOUNTMGR_MOUNT_POINT@@@@QEAA@XZ" ; vds.exe
"??0?$CVdsPtr@U_MOUNTMGR_MOUNT_POINTS@@@@QEAA@XZ" ; vds.exe
"??0?$CVdsPtr@U_VDS_DRIVE_LAYOUT_INFORMATION_EX@@@@QEAA@XZ" ; vds.exe
"??0?$CVdsPtr@U_VDS_FILE_SYSTEM_TYPE_PROP@@@@QEAA@XZ" ; vds.exe
"??0CPrvEnumObject@@QEAA@XZ" ; vds.exe
"??0CVdsCriticalSection@@QEAA@PEAU_RTL_CRITICAL_SECTION@@@Z" ; vds.exe
"??0CVdsPnPNotificationBase@@QEAA@XZ" ; vds.exe
"??0CVdsStructuredExceptionTranslator@@QEAA@XZ" ; vds.exe
"??0CVdsUnlockIt@@QEAA@AEAJ@Z" ; vds.exe
"??1?$CVdsCoTaskPtr@G@@QEAA@XZ" ; vds.exe
"??1?$CVdsCoTaskPtr@U_VDS_FILE_SYSTEM_TYPE_PROP@@@@QEAA@XZ" ; vds.exe
"??1?$CVdsHandleImpl@$0?0@@QEAA@XZ" ; vds.exe
"??1?$CVdsHandleImpl@$0A@@@QEAA@XZ" ; vds.exe
"??1?$CVdsHeapPtr@D@@QEAA@XZ" ; vds.exe
"??1?$CVdsHeapPtr@E@@QEAA@XZ" ; vds.exe
"??1?$CVdsHeapPtr@G@@QEAA@XZ" ; vds.exe
"??1?$CVdsHeapPtr@J@@QEAA@XZ" ; vds.exe
"??1?$CVdsHeapPtr@PEAG@@QEAA@XZ" ; vds.exe
"??1?$CVdsHeapPtr@PEAUIUnknown@@@@QEAA@XZ" ; vds.exe
"??1?$CVdsHeapPtr@U_AUCTION_THREAD_PARAMETER@@@@QEAA@XZ" ; vds.exe
"??1?$CVdsHeapPtr@U_CLEAN_DISK_HANDLER_PARAMETER@@@@QEAA@XZ" ; vds.exe
"??1?$CVdsHeapPtr@U_DRIVE_LAYOUT_INFORMATION_EX@@@@QEAA@XZ" ; vds.exe
"??1?$CVdsHeapPtr@U_EXTEND_VOLUME_HANDLER_PARAMETER@@@@QEAA@XZ" ; vds.exe
"??1?$CVdsHeapPtr@U_FORMAT_VOLUME_THREAD_PARAMETER@@@@QEAA@XZ" ; vds.exe
"??1?$CVdsHeapPtr@U_MOUNTMGR_MOUNT_POINT@@@@QEAA@XZ" ; vds.exe
"??1?$CVdsHeapPtr@U_MOUNTMGR_MOUNT_POINTS@@@@QEAA@XZ" ; vds.exe
"??1?$CVdsHeapPtr@U_VDS_DRIVE_LAYOUT_INFORMATION_EX@@@@QEAA@XZ" ; vds.exe
"??1?$CVdsPtr@D@@QEAA@XZ" ; vds.exe
"??1?$CVdsPtr@E@@QEAA@XZ" ; vds.exe
"??1?$CVdsPtr@G@@QEAA@XZ" ; vds.exe
"??1?$CVdsPtr@J@@QEAA@XZ" ; vds.exe
"??1?$CVdsPtr@PEAG@@QEAA@XZ" ; vds.exe
"??1?$CVdsPtr@PEAUIUnknown@@@@QEAA@XZ" ; vds.exe
"??1?$CVdsPtr@U_AUCTION_THREAD_PARAMETER@@@@QEAA@XZ" ; vds.exe
"??1?$CVdsPtr@U_CLEAN_DISK_HANDLER_PARAMETER@@@@QEAA@XZ" ; vds.exe
"??1?$CVdsPtr@U_DRIVE_LAYOUT_INFORMATION_EX@@@@QEAA@XZ" ; vds.exe
"??1?$CVdsPtr@U_EXTEND_VOLUME_HANDLER_PARAMETER@@@@QEAA@XZ" ; vds.exe
"??1?$CVdsPtr@U_FORMAT_VOLUME_THREAD_PARAMETER@@@@QEAA@XZ" ; vds.exe
"??1?$CVdsPtr@U_MOUNTMGR_MOUNT_POINT@@@@QEAA@XZ" ; vds.exe
"??1?$CVdsPtr@U_MOUNTMGR_MOUNT_POINTS@@@@QEAA@XZ" ; vds.exe
"??1?$CVdsPtr@U_VDS_DRIVE_LAYOUT_INFORMATION_EX@@@@QEAA@XZ" ; vds.exe
"??1?$CVdsPtr@U_VDS_FILE_SYSTEM_TYPE_PROP@@@@QEAA@XZ" ; vds.exe
"??1CPrvEnumObject@@QEAA@XZ" ; vds.exe
"??1CVdsCriticalSection@@QEAA@XZ" ; vds.exe
"??1CVdsDebugLog@@QEAA@XZ" ; vds.exe
"??1CVdsPnPNotificationBase@@QEAA@XZ" ; vds.exe
"??1CVdsStructuredExceptionTranslator@@QEAA@XZ" ; vds.exe
"??1CVdsUnlockIt@@QEAA@XZ" ; vds.exe
"??4?$CVdsCoTaskPtr@G@@QEAAPEAGPEAG@Z" ; vds.exe
"??4?$CVdsCoTaskPtr@U_VDS_FILE_SYSTEM_TYPE_PROP@@@@QEAAPEAU_VDS_FILE_SYSTEM_TYPE_PROP@@PEAU1@@Z" ; vds.exe
"??4?$CVdsHandleImpl@$0?0@@QEAAPEAXPEAX@Z" ; vds.exe
"??4?$CVdsHandleImpl@$0A@@@QEAAPEAXPEAX@Z" ; vds.exe
"??4?$CVdsHeapPtr@D@@QEAAPEADPEAD@Z" ; vds.exe
"??4?$CVdsHeapPtr@E@@QEAAPEAEPEAE@Z" ; vds.exe
"??4?$CVdsHeapPtr@G@@QEAAPEAGPEAG@Z" ; vds.exe
"??4?$CVdsHeapPtr@J@@QEAAPEAJPEAJ@Z" ; vds.exe
"??4?$CVdsHeapPtr@PEAG@@QEAAPEAPEAGPEAPEAG@Z" ; vds.exe
"??4?$CVdsHeapPtr@PEAUIUnknown@@@@QEAAPEAPEAUIUnknown@@PEAPEAU1@@Z" ; vds.exe
"??4?$CVdsHeapPtr@U_AUCTION_THREAD_PARAMETER@@@@QEAAPEAU_AUCTION_THREAD_PARAMETER@@PEAU1@@Z" ; vds.exe
"??4?$CVdsHeapPtr@U_FORMAT_VOLUME_THREAD_PARAMETER@@@@QEAAPEAU_FORMAT_VOLUME_THREAD_PARAMETER@@PEAU1@@Z" ; vds.exe
"??4?$CVdsHeapPtr@U_MOUNTMGR_MOUNT_POINT@@@@QEAAPEAU_MOUNTMGR_MOUNT_POINT@@PEAU1@@Z" ; vds.exe
"??4?$CVdsHeapPtr@U_MOUNTMGR_MOUNT_POINTS@@@@QEAAPEAU_MOUNTMGR_MOUNT_POINTS@@PEAU1@@Z" ; vds.exe
"??8?$CVdsHandleImpl@$0?0@@QEBA_NPEAX@Z" ; vds.exe
"??8?$CVdsHandleImpl@$0A@@@QEBA_NPEAX@Z" ; vds.exe
"??8?$CVdsPtr@D@@QEBA_NPEAD@Z" ; vds.exe
"??8?$CVdsPtr@E@@QEBA_NPEAE@Z" ; vds.exe
"??8?$CVdsPtr@G@@QEBA_NPEAG@Z" ; vds.exe
"??8?$CVdsPtr@J@@QEBA_NPEAJ@Z" ; vds.exe
"??8?$CVdsPtr@PEAG@@QEBA_NPEAPEAG@Z" ; vds.exe
"??8?$CVdsPtr@PEAUIUnknown@@@@QEBA_NPEAPEAUIUnknown@@@Z" ; vds.exe
"??8?$CVdsPtr@U_FORMAT_VOLUME_THREAD_PARAMETER@@@@QEBA_NPEAU_FORMAT_VOLUME_THREAD_PARAMETER@@@Z" ; vds.exe
"??8?$CVdsPtr@U_MOUNTMGR_MOUNT_POINT@@@@QEBA_NPEAU_MOUNTMGR_MOUNT_POINT@@@Z" ; vds.exe
"??8?$CVdsPtr@U_MOUNTMGR_MOUNT_POINTS@@@@QEBA_NPEAU_MOUNTMGR_MOUNT_POINTS@@@Z" ; vds.exe
"??8?$CVdsPtr@U_VDS_FILE_SYSTEM_TYPE_PROP@@@@QEBA_NPEAU_VDS_FILE_SYSTEM_TYPE_PROP@@@Z" ; vds.exe
"??9?$CVdsHandleImpl@$0?0@@QEBA_NPEAX@Z" ; vds.exe
"??9?$CVdsPtr@G@@QEBA_NPEAG@Z" ; vds.exe
"??9?$CVdsPtr@U_AUCTION_THREAD_PARAMETER@@@@QEBA_NPEAU_AUCTION_THREAD_PARAMETER@@@Z" ; vds.exe
"??9?$CVdsPtr@U_DRIVE_LAYOUT_INFORMATION_EX@@@@QEBA_NPEAU_DRIVE_LAYOUT_INFORMATION_EX@@@Z" ; vds.exe
"??A?$CVdsPtr@J@@QEAAAEAJJ@Z" ; vds.exe
"??A?$CVdsPtr@PEAG@@QEAAAEAPEAGH@Z" ; vds.exe
"??A?$CVdsPtr@PEAG@@QEAAAEAPEAGJ@Z" ; vds.exe
"??A?$CVdsPtr@PEAUIUnknown@@@@QEAAAEAPEAUIUnknown@@J@Z" ; vds.exe
"??A?$CVdsPtr@U_VDS_FILE_SYSTEM_TYPE_PROP@@@@QEAAAEAU_VDS_FILE_SYSTEM_TYPE_PROP@@H@Z" ; vds.exe
"??B?$CVdsHandleImpl@$0?0@@QEAAPEAXXZ" ; vds.exe
"??B?$CVdsHandleImpl@$0A@@@QEAAPEAXXZ" ; vds.exe
"??B?$CVdsPtr@E@@QEBAPEAEXZ" ; vds.exe
"??B?$CVdsPtr@G@@QEBAPEAGXZ" ; vds.exe
"??B?$CVdsPtr@J@@QEBAPEAJXZ" ; vds.exe
"??B?$CVdsPtr@PEAG@@QEBAPEAPEAGXZ" ; vds.exe
"??B?$CVdsPtr@U_AUCTION_THREAD_PARAMETER@@@@QEBAPEAU_AUCTION_THREAD_PARAMETER@@XZ" ; vds.exe
"??B?$CVdsPtr@U_CLEAN_DISK_HANDLER_PARAMETER@@@@QEBAPEAU_CLEAN_DISK_HANDLER_PARAMETER@@XZ" ; vds.exe
"??B?$CVdsPtr@U_FORMAT_VOLUME_THREAD_PARAMETER@@@@QEBAPEAU_FORMAT_VOLUME_THREAD_PARAMETER@@XZ" ; vds.exe
"??B?$CVdsPtr@U_MOUNTMGR_MOUNT_POINT@@@@QEBAPEAU_MOUNTMGR_MOUNT_POINT@@XZ" ; vds.exe
"??B?$CVdsPtr@U_MOUNTMGR_MOUNT_POINTS@@@@QEBAPEAU_MOUNTMGR_MOUNT_POINTS@@XZ" ; vds.exe
"??B?$CVdsPtr@U_VDS_DRIVE_LAYOUT_INFORMATION_EX@@@@QEBAPEAU_VDS_DRIVE_LAYOUT_INFORMATION_EX@@XZ" ; vds.exe
"??C?$CVdsPtr@U_AUCTION_THREAD_PARAMETER@@@@QEBAPEAU_AUCTION_THREAD_PARAMETER@@XZ" ; vds.exe
"??C?$CVdsPtr@U_CLEAN_DISK_HANDLER_PARAMETER@@@@QEBAPEAU_CLEAN_DISK_HANDLER_PARAMETER@@XZ" ; vds.exe
"??C?$CVdsPtr@U_DRIVE_LAYOUT_INFORMATION_EX@@@@QEBAPEAU_DRIVE_LAYOUT_INFORMATION_EX@@XZ" ; vds.exe
"??C?$CVdsPtr@U_EXTEND_VOLUME_HANDLER_PARAMETER@@@@QEBAPEAU_EXTEND_VOLUME_HANDLER_PARAMETER@@XZ" ; vds.exe
"??C?$CVdsPtr@U_FORMAT_VOLUME_THREAD_PARAMETER@@@@QEBAPEAU_FORMAT_VOLUME_THREAD_PARAMETER@@XZ" ; vds.exe
"??C?$CVdsPtr@U_MOUNTMGR_MOUNT_POINT@@@@QEBAPEAU_MOUNTMGR_MOUNT_POINT@@XZ" ; vds.exe
"??C?$CVdsPtr@U_MOUNTMGR_MOUNT_POINTS@@@@QEBAPEAU_MOUNTMGR_MOUNT_POINTS@@XZ" ; vds.exe
"??C?$CVdsPtr@U_VDS_DRIVE_LAYOUT_INFORMATION_EX@@@@QEBAPEAU_VDS_DRIVE_LAYOUT_INFORMATION_EX@@XZ" ; vds.exe
"??I?$CVdsHandleImpl@$0?0@@QEAAPEAPEAXXZ" ; vds.exe
"??I?$CVdsPtr@U_DRIVE_LAYOUT_INFORMATION_EX@@@@QEAAPEAPEAU_DRIVE_LAYOUT_INFORMATION_EX@@XZ" ; vds.exe
"??I?$CVdsPtr@U_VDS_DRIVE_LAYOUT_INFORMATION_EX@@@@QEAAPEAPEAU_VDS_DRIVE_LAYOUT_INFORMATION_EX@@XZ" ; vds.exe
"?AllowCancel@CVdsAsyncObjectBase@@QEAAXXZ" ; vds.exe
"?Attach@?$CVdsPtr@G@@QEAAXPEAG@Z" ; vds.exe
"?Attach@?$CVdsPtr@U_CLEAN_DISK_HANDLER_PARAMETER@@@@QEAAXPEAU_CLEAN_DISK_HANDLER_PARAMETER@@@Z" ; vds.exe
"?Attach@?$CVdsPtr@U_DRIVE_LAYOUT_INFORMATION_EX@@@@QEAAXPEAU_DRIVE_LAYOUT_INFORMATION_EX@@@Z" ; vds.exe
"?Attach@?$CVdsPtr@U_EXTEND_VOLUME_HANDLER_PARAMETER@@@@QEAAXPEAU_EXTEND_VOLUME_HANDLER_PARAMETER@@@Z" ; vds.exe
"?Attach@?$CVdsPtr@U_FORMAT_VOLUME_THREAD_PARAMETER@@@@QEAAXPEAU_FORMAT_VOLUME_THREAD_PARAMETER@@@Z" ; vds.exe
"?Close@?$CVdsHandleImpl@$0?0@@QEAAXXZ" ; vds.exe
"?Detach@?$CVdsHandleImpl@$0?0@@QEAAPEAXXZ" ; vds.exe
"?Detach@?$CVdsHandleImpl@$0A@@@QEAAPEAXXZ" ; vds.exe
"?Detach@?$CVdsPtr@G@@QEAAPEAGXZ" ; vds.exe
"?Detach@?$CVdsPtr@U_AUCTION_THREAD_PARAMETER@@@@QEAAPEAU_AUCTION_THREAD_PARAMETER@@XZ" ; vds.exe
"?Detach@?$CVdsPtr@U_CLEAN_DISK_HANDLER_PARAMETER@@@@QEAAPEAU_CLEAN_DISK_HANDLER_PARAMETER@@XZ" ; vds.exe
"?Detach@?$CVdsPtr@U_DRIVE_LAYOUT_INFORMATION_EX@@@@QEAAPEAU_DRIVE_LAYOUT_INFORMATION_EX@@XZ" ; vds.exe
"?Detach@?$CVdsPtr@U_FORMAT_VOLUME_THREAD_PARAMETER@@@@QEAAPEAU_FORMAT_VOLUME_THREAD_PARAMETER@@XZ" ; vds.exe
"?Detach@?$CVdsPtr@U_VDS_FILE_SYSTEM_TYPE_PROP@@@@QEAAPEAU_VDS_FILE_SYSTEM_TYPE_PROP@@XZ" ; vds.exe
"?DisallowCancel@CVdsAsyncObjectBase@@QEAAXXZ" ; vds.exe
"?GetOutputType@CVdsAsyncObjectBase@@QEAA?AW4__MIDL___MIDL_itf_vdscmlyr_0000_0002@@XZ" ; vds.exe
"?IsCancelRequested@CVdsAsyncObjectBase@@QEAAHXZ" ; vds.exe
"?SetOutputType@CVdsAsyncObjectBase@@QEAAXW4__MIDL___MIDL_itf_vdscmlyr_0000_0002@@@Z" ; vds.exe
"?SetPositionToLast@CPrvEnumObject@@QEAAXXZ" ; vds.exe
"?TracingLogEnabled@CVdsDebugLog@@QEAAHXZ" ; vds.exe
"?ZeroAsyncOut@CVdsAsyncObjectBase@@QEAAXXZ" ; vds.exe
