LIBRARY "vdsbas.dll"
EXPORTS
"??0?$CVdsHandleImpl@$0?0@@QEAA@XZ" ; vdsbas.dll
"??0?$CVdsHandleImpl@$0A@@@QEAA@XZ" ; vdsbas.dll
"??0?$CVdsHeapPtr@D@@QEAA@XZ" ; vdsbas.dll
"??0?$CVdsHeapPtr@E@@QEAA@XZ" ; vdsbas.dll
"??0?$CVdsHeapPtr@G@@QEAA@XZ" ; vdsbas.dll
"??0?$CVdsHeapPtr@U_AUCTION_THREAD_PARAMETER@@@@QEAA@XZ" ; vdsbas.dll
"??0?$CVdsHeapPtr@U_BOOT_ENTRY@@@@QEAA@XZ" ; vdsbas.dll
"??0?$CVdsHeapPtr@U_DRIVE_LAYOUT_INFORMATION_EX@@@@QEAA@XZ" ; vdsbas.dll
"??0?$CVdsHeapPtr@U_FILE_PATH@@@@QEAA@XZ" ; vdsbas.dll
"??0?$CVdsHeapPtr@U_SP_DEVICE_INTERFACE_DETAIL_DATA_W@@@@QEAA@XZ" ; vdsbas.dll
"??0?$CVdsHeapPtr@U_VDS_DRIVE_LAYOUT_INFORMATION_EX@@@@QEAA@XZ" ; vdsbas.dll
"??0?$CVdsHeapPtr@U_VOLMGR_HIDDEN_VOLUMES@@@@QEAA@XZ" ; vdsbas.dll
"??0?$CVdsPtr@D@@QEAA@XZ" ; vdsbas.dll
"??0?$CVdsPtr@E@@QEAA@XZ" ; vdsbas.dll
"??0?$CVdsPtr@G@@QEAA@XZ" ; vdsbas.dll
"??0?$CVdsPtr@U_AUCTION_THREAD_PARAMETER@@@@QEAA@XZ" ; vdsbas.dll
"??0?$CVdsPtr@U_BOOT_ENTRY@@@@QEAA@XZ" ; vdsbas.dll
"??0?$CVdsPtr@U_DRIVE_LAYOUT_INFORMATION_EX@@@@QEAA@XZ" ; vdsbas.dll
"??0?$CVdsPtr@U_FILE_PATH@@@@QEAA@XZ" ; vdsbas.dll
"??0?$CVdsPtr@U_SP_DEVICE_INTERFACE_DETAIL_DATA_W@@@@QEAA@XZ" ; vdsbas.dll
"??0?$CVdsPtr@U_VDS_DRIVE_LAYOUT_INFORMATION_EX@@@@QEAA@XZ" ; vdsbas.dll
"??0?$CVdsPtr@U_VOLMGR_HIDDEN_VOLUMES@@@@QEAA@XZ" ; vdsbas.dll
"??0CPrvEnumObject@@QEAA@XZ" ; vdsbas.dll
"??0CVdsCriticalSection@@QEAA@PEAU_RTL_CRITICAL_SECTION@@@Z" ; vdsbas.dll
"??0CVdsPnPNotificationBase@@QEAA@XZ" ; vdsbas.dll
"??0CVdsStructuredExceptionTranslator@@QEAA@XZ" ; vdsbas.dll
"??0CVdsUnlockIt@@QEAA@AEAJ@Z" ; vdsbas.dll
"??1?$CVdsHandleImpl@$0?0@@QEAA@XZ" ; vdsbas.dll
"??1?$CVdsHandleImpl@$0A@@@QEAA@XZ" ; vdsbas.dll
"??1?$CVdsHeapPtr@D@@QEAA@XZ" ; vdsbas.dll
"??1?$CVdsHeapPtr@E@@QEAA@XZ" ; vdsbas.dll
"??1?$CVdsHeapPtr@G@@QEAA@XZ" ; vdsbas.dll
"??1?$CVdsHeapPtr@U_AUCTION_THREAD_PARAMETER@@@@QEAA@XZ" ; vdsbas.dll
"??1?$CVdsHeapPtr@U_BOOT_ENTRY@@@@QEAA@XZ" ; vdsbas.dll
"??1?$CVdsHeapPtr@U_DRIVE_LAYOUT_INFORMATION_EX@@@@QEAA@XZ" ; vdsbas.dll
"??1?$CVdsHeapPtr@U_FILE_PATH@@@@QEAA@XZ" ; vdsbas.dll
"??1?$CVdsHeapPtr@U_SP_DEVICE_INTERFACE_DETAIL_DATA_W@@@@QEAA@XZ" ; vdsbas.dll
"??1?$CVdsHeapPtr@U_VDS_DRIVE_LAYOUT_INFORMATION_EX@@@@QEAA@XZ" ; vdsbas.dll
"??1?$CVdsHeapPtr@U_VOLMGR_HIDDEN_VOLUMES@@@@QEAA@XZ" ; vdsbas.dll
"??1?$CVdsPtr@D@@QEAA@XZ" ; vdsbas.dll
"??1?$CVdsPtr@E@@QEAA@XZ" ; vdsbas.dll
"??1?$CVdsPtr@G@@QEAA@XZ" ; vdsbas.dll
"??1?$CVdsPtr@U_AUCTION_THREAD_PARAMETER@@@@QEAA@XZ" ; vdsbas.dll
"??1?$CVdsPtr@U_BOOT_ENTRY@@@@QEAA@XZ" ; vdsbas.dll
"??1?$CVdsPtr@U_DRIVE_LAYOUT_INFORMATION_EX@@@@QEAA@XZ" ; vdsbas.dll
"??1?$CVdsPtr@U_FILE_PATH@@@@QEAA@XZ" ; vdsbas.dll
"??1?$CVdsPtr@U_SP_DEVICE_INTERFACE_DETAIL_DATA_W@@@@QEAA@XZ" ; vdsbas.dll
"??1?$CVdsPtr@U_VDS_DRIVE_LAYOUT_INFORMATION_EX@@@@QEAA@XZ" ; vdsbas.dll
"??1?$CVdsPtr@U_VOLMGR_HIDDEN_VOLUMES@@@@QEAA@XZ" ; vdsbas.dll
"??1CPrvEnumObject@@QEAA@XZ" ; vdsbas.dll
"??1CVdsCriticalSection@@QEAA@XZ" ; vdsbas.dll
"??1CVdsDebugLog@@QEAA@XZ" ; vdsbas.dll
"??1CVdsPnPNotificationBase@@QEAA@XZ" ; vdsbas.dll
"??1CVdsStructuredExceptionTranslator@@QEAA@XZ" ; vdsbas.dll
"??1CVdsUnlockIt@@QEAA@XZ" ; vdsbas.dll
"??4?$CVdsHandleImpl@$0A@@@QEAAPEAXPEAX@Z" ; vdsbas.dll
"??4?$CVdsHeapPtr@D@@QEAAPEADPEAD@Z" ; vdsbas.dll
"??4?$CVdsHeapPtr@E@@QEAAPEAEPEAE@Z" ; vdsbas.dll
"??4?$CVdsHeapPtr@G@@QEAAPEAGPEAG@Z" ; vdsbas.dll
"??4?$CVdsHeapPtr@U_AUCTION_THREAD_PARAMETER@@@@QEAAPEAU_AUCTION_THREAD_PARAMETER@@PEAU1@@Z" ; vdsbas.dll
"??4?$CVdsHeapPtr@U_BOOT_ENTRY@@@@QEAAPEAU_BOOT_ENTRY@@PEAU1@@Z" ; vdsbas.dll
"??4?$CVdsHeapPtr@U_FILE_PATH@@@@QEAAPEAU_FILE_PATH@@PEAU1@@Z" ; vdsbas.dll
"??4?$CVdsHeapPtr@U_VDS_DRIVE_LAYOUT_INFORMATION_EX@@@@QEAAPEAU_VDS_DRIVE_LAYOUT_INFORMATION_EX@@PEAU1@@Z" ; vdsbas.dll
"??8?$CVdsHandleImpl@$0A@@@QEBA_NPEAX@Z" ; vdsbas.dll
"??8?$CVdsPtr@D@@QEBA_NPEAD@Z" ; vdsbas.dll
"??8?$CVdsPtr@E@@QEBA_NPEAE@Z" ; vdsbas.dll
"??8?$CVdsPtr@G@@QEBA_NPEAG@Z" ; vdsbas.dll
"??8?$CVdsPtr@U_BOOT_ENTRY@@@@QEBA_NPEAU_BOOT_ENTRY@@@Z" ; vdsbas.dll
"??8?$CVdsPtr@U_FILE_PATH@@@@QEBA_NPEAU_FILE_PATH@@@Z" ; vdsbas.dll
"??9?$CVdsHandleImpl@$0A@@@QEBA_NPEAX@Z" ; vdsbas.dll
"??9?$CVdsPtr@E@@QEBA_NPEAE@Z" ; vdsbas.dll
"??9?$CVdsPtr@G@@QEBA_NPEAG@Z" ; vdsbas.dll
"??9?$CVdsPtr@U_AUCTION_THREAD_PARAMETER@@@@QEBA_NPEAU_AUCTION_THREAD_PARAMETER@@@Z" ; vdsbas.dll
"??A?$CVdsPtr@D@@QEAAAEADK@Z" ; vdsbas.dll
"??B?$CVdsHandleImpl@$0?0@@QEAAPEAXXZ" ; vdsbas.dll
"??B?$CVdsHandleImpl@$0A@@@QEAAPEAXXZ" ; vdsbas.dll
"??B?$CVdsPtr@D@@QEBAPEADXZ" ; vdsbas.dll
"??B?$CVdsPtr@E@@QEBAPEAEXZ" ; vdsbas.dll
"??B?$CVdsPtr@G@@QEBAPEAGXZ" ; vdsbas.dll
"??B?$CVdsPtr@U_AUCTION_THREAD_PARAMETER@@@@QEBAPEAU_AUCTION_THREAD_PARAMETER@@XZ" ; vdsbas.dll
"??B?$CVdsPtr@U_DRIVE_LAYOUT_INFORMATION_EX@@@@QEBAPEAU_DRIVE_LAYOUT_INFORMATION_EX@@XZ" ; vdsbas.dll
"??B?$CVdsPtr@U_FILE_PATH@@@@QEBAPEAU_FILE_PATH@@XZ" ; vdsbas.dll
"??B?$CVdsPtr@U_VDS_DRIVE_LAYOUT_INFORMATION_EX@@@@QEBAPEAU_VDS_DRIVE_LAYOUT_INFORMATION_EX@@XZ" ; vdsbas.dll
"??C?$CVdsPtr@U_AUCTION_THREAD_PARAMETER@@@@QEBAPEAU_AUCTION_THREAD_PARAMETER@@XZ" ; vdsbas.dll
"??C?$CVdsPtr@U_BOOT_ENTRY@@@@QEBAPEAU_BOOT_ENTRY@@XZ" ; vdsbas.dll
"??C?$CVdsPtr@U_DRIVE_LAYOUT_INFORMATION_EX@@@@QEBAPEAU_DRIVE_LAYOUT_INFORMATION_EX@@XZ" ; vdsbas.dll
"??C?$CVdsPtr@U_FILE_PATH@@@@QEBAPEAU_FILE_PATH@@XZ" ; vdsbas.dll
"??C?$CVdsPtr@U_VDS_DRIVE_LAYOUT_INFORMATION_EX@@@@QEBAPEAU_VDS_DRIVE_LAYOUT_INFORMATION_EX@@XZ" ; vdsbas.dll
"??I?$CVdsHandleImpl@$0?0@@QEAAPEAPEAXXZ" ; vdsbas.dll
"??I?$CVdsPtr@G@@QEAAPEAPEAGXZ" ; vdsbas.dll
"??I?$CVdsPtr@U_DRIVE_LAYOUT_INFORMATION_EX@@@@QEAAPEAPEAU_DRIVE_LAYOUT_INFORMATION_EX@@XZ" ; vdsbas.dll
"??I?$CVdsPtr@U_VDS_DRIVE_LAYOUT_INFORMATION_EX@@@@QEAAPEAPEAU_VDS_DRIVE_LAYOUT_INFORMATION_EX@@XZ" ; vdsbas.dll
"?AllowCancel@CVdsAsyncObjectBase@@QEAAXXZ" ; vdsbas.dll
"?Attach@?$CVdsPtr@G@@QEAAXPEAG@Z" ; vdsbas.dll
"?Attach@?$CVdsPtr@U_DRIVE_LAYOUT_INFORMATION_EX@@@@QEAAXPEAU_DRIVE_LAYOUT_INFORMATION_EX@@@Z" ; vdsbas.dll
"?Attach@?$CVdsPtr@U_SP_DEVICE_INTERFACE_DETAIL_DATA_W@@@@QEAAXPEAU_SP_DEVICE_INTERFACE_DETAIL_DATA_W@@@Z" ; vdsbas.dll
"?Attach@?$CVdsPtr@U_VDS_DRIVE_LAYOUT_INFORMATION_EX@@@@QEAAXPEAU_VDS_DRIVE_LAYOUT_INFORMATION_EX@@@Z" ; vdsbas.dll
"?Attach@?$CVdsPtr@U_VOLMGR_HIDDEN_VOLUMES@@@@QEAAXPEAU_VOLMGR_HIDDEN_VOLUMES@@@Z" ; vdsbas.dll
"?Close@?$CVdsHandleImpl@$0?0@@QEAAXXZ" ; vdsbas.dll
"?Detach@?$CVdsHandleImpl@$0?0@@QEAAPEAXXZ" ; vdsbas.dll
"?Detach@?$CVdsPtr@G@@QEAAPEAGXZ" ; vdsbas.dll
"?Detach@?$CVdsPtr@U_AUCTION_THREAD_PARAMETER@@@@QEAAPEAU_AUCTION_THREAD_PARAMETER@@XZ" ; vdsbas.dll
"?Detach@?$CVdsPtr@U_DRIVE_LAYOUT_INFORMATION_EX@@@@QEAAPEAU_DRIVE_LAYOUT_INFORMATION_EX@@XZ" ; vdsbas.dll
"?Detach@?$CVdsPtr@U_VDS_DRIVE_LAYOUT_INFORMATION_EX@@@@QEAAPEAU_VDS_DRIVE_LAYOUT_INFORMATION_EX@@XZ" ; vdsbas.dll
"?DisallowCancel@CVdsAsyncObjectBase@@QEAAXXZ" ; vdsbas.dll
"?GetOutputType@CVdsAsyncObjectBase@@QEAA?AW4__MIDL___MIDL_itf_vdsswprv_0000_0002@@XZ" ; vdsbas.dll
"?IsCancelRequested@CVdsAsyncObjectBase@@QEAAHXZ" ; vdsbas.dll
"?SetOutputType@CVdsAsyncObjectBase@@QEAAXW4__MIDL___MIDL_itf_vdsswprv_0000_0002@@@Z" ; vdsbas.dll
"?SetPositionToLast@CPrvEnumObject@@QEAAXXZ" ; vdsbas.dll
"?TracingLogEnabled@CVdsDebugLog@@QEAAHXZ" ; vdsbas.dll
"?ZeroAsyncOut@CVdsAsyncObjectBase@@QEAAXXZ" ; vdsbas.dll
"DllCanUnloadNow" ; vdsbas.dll
"DllGetClassObject" ; vdsbas.dll
"DllRegisterServer" ; vdsbas.dll
"DllUnregisterServer" ; vdsbas.dll
