LIBRARY "vdsutil.dll"
EXPORTS
"??0?$CVdsHandleImpl@$0?0@@QEAA@XZ" ; vdsutil.dll
"??0?$CVdsHeapPtr@U_MOUNTMGR_MOUNT_POINT@@@@QEAA@XZ" ; vdsutil.dll
"??0?$CVdsHeapPtr@U_MOUNTMGR_MOUNT_POINTS@@@@QEAA@XZ" ; vdsutil.dll
"??0?$CVdsPtr@U_MOUNTMGR_MOUNT_POINT@@@@QEAA@XZ" ; vdsutil.dll
"??0?$CVdsPtr@U_MOUNTMGR_MOUNT_POINTS@@@@QEAA@XZ" ; vdsutil.dll
"??0CPrvEnumObject@@QEAA@XZ" ; vdsutil.dll
"??0CVdsAsyncObjectBase@@QEAA@XZ" ; vdsutil.dll
"??0CVdsCallTracer@@QEAA@KPEBD@Z" ; vdsutil.dll
"??0CVdsCriticalSection@@QEAA@PEAU_RTL_CRITICAL_SECTION@@@Z" ; vdsutil.dll
"??0CVdsDebugLog@@QEAA@H@Z" ; vdsutil.dll
"??0CVdsPnPNotificationBase@@QEAA@XZ" ; vdsutil.dll
"??0CVdsStructuredExceptionTranslator@@QEAA@XZ" ; vdsutil.dll
"??0CVdsUnlockIt@@QEAA@AEAJ@Z" ; vdsutil.dll
"??0CVdsWmiVariantObjectArrayEnum@@QEAA@XZ" ; vdsutil.dll
"??1?$CVdsHandleImpl@$0?0@@QEAA@XZ" ; vdsutil.dll
"??1?$CVdsHeapPtr@U_MOUNTMGR_MOUNT_POINT@@@@QEAA@XZ" ; vdsutil.dll
"??1?$CVdsHeapPtr@U_MOUNTMGR_MOUNT_POINTS@@@@QEAA@XZ" ; vdsutil.dll
"??1?$CVdsPtr@U_MOUNTMGR_MOUNT_POINT@@@@QEAA@XZ" ; vdsutil.dll
"??1?$CVdsPtr@U_MOUNTMGR_MOUNT_POINTS@@@@QEAA@XZ" ; vdsutil.dll
"??1CPrvEnumObject@@QEAA@XZ" ; vdsutil.dll
"??1CVdsAsyncObjectBase@@QEAA@XZ" ; vdsutil.dll
"??1CVdsCallTracer@@QEAA@XZ" ; vdsutil.dll
"??1CVdsCriticalSection@@QEAA@XZ" ; vdsutil.dll
"??1CVdsDebugLog@@QEAA@XZ" ; vdsutil.dll
"??1CVdsPnPNotificationBase@@QEAA@XZ" ; vdsutil.dll
"??1CVdsStructuredExceptionTranslator@@QEAA@XZ" ; vdsutil.dll
"??1CVdsUnlockIt@@QEAA@XZ" ; vdsutil.dll
"??1CVdsWmiVariantObjectArrayEnum@@QEAA@XZ" ; vdsutil.dll
"??4?$CVdsHandleImpl@$0?0@@QEAAPEAXPEAX@Z" ; vdsutil.dll
"??4?$CVdsHeapPtr@U_MOUNTMGR_MOUNT_POINT@@@@QEAAPEAU_MOUNTMGR_MOUNT_POINT@@PEAU1@@Z" ; vdsutil.dll
"??4?$CVdsHeapPtr@U_MOUNTMGR_MOUNT_POINTS@@@@QEAAPEAU_MOUNTMGR_MOUNT_POINTS@@PEAU1@@Z" ; vdsutil.dll
"??8?$CVdsHandleImpl@$0?0@@QEBA_NPEAX@Z" ; vdsutil.dll
"??8?$CVdsPtr@U_MOUNTMGR_MOUNT_POINT@@@@QEBA_NPEAU_MOUNTMGR_MOUNT_POINT@@@Z" ; vdsutil.dll
"??8?$CVdsPtr@U_MOUNTMGR_MOUNT_POINTS@@@@QEBA_NPEAU_MOUNTMGR_MOUNT_POINTS@@@Z" ; vdsutil.dll
"??B?$CVdsHandleImpl@$0?0@@QEAAPEAXXZ" ; vdsutil.dll
"??B?$CVdsPtr@U_MOUNTMGR_MOUNT_POINT@@@@QEBAPEAU_MOUNTMGR_MOUNT_POINT@@XZ" ; vdsutil.dll
"??B?$CVdsPtr@U_MOUNTMGR_MOUNT_POINTS@@@@QEBAPEAU_MOUNTMGR_MOUNT_POINTS@@XZ" ; vdsutil.dll
"??C?$CVdsPtr@U_MOUNTMGR_MOUNT_POINT@@@@QEBAPEAU_MOUNTMGR_MOUNT_POINT@@XZ" ; vdsutil.dll
"??C?$CVdsPtr@U_MOUNTMGR_MOUNT_POINTS@@@@QEBAPEAU_MOUNTMGR_MOUNT_POINTS@@XZ" ; vdsutil.dll
"??I?$CVdsHandleImpl@$0?0@@QEAAPEAPEAXXZ" ; vdsutil.dll
"??M@YA_NAEBU_GUID@@0@Z" ; vdsutil.dll
"?AddEventSource@@YAKPEAGPEAUHINSTANCE__@@@Z" ; vdsutil.dll
"?AllowCancel@CVdsAsyncObjectBase@@QEAAXXZ" ; vdsutil.dll
"?Append@CPrvEnumObject@@QEAAJPEAUIUnknown@@@Z" ; vdsutil.dll
"?AssignTempVolumeName@@YAJPEAGQEAG@Z" ; vdsutil.dll
"?Attach@CVdsWmiVariantObjectArrayEnum@@QEAAJPEAUtagVARIANT@@@Z" ; vdsutil.dll
"?Cancel@CVdsAsyncObjectBase@@UEAAJXZ" ; vdsutil.dll
"?Clear@CPrvEnumObject@@QEAAXXZ" ; vdsutil.dll
"?Clone@CPrvEnumObject@@UEAAJPEAPEAUIEnumVdsObject@@@Z" ; vdsutil.dll
"?CoFreeStringArray@@YAXPEAPEAGJ@Z" ; vdsutil.dll
"?CreateDeviceInfoSet@@YAKPEAGPEAPEAXPEAU_SP_DEVINFO_DATA@@@Z" ; vdsutil.dll
"?CreateListenThread@CVdsPnPNotificationBase@@AEAAKXZ" ; vdsutil.dll
"?Detach@?$CVdsHandleImpl@$0?0@@QEAAPEAXXZ" ; vdsutil.dll
"?Detach@CVdsWmiVariantObjectArrayEnum@@QEAAJXZ" ; vdsutil.dll
"?DisallowCancel@CVdsAsyncObjectBase@@QEAAXXZ" ; vdsutil.dll
"?GarbageCollectDriveLetters@@YAXXZ" ; vdsutil.dll
"?GetDeviceAndMediaType@@YAKPEAXPEAK1@Z" ; vdsutil.dll
"?GetDeviceLocation@@YAKPEAXPEAU_VDS_DISK_PROP@@@Z" ; vdsutil.dll
"?GetDeviceName@@YAKPEAXHQEAG@Z" ; vdsutil.dll
"?GetDeviceNumber@@YAKPEAXPEAU_STORAGE_DEVICE_NUMBER@@@Z" ; vdsutil.dll
"?GetDeviceRegistryProperty@@YAKKKPEAPEAEK@Z" ; vdsutil.dll
"?GetDeviceRegistryProperty@@YAKPEAXPEAU_SP_DEVINFO_DATA@@KPEAPEAEK@Z" ; vdsutil.dll
"?GetDiskLayout@@YAKPEAXPEAPEAU_DRIVE_LAYOUT_INFORMATION_EX@@@Z" ; vdsutil.dll
"?GetInterfaceDetailData@@YAKPEAXPEAU_SP_DEVICE_INTERFACE_DATA@@PEAPEAU_SP_DEVICE_INTERFACE_DETAIL_DATA_W@@@Z" ; vdsutil.dll
"?GetIsRemovable@@YAKPEAXPEAH@Z" ; vdsutil.dll
"?GetMediaGeometry@@YAKPEAXKPEAU_DISK_GEOMETRY@@@Z" ; vdsutil.dll
"?GetMediaGeometry@@YAKPEAXPEAU_VDS_DISK_PROP@@@Z" ; vdsutil.dll
"?GetOutputType@CVdsAsyncObjectBase@@QEAA?AW4__MIDL___MIDL_itf_vdscmlyr_0000_0002@@XZ" ; vdsutil.dll
"?GetPartitionInformation@@YAKPEAXPEAU_PARTITION_INFORMATION_EX@@@Z" ; vdsutil.dll
"?GetVolumeDiskExtentInfo@@YAKPEAXPEAPEAU_VOLUME_DISK_EXTENTS@@@Z" ; vdsutil.dll
"?GetVolumeName@@YAJPEAG0@Z" ; vdsutil.dll
"?GetVolumeSize@@YAKPEAGPEA_K@Z" ; vdsutil.dll
"?GetWindowHandle@CVdsPnPNotificationBase@@QEAAPEAUHWND__@@XZ" ; vdsutil.dll
"?HasMatchingNotification@CVdsPnPNotificationBase@@IEAAH_KK@Z" ; vdsutil.dll
"?Initialize@CVdsAsyncObjectBase@@SAKXZ" ; vdsutil.dll
"?Initialize@CVdsPnPNotificationBase@@QEAAKXZ" ; vdsutil.dll
"?InitializeSecurityDescriptor@@YAKKPEAXPEAPEAU_ACL@@PEAPEAX22@Z" ; vdsutil.dll
"?IsCancelRequested@CVdsAsyncObjectBase@@QEAAHXZ" ; vdsutil.dll
"?IsDeviceFullyInstalled@@YAHPEAG@Z" ; vdsutil.dll
"?IsDiskClustered@@YAHPEAX@Z" ; vdsutil.dll
"?IsFinished@CVdsAsyncObjectBase@@QEAAHXZ" ; vdsutil.dll
"?IsLocalComputer@@YAJPEAG@Z" ; vdsutil.dll
"?IsMediaPresent@@YAHPEAX@Z" ; vdsutil.dll
"?IsNoAutoMount@@YAHXZ" ; vdsutil.dll
"?IsWinPE@@YAHXZ" ; vdsutil.dll
"?LockDismountVolume@@YAKPEAXH@Z" ; vdsutil.dll
"?LockVolume@@YAKPEAX@Z" ; vdsutil.dll
"?Log@CVdsDebugLog@@QEAAXKKHPEAD0@Z" ; vdsutil.dll
"?Log@CVdsDebugLog@@QEAAXKKHPEADZZ" ; vdsutil.dll
"?LogError@@YAXPEAGKKPEAXKK0PEAD@Z" ; vdsutil.dll
"?LogEvent@@YAXPEAGKGKPEAXKQEAPEAG@Z" ; vdsutil.dll
"?LogInfo@@YAXPEAGKKPEAXK0PEAD@Z" ; vdsutil.dll
"?LogWarning@@YAXPEAGKKPEAXKK0PEAD@Z" ; vdsutil.dll
"?MountVolume@@YAKPEAG@Z" ; vdsutil.dll
"?Next@CPrvEnumObject@@UEAAJKPEAPEAUIUnknown@@PEAK@Z" ; vdsutil.dll
"?Next@CVdsWmiVariantObjectArrayEnum@@QEAAJPEAPEAUIWbemClassObject@@@Z" ; vdsutil.dll
"?NotificationThread@CVdsPnPNotificationBase@@AEAAKPEAX@Z" ; vdsutil.dll
"?NotificationThreadEntry@CVdsPnPNotificationBase@@CAKPEAX@Z" ; vdsutil.dll
"?OpenDevice@@YAKPEAGKPEAPEAX@Z" ; vdsutil.dll
"?QueryObjects@@YAJPEAUIUnknown@@PEAPEAUIEnumVdsObject@@AEAU_RTL_CRITICAL_SECTION@@@Z" ; vdsutil.dll
"?QueryStatus@CVdsAsyncObjectBase@@UEAAJPEAJPEAK@Z" ; vdsutil.dll
"?Register@CVdsPnPNotificationBase@@QEAAKPEAU_NotificationListeningRequest@@K@Z" ; vdsutil.dll
"?RegisterHandle@CVdsPnPNotificationBase@@QEAAKPEAXPEAPEAX@Z" ; vdsutil.dll
"?RegisterProvider@@YAJU_GUID@@0PEAGW4_VDS_PROVIDER_TYPE@@110@Z" ; vdsutil.dll
"?RemoveEventSource@@YAKPEAG@Z" ; vdsutil.dll
"?RemoveTempVolumeName@@YAXPEAG0@Z" ; vdsutil.dll
"?Reset@CPrvEnumObject@@UEAAJXZ" ; vdsutil.dll
"?Reset@CVdsWmiVariantObjectArrayEnum@@QEAAJXZ" ; vdsutil.dll
"?SetCompletionStatus@CVdsAsyncObjectBase@@QEAAXJK@Z" ; vdsutil.dll
"?SetDiskLayout@@YAKPEAXPEAU_DRIVE_LAYOUT_INFORMATION_EX@@@Z" ; vdsutil.dll
"?SetOutputType@CVdsAsyncObjectBase@@QEAAXW4__MIDL___MIDL_itf_vdscmlyr_0000_0002@@@Z" ; vdsutil.dll
"?SetPositionToLast@CPrvEnumObject@@QEAAXXZ" ; vdsutil.dll
"?Signal@CVdsAsyncObjectBase@@QEAAXXZ" ; vdsutil.dll
"?Skip@CPrvEnumObject@@UEAAJK@Z" ; vdsutil.dll
"?TracingLogEnabled@CVdsDebugLog@@QEAAHXZ" ; vdsutil.dll
"?Uninitialize@CVdsAsyncObjectBase@@SAXXZ" ; vdsutil.dll
"?Uninitialize@CVdsPnPNotificationBase@@QEAAXXZ" ; vdsutil.dll
"?Unregister@CVdsPnPNotificationBase@@QEAAXPEAU_NotificationListeningRequest@@@Z" ; vdsutil.dll
"?UnregisterHandle@CVdsPnPNotificationBase@@QEAAXPEAX@Z" ; vdsutil.dll
"?UnregisterProvider@@YAJU_GUID@@@Z" ; vdsutil.dll
"?VdsAllocateEmptyString@@YAPEAGXZ" ; vdsutil.dll
"?VdsHeapAlloc@@YAPEAXPEAXK_K@Z" ; vdsutil.dll
"?VdsHeapFree@@YAHPEAXK0@Z" ; vdsutil.dll
"?VdsInitializeCriticalSection@@YAKPEAU_RTL_CRITICAL_SECTION@@@Z" ; vdsutil.dll
"?VdsIscsiCacheSessionDevices@@YAJPEAUIEnumWbemClassObject@@PEAPEAU_VDSISCSI_SESSION_DEVICES_CACHE@@@Z" ; vdsutil.dll
"?VdsIscsiCheckEqualIpAddress@@YAHU_VDS_IPADDRESS@@0@Z" ; vdsutil.dll
"?VdsIscsiGetIpAddressFromInstance@@YAJPEAUIWbemClassObject@@PEAGPEAU_VDS_IPADDRESS@@@Z" ; vdsutil.dll
"?VdsIscsiIpAddressToIpsecId@@YAJPEAU_VDS_IPADDRESS@@PEAEPEAKPEAPEAE@Z" ; vdsutil.dll
"?VdsIscsiIpAddressToString@@YAJPEAU_VDS_IPADDRESS@@KPEAG@Z" ; vdsutil.dll
"?VdsIscsiIpsecIdToIpAddress@@YAJEKPEAEPEAU_VDS_IPADDRESS@@@Z" ; vdsutil.dll
"?VdsIscsiIsIscsiLun@@YAJPEAUIWbemClassObject@@PEAU_VDSISCSI_SESSION_DEVICES_CACHE@@PEAH@Z" ; vdsutil.dll
"?VdsIscsiSetIpAddressInInstance@@YAJPEAUIWbemServices@@PEAUIWbemClassObject@@PEAGPEAU_VDS_IPADDRESS@@@Z" ; vdsutil.dll
"?VdsSeTranslator@CVdsStructuredExceptionTranslator@@SAXIPEAU_EXCEPTION_POINTERS@@@Z" ; vdsutil.dll
"?VdsTrace@@YAXKPEADZZ" ; vdsutil.dll
"?VdsTraceEx@@YAXKKPEADZZ" ; vdsutil.dll
"?VdsTraceExHelper@@YAXKKPEAD0@Z" ; vdsutil.dll
"?VdsTraceExW@@YAXKKPEAGZZ" ; vdsutil.dll
"?VdsTraceExWHelper@@YAXKKPEAGPEAD@Z" ; vdsutil.dll
"?VdsTraceW@@YAXKPEAGZZ" ; vdsutil.dll
"?VdsWmiCallMethod@@YAJPEAUIWbemServices@@PEAUIWbemClassObject@@PEAG1PEAPEAU2@@Z" ; vdsutil.dll
"?VdsWmiConnectToNamespace@@YAJPEAGPEAPEAUIWbemLocator@@PEAPEAUIWbemServices@@@Z" ; vdsutil.dll
"?VdsWmiCopyFromVariantByteArray@@YAJPEAUIWbemClassObject@@PEAGJPEAE@Z" ; vdsutil.dll
"?VdsWmiCopyToVariantByteArray@@YAJPEAUIWbemClassObject@@PEAGJPEAE@Z" ; vdsutil.dll
"?VdsWmiCreateClassInstance@@YAJPEAUIWbemServices@@PEAGPEAPEAUIWbemClassObject@@@Z" ; vdsutil.dll
"?VdsWmiCreateVariantArray@@YAJGJPEAUtagVARIANT@@@Z" ; vdsutil.dll
"?VdsWmiFindInstanceOfClass@@YAJPEAUIWbemServices@@PEAG1PEAPEAUIWbemClassObject@@@Z" ; vdsutil.dll
"?VdsWmiGetBoolFromInstance@@YAJPEAUIWbemClassObject@@PEAGPEAH@Z" ; vdsutil.dll
"?VdsWmiGetByteFromInstance@@YAJPEAUIWbemClassObject@@PEAGPEAE@Z" ; vdsutil.dll
"?VdsWmiGetByteInVariantByteArray@@YAJPEAUIWbemClassObject@@PEAGJPEAE@Z" ; vdsutil.dll
"?VdsWmiGetMethodArgumentObject@@YAJPEAUIWbemServices@@PEAG1PEAPEAUIWbemClassObject@@@Z" ; vdsutil.dll
"?VdsWmiGetObjectFromInstance@@YAJPEAUIWbemClassObject@@PEAGPEAPEAU1@@Z" ; vdsutil.dll
"?VdsWmiGetObjectInVariantObjectArray@@YAJPEAUIWbemClassObject@@PEAGJPEAPEAU1@@Z" ; vdsutil.dll
"?VdsWmiGetUlongFromInstance@@YAJPEAUIWbemClassObject@@PEAGPEAK@Z" ; vdsutil.dll
"?VdsWmiGetUlonglongFromInstance@@YAJPEAUIWbemClassObject@@PEAGPEA_K@Z" ; vdsutil.dll
"?VdsWmiSetBoolInInstance@@YAJPEAUIWbemClassObject@@PEAGH@Z" ; vdsutil.dll
"?VdsWmiSetByteInInstance@@YAJPEAUIWbemClassObject@@PEAGE@Z" ; vdsutil.dll
"?VdsWmiSetObjectInInstance@@YAJPEAUIWbemClassObject@@PEAG0@Z" ; vdsutil.dll
"?VdsWmiSetStringInInstance@@YAJPEAUIWbemClassObject@@PEAG1@Z" ; vdsutil.dll
"?VdsWmiSetUlongInInstance@@YAJPEAUIWbemClassObject@@PEAGK@Z" ; vdsutil.dll
"?VdsWmiSetUlonglongInInstance@@YAJPEAUIWbemClassObject@@PEAG_K@Z" ; vdsutil.dll
"?WaitImpl@CVdsAsyncObjectBase@@QEAAJPEAJ@Z" ; vdsutil.dll
"?WindowProcEntry@CVdsPnPNotificationBase@@CA_JPEAUHWND__@@I_K_J@Z" ; vdsutil.dll
"?ZeroAsyncOut@CVdsAsyncObjectBase@@QEAAXXZ" ; vdsutil.dll
"DllMain" ; vdsutil.dll
"RegisterVdsFabric" ; vdsutil.dll
"UnregisterVdsFabric" ; vdsutil.dll
