LIBRARY "vssapi.dll"
EXPORTS
"??0CVssJetWriter@@QEAA@XZ" ; vssapi.dll
"??0CVssWriter@@QEAA@XZ" ; vssapi.dll
"??1CVssJetWriter@@UEAA@XZ" ; vssapi.dll
"??1CVssWriter@@UEAA@XZ" ; vssapi.dll
"?AreComponentsSelected@CVssWriter@@IEBA_NXZ" ; vssapi.dll
"?CreateVssBackupComponents@@YAJPEAPEAVIVssBackupComponents@@@Z" ; vssapi.dll
"?CreateVssExamineWriterMetadata@@YAJPEAGPEAPEAVIVssExamineWriterMetadata@@@Z" ; vssapi.dll
"?CreateVssSnapshotSetDescription@@YAJU_GUID@@JPEAPEAVIVssSnapshotSetDescription@@@Z" ; vssapi.dll
"?GetBackupType@CVssWriter@@IEBA?AW4_VSS_BACKUP_TYPE@@XZ" ; vssapi.dll
"?GetContext@CVssWriter@@IEBAJXZ" ; vssapi.dll
"?GetCurrentLevel@CVssWriter@@IEBA?AW4_VSS_APPLICATION_LEVEL@@XZ" ; vssapi.dll
"?GetCurrentSnapshotSetId@CVssWriter@@IEBA?AU_GUID@@XZ" ; vssapi.dll
"?GetCurrentVolumeArray@CVssWriter@@IEBAPEAPEBGXZ" ; vssapi.dll
"?GetCurrentVolumeCount@CVssWriter@@IEBAIXZ" ; vssapi.dll
"?GetRestoreType@CVssWriter@@IEBA?AW4_VSS_RESTORE_TYPE@@XZ" ; vssapi.dll
"?GetSnapshotDeviceName@CVssWriter@@IEBAJPEBGPEAPEBG@Z" ; vssapi.dll
"?Initialize@CVssJetWriter@@QEAAJU_GUID@@PEBG_N211@Z" ; vssapi.dll
"?Initialize@CVssWriter@@QEAAJU_GUID@@PEBGW4VSS_USAGE_TYPE@@W4VSS_SOURCE_TYPE@@W4_VSS_APPLICATION_LEVEL@@KW4VSS_ALTERNATE_WRITER_STATE@@_N1@Z" ; vssapi.dll
"?InstallAlternateWriter@CVssWriter@@QEAAJU_GUID@@0@Z" ; vssapi.dll
"?IsBootableSystemStateBackedUp@CVssWriter@@IEBA_NXZ" ; vssapi.dll
"?IsPartialFileSupportEnabled@CVssWriter@@IEBA_NXZ" ; vssapi.dll
"?IsPathAffected@CVssWriter@@IEBA_NPEBG@Z" ; vssapi.dll
"?LoadVssSnapshotSetDescription@@YAJPEBGPEAPEAVIVssSnapshotSetDescription@@U_GUID@@@Z" ; vssapi.dll
"?OnAbortBegin@CVssJetWriter@@UEAAXXZ" ; vssapi.dll
"?OnAbortEnd@CVssJetWriter@@UEAAXXZ" ; vssapi.dll
"?OnBackOffIOOnVolume@CVssWriter@@UEAA_NPEAGU_GUID@@1@Z" ; vssapi.dll
"?OnBackupComplete@CVssWriter@@UEAA_NPEAVIVssWriterComponents@@@Z" ; vssapi.dll
"?OnBackupCompleteBegin@CVssJetWriter@@UEAA_NPEAVIVssWriterComponents@@@Z" ; vssapi.dll
"?OnBackupCompleteEnd@CVssJetWriter@@UEAA_NPEAVIVssWriterComponents@@_N@Z" ; vssapi.dll
"?OnBackupShutdown@CVssWriter@@UEAA_NU_GUID@@@Z" ; vssapi.dll
"?OnContinueIOOnVolume@CVssWriter@@UEAA_NPEAGU_GUID@@1@Z" ; vssapi.dll
"?OnFreezeBegin@CVssJetWriter@@UEAA_NXZ" ; vssapi.dll
"?OnFreezeEnd@CVssJetWriter@@UEAA_N_N@Z" ; vssapi.dll
"?OnIdentify@CVssJetWriter@@UEAA_NPEAVIVssCreateWriterMetadata@@@Z" ; vssapi.dll
"?OnIdentify@CVssWriter@@UEAA_NPEAVIVssCreateWriterMetadata@@@Z" ; vssapi.dll
"?OnPostRestore@CVssWriter@@UEAA_NPEAVIVssWriterComponents@@@Z" ; vssapi.dll
"?OnPostRestoreBegin@CVssJetWriter@@UEAA_NPEAVIVssWriterComponents@@@Z" ; vssapi.dll
"?OnPostRestoreEnd@CVssJetWriter@@UEAA_NPEAVIVssWriterComponents@@_N@Z" ; vssapi.dll
"?OnPostSnapshot@CVssJetWriter@@UEAA_NPEAVIVssWriterComponents@@@Z" ; vssapi.dll
"?OnPostSnapshot@CVssWriter@@UEAA_NPEAVIVssWriterComponents@@@Z" ; vssapi.dll
"?OnPreRestore@CVssWriter@@UEAA_NPEAVIVssWriterComponents@@@Z" ; vssapi.dll
"?OnPreRestoreBegin@CVssJetWriter@@UEAA_NPEAVIVssWriterComponents@@@Z" ; vssapi.dll
"?OnPreRestoreEnd@CVssJetWriter@@UEAA_NPEAVIVssWriterComponents@@_N@Z" ; vssapi.dll
"?OnPrepareBackup@CVssWriter@@UEAA_NPEAVIVssWriterComponents@@@Z" ; vssapi.dll
"?OnPrepareBackupBegin@CVssJetWriter@@UEAA_NPEAVIVssWriterComponents@@@Z" ; vssapi.dll
"?OnPrepareBackupEnd@CVssJetWriter@@UEAA_NPEAVIVssWriterComponents@@_N@Z" ; vssapi.dll
"?OnPrepareSnapshotBegin@CVssJetWriter@@UEAA_NXZ" ; vssapi.dll
"?OnPrepareSnapshotEnd@CVssJetWriter@@UEAA_N_N@Z" ; vssapi.dll
"?OnThawBegin@CVssJetWriter@@UEAA_NXZ" ; vssapi.dll
"?OnThawEnd@CVssJetWriter@@UEAA_N_N@Z" ; vssapi.dll
"?OnVSSApplicationStartup@CVssWriter@@UEAA_NXZ" ; vssapi.dll
"?OnVSSShutdown@CVssWriter@@UEAA_NXZ" ; vssapi.dll
"?SetWriterFailure@CVssWriter@@IEAAJJ@Z" ; vssapi.dll
"?Subscribe@CVssWriter@@QEAAJK@Z" ; vssapi.dll
"?Uninitialize@CVssJetWriter@@QEAAXXZ" ; vssapi.dll
"?Unsubscribe@CVssWriter@@QEAAJXZ" ; vssapi.dll
"IsVolumeSnapshotted" ; vssapi.dll
"ShouldBlockRevert" ; vssapi.dll
"SimulateSnapshotFreeze" ; vssapi.dll
"SimulateSnapshotThaw" ; vssapi.dll
"VssFreeSnapshotProperties" ; vssapi.dll
